; ModuleID = 'llvm-link'
source_filename = "llvm-link"
target datalayout = "e-m:e-p:32:32-Fi8-i64:64-v128:64:128-a:0:32-n32-S64"
target triple = "thumbv7-unknown-linux-ohos"

%"class.std::__h::basic_ostream" = type { ptr, %"class.std::__h::basic_ios" }
%"class.std::__h::basic_ios" = type { %"class.std::__h::ios_base", ptr, i32 }
%"class.std::__h::ios_base" = type { ptr, i32, i32, i32, i32, i32, ptr, ptr, ptr, ptr, i32, i32, ptr, i32, i32, ptr, i32, i32 }
%"class.std::__h::locale::id" = type { %struct.anon, i32 }
%struct.anon = type { i32 }
%struct.anon.0 = type { i8 }
%"class.std::__h::locale" = type { ptr }
%"class.std::__h::basic_ifstream" = type { %"class.std::__h::basic_istream.base", %"class.std::__h::basic_filebuf", %"class.std::__h::basic_ios" }
%"class.std::__h::basic_istream.base" = type { ptr, i32 }
%"class.std::__h::basic_filebuf" = type <{ %"class.std::__h::basic_streambuf", ptr, ptr, ptr, [8 x i8], i32, ptr, i32, ptr, ptr, %struct.__mbstate_t, %struct.__mbstate_t, i32, i32, i8, i8, i8, i8 }>
%"class.std::__h::basic_streambuf" = type { ptr, %"class.std::__h::locale", ptr, ptr, ptr, ptr, ptr, ptr }
%struct.__mbstate_t = type { i32, i32 }
%"class.std::__h::basic_ofstream" = type { %"class.std::__h::locale", %"class.std::__h::basic_filebuf", %"class.std::__h::basic_ios" }
%"class.std::__h::basic_string" = type { %"class.std::__h::__compressed_pair" }
%"class.std::__h::__compressed_pair" = type { %"struct.std::__h::__compressed_pair_elem" }
%"struct.std::__h::__compressed_pair_elem" = type { %"struct.std::__h::basic_string<char>::__rep" }
%"struct.std::__h::basic_string<char>::__rep" = type { %union.anon }
%union.anon = type { %"struct.std::__h::basic_string<char>::__long" }
%"struct.std::__h::basic_string<char>::__long" = type { %struct.anon, i32, ptr }
%"class.std::__h::basic_istream" = type { ptr, i32, %"class.std::__h::basic_ios" }
%"struct.std::__h::basic_string<char>::__short" = type { %struct.anon.0, [0 x i8], [11 x i8] }
%"class.std::__h::basic_ostream<char>::sentry" = type { i8, ptr }
%"class.std::__h::fpos" = type { %struct.__mbstate_t, i64 }
%"struct.std::__h::basic_string<char16_t>::__short" = type { %struct.anon.0, [1 x i8], [5 x i16] }
%"class.OHOS::SDemo::SDemoStub" = type { %"class.OHOS::IRemoteStub.base", %"class.std::__h::unordered_map", %"class.OHOS::Parcelable.base", %"class.OHOS::RefBase", [4 x i8] }
%"class.OHOS::IRemoteStub.base" = type { %"class.OHOS::IPCObjectStub.base", %"class.OHOS::SDemo::ISDemoService.base" }
%"class.OHOS::IPCObjectStub.base" = type <{ %"class.OHOS::IRemoteObject.base", %"class.std::__h::recursive_mutex", i8, [7 x i8], i64, %"struct.std::__h::atomic.9" }>
%"class.OHOS::IRemoteObject.base" = type { ptr, %"class.std::__h::basic_string" }
%"class.std::__h::recursive_mutex" = type { %struct.pthread_mutex_t }
%struct.pthread_mutex_t = type { %union.anon.8 }
%union.anon.8 = type { [6 x i32] }
%"struct.std::__h::atomic.9" = type { %"struct.std::__h::__atomic_base.10" }
%"struct.std::__h::__atomic_base.10" = type { %"struct.std::__h::__cxx_atomic_impl.11" }
%"struct.std::__h::__cxx_atomic_impl.11" = type { %struct.anon.0 }
%"class.OHOS::SDemo::ISDemoService.base" = type { %"class.std::__h::locale" }
%"class.std::__h::unordered_map" = type { %"class.std::__h::__hash_table" }
%"class.std::__h::__hash_table" = type { %"class.std::__h::unique_ptr", %"class.std::__h::__compressed_pair.22", %"class.std::__h::__compressed_pair.16", %"class.std::__h::__compressed_pair.30" }
%"class.std::__h::unique_ptr" = type { %"class.std::__h::__compressed_pair.13" }
%"class.std::__h::__compressed_pair.13" = type { %"class.std::__h::locale", %"struct.std::__h::__compressed_pair_elem.15" }
%"struct.std::__h::__compressed_pair_elem.15" = type { %"class.std::__h::__bucket_list_deallocator" }
%"class.std::__h::__bucket_list_deallocator" = type { %"class.std::__h::__compressed_pair.16" }
%"class.std::__h::__compressed_pair.22" = type { %"class.OHOS::SDemo::ISDemoService.base" }
%"class.std::__h::__compressed_pair.16" = type { %struct.anon }
%"class.std::__h::__compressed_pair.30" = type { %"struct.std::__h::__compressed_pair_elem.31" }
%"struct.std::__h::__compressed_pair_elem.31" = type { float }
%"class.OHOS::Parcelable.base" = type <{ ptr, i8, i8 }>
%"class.OHOS::RefBase" = type { ptr, ptr }
%"struct.std::__h::__hash_node" = type { %"class.std::__h::locale", i32, %"struct.std::__h::__hash_value_type" }
%"struct.std::__h::__hash_value_type" = type { %"struct.std::__h::pair" }
%"struct.std::__h::pair" = type { i32, { i32, i32 } }
%"struct.std::__h::pair.45" = type <{ %"class.std::__h::locale", i8, [3 x i8] }>

$_ZNSt3__h13basic_filebufIcNS_11char_traitsIcEEEC2Ev = comdat any

$_ZNSt3__h7getlineIcNS_11char_traitsIcEENS_9allocatorIcEEEERNS_13basic_istreamIT_T0_EES9_RNS_12basic_stringIS6_S7_T1_EES6_ = comdat any

$_ZNSt3__h24__put_character_sequenceIcNS_11char_traitsIcEEEERNS_13basic_ostreamIT_T0_EES7_PKS4_j = comdat any

$_ZNSt3__h13basic_filebufIcNS_11char_traitsIcEEED2Ev = comdat any

$_ZNSt3__h13basic_filebufIcNS_11char_traitsIcEEE4syncEv = comdat any

$_ZNSt3__h16__throw_bad_castB6v15004Ev = comdat any

$_ZNSt3__h13basic_filebufIcNS_11char_traitsIcEEED0Ev = comdat any

$_ZNSt3__h13basic_filebufIcNS_11char_traitsIcEEE5imbueERKNS_6localeE = comdat any

$_ZNSt3__h13basic_filebufIcNS_11char_traitsIcEEE6setbufEPci = comdat any

$_ZNSt3__h13basic_filebufIcNS_11char_traitsIcEEE7seekoffExNS_8ios_base7seekdirEj = comdat any

$_ZNSt3__h13basic_filebufIcNS_11char_traitsIcEEE7seekposENS_4fposI11__mbstate_tEEj = comdat any

$_ZNSt3__h13basic_filebufIcNS_11char_traitsIcEEE9underflowEv = comdat any

$_ZNSt3__h13basic_filebufIcNS_11char_traitsIcEEE9pbackfailEi = comdat any

$_ZNSt3__h13basic_filebufIcNS_11char_traitsIcEEE8overflowEi = comdat any

$_ZNSt3__h16__pad_and_outputIcNS_11char_traitsIcEEEENS_19ostreambuf_iteratorIT_T0_EES6_PKS4_S8_S8_RNS_8ios_baseES4_ = comdat any

$_ZNSt3__h14basic_ofstreamIcNS_11char_traitsIcEEED1Ev = comdat any

$_ZNSt3__h14basic_ofstreamIcNS_11char_traitsIcEEED0Ev = comdat any

$_ZTv0_n12_NSt3__h14basic_ofstreamIcNS_11char_traitsIcEEED1Ev = comdat any

$_ZTv0_n12_NSt3__h14basic_ofstreamIcNS_11char_traitsIcEEED0Ev = comdat any

$_ZNSt3__h14basic_ifstreamIcNS_11char_traitsIcEEED1Ev = comdat any

$_ZNSt3__h14basic_ifstreamIcNS_11char_traitsIcEEED0Ev = comdat any

$_ZTv0_n12_NSt3__h14basic_ifstreamIcNS_11char_traitsIcEEED1Ev = comdat any

$_ZTv0_n12_NSt3__h14basic_ifstreamIcNS_11char_traitsIcEEED0Ev = comdat any

$_ZNK4OHOS13IPCObjectStub13IsProxyObjectEv = comdat any

$_ZN4OHOS11IRemoteStubINS_5SDemo13ISDemoServiceEE11AsInterfaceEv = comdat any

$_ZN4OHOS11IRemoteStubINS_5SDemo13ISDemoServiceEE8AsObjectEv = comdat any

$_ZThn60_N4OHOS11IRemoteStubINS_5SDemo13ISDemoServiceEE8AsObjectEv = comdat any

$_ZN4OHOS10ParcelableD1Ev = comdat any

$_ZN4OHOS10ParcelableD0Ev = comdat any

$_ZTv0_n12_N4OHOS10ParcelableD1Ev = comdat any

$_ZTv0_n12_N4OHOS10ParcelableD0Ev = comdat any

$_ZN4OHOS13IRemoteBrokerD1Ev = comdat any

$_ZN4OHOS13IRemoteBrokerD0Ev = comdat any

$_ZTv0_n12_N4OHOS13IRemoteBrokerD1Ev = comdat any

$_ZTv0_n12_N4OHOS13IRemoteBrokerD0Ev = comdat any

$_ZN4OHOS5SDemo13ISDemoServiceD1Ev = comdat any

$_ZN4OHOS5SDemo13ISDemoServiceD0Ev = comdat any

$_ZTv0_n12_N4OHOS5SDemo13ISDemoServiceD1Ev = comdat any

$_ZTv0_n12_N4OHOS5SDemo13ISDemoServiceD0Ev = comdat any

$_ZN4OHOS13IRemoteObjectD1Ev = comdat any

$_ZN4OHOS13IRemoteObjectD0Ev = comdat any

$_ZTv0_n16_N4OHOS13IRemoteObjectD1Ev = comdat any

$_ZTv0_n16_N4OHOS13IRemoteObjectD0Ev = comdat any

$_ZTv0_n12_N4OHOS13IRemoteObjectD1Ev = comdat any

$_ZTv0_n12_N4OHOS13IRemoteObjectD0Ev = comdat any

$_ZN4OHOS11IRemoteStubINS_5SDemo13ISDemoServiceEED1Ev = comdat any

$_ZN4OHOS11IRemoteStubINS_5SDemo13ISDemoServiceEED0Ev = comdat any

$_ZThn60_N4OHOS11IRemoteStubINS_5SDemo13ISDemoServiceEED1Ev = comdat any

$_ZThn60_N4OHOS11IRemoteStubINS_5SDemo13ISDemoServiceEED0Ev = comdat any

$_ZTv0_n16_N4OHOS11IRemoteStubINS_5SDemo13ISDemoServiceEED1Ev = comdat any

$_ZTv0_n16_N4OHOS11IRemoteStubINS_5SDemo13ISDemoServiceEED0Ev = comdat any

$_ZTv0_n12_N4OHOS11IRemoteStubINS_5SDemo13ISDemoServiceEED1Ev = comdat any

$_ZTv0_n12_N4OHOS11IRemoteStubINS_5SDemo13ISDemoServiceEED0Ev = comdat any

$_ZN4OHOS11IRemoteStubINS_5SDemo13ISDemoServiceEEC2Eb = comdat any

$_ZNSt3__h12__hash_tableINS_17__hash_value_typeIjMN4OHOS5SDemo9SDemoStubEFiRNS2_13MessageParcelES6_EEENS_22__unordered_map_hasherIjS9_NS_4hashIjEENS_8equal_toIjEELb1EEENS_21__unordered_map_equalIjS9_SE_SC_Lb1EEENS_9allocatorIS9_EEE25__emplace_unique_key_argsIjJRKNS_21piecewise_construct_tENS_5tupleIJOjEEENSP_IJEEEEEENS_4pairINS_15__hash_iteratorIPNS_11__hash_nodeIS9_PvEEEEbEERKT_DpOT0_ = comdat any

$_ZNSt3__h12__hash_tableINS_17__hash_value_typeIjMN4OHOS5SDemo9SDemoStubEFiRNS2_13MessageParcelES6_EEENS_22__unordered_map_hasherIjS9_NS_4hashIjEENS_8equal_toIjEELb1EEENS_21__unordered_map_equalIjS9_SE_SC_Lb1EEENS_9allocatorIS9_EEE11__do_rehashILb1EEEvj = comdat any

$_ZSt28__throw_bad_array_new_lengthB6v15004v = comdat any

$_ZN4OHOS5SDemo12SDemoService12GetClassNameEv = comdat any

$_ZTVNSt3__h14basic_ofstreamIcNS_11char_traitsIcEEEE = comdat any

$_ZTTNSt3__h14basic_ofstreamIcNS_11char_traitsIcEEEE = comdat any

$_ZTCNSt3__h14basic_ofstreamIcNS_11char_traitsIcEEEE0_NS_13basic_ostreamIcS2_EE = comdat any

$_ZTVNSt3__h13basic_filebufIcNS_11char_traitsIcEEEE = comdat any

$_ZTVNSt3__h14basic_ifstreamIcNS_11char_traitsIcEEEE = comdat any

$_ZTTNSt3__h14basic_ifstreamIcNS_11char_traitsIcEEEE = comdat any

$_ZTCNSt3__h14basic_ifstreamIcNS_11char_traitsIcEEEE0_NS_13basic_istreamIcS2_EE = comdat any

@.str = private unnamed_addr constant [12 x i8] c"/etc/shadow\00", align 1, !dbg !0
@.str.1 = private unnamed_addr constant [17 x i8] c"/home/ubuntu/log\00", align 1, !dbg !8
@.str.2 = private unnamed_addr constant [11 x i8] c"hello word\00", align 1, !dbg !13
@_ZNSt3__h4coutE = external global %"class.std::__h::basic_ostream", align 4
@.str.3 = private unnamed_addr constant [10 x i8] c"HelloWord\00", align 1, !dbg !18
@_ZTVNSt3__h14basic_ofstreamIcNS_11char_traitsIcEEEE = linkonce_odr unnamed_addr constant { [5 x ptr], [5 x ptr] } { [5 x ptr] [ptr inttoptr (i32 104 to ptr), ptr null, ptr null, ptr @_ZNSt3__h14basic_ofstreamIcNS_11char_traitsIcEEED1Ev, ptr @_ZNSt3__h14basic_ofstreamIcNS_11char_traitsIcEEED0Ev], [5 x ptr] [ptr inttoptr (i32 -104 to ptr), ptr inttoptr (i32 -104 to ptr), ptr null, ptr @_ZTv0_n12_NSt3__h14basic_ofstreamIcNS_11char_traitsIcEEED1Ev, ptr @_ZTv0_n12_NSt3__h14basic_ofstreamIcNS_11char_traitsIcEEED0Ev] }, comdat, align 4, !type !23, !type !24, !type !25, !type !26
@_ZTTNSt3__h14basic_ofstreamIcNS_11char_traitsIcEEEE = linkonce_odr unnamed_addr constant [4 x ptr] [ptr getelementptr inbounds ({ [5 x ptr], [5 x ptr] }, ptr @_ZTVNSt3__h14basic_ofstreamIcNS_11char_traitsIcEEEE, i32 0, inrange i32 0, i32 3), ptr getelementptr inbounds ({ [5 x ptr], [5 x ptr] }, ptr @_ZTCNSt3__h14basic_ofstreamIcNS_11char_traitsIcEEEE0_NS_13basic_ostreamIcS2_EE, i32 0, inrange i32 0, i32 3), ptr getelementptr inbounds ({ [5 x ptr], [5 x ptr] }, ptr @_ZTCNSt3__h14basic_ofstreamIcNS_11char_traitsIcEEEE0_NS_13basic_ostreamIcS2_EE, i32 0, inrange i32 1, i32 3), ptr getelementptr inbounds ({ [5 x ptr], [5 x ptr] }, ptr @_ZTVNSt3__h14basic_ofstreamIcNS_11char_traitsIcEEEE, i32 0, inrange i32 1, i32 3)], comdat, align 4
@_ZTCNSt3__h14basic_ofstreamIcNS_11char_traitsIcEEEE0_NS_13basic_ostreamIcS2_EE = linkonce_odr unnamed_addr constant { [5 x ptr], [5 x ptr] } { [5 x ptr] [ptr inttoptr (i32 104 to ptr), ptr null, ptr null, ptr @_ZNSt3__h13basic_ostreamIcNS_11char_traitsIcEEED1Ev, ptr @_ZNSt3__h13basic_ostreamIcNS_11char_traitsIcEEED0Ev], [5 x ptr] [ptr inttoptr (i32 -104 to ptr), ptr inttoptr (i32 -104 to ptr), ptr null, ptr @_ZTv0_n12_NSt3__h13basic_ostreamIcNS_11char_traitsIcEEED1Ev, ptr @_ZTv0_n12_NSt3__h13basic_ostreamIcNS_11char_traitsIcEEED0Ev] }, comdat, align 4, !type !23, !type !25, !type !26
@_ZTVNSt3__h13basic_filebufIcNS_11char_traitsIcEEEE = linkonce_odr unnamed_addr constant { [16 x ptr] } { [16 x ptr] [ptr null, ptr null, ptr @_ZNSt3__h13basic_filebufIcNS_11char_traitsIcEEED2Ev, ptr @_ZNSt3__h13basic_filebufIcNS_11char_traitsIcEEED0Ev, ptr @_ZNSt3__h13basic_filebufIcNS_11char_traitsIcEEE5imbueERKNS_6localeE, ptr @_ZNSt3__h13basic_filebufIcNS_11char_traitsIcEEE6setbufEPci, ptr @_ZNSt3__h13basic_filebufIcNS_11char_traitsIcEEE7seekoffExNS_8ios_base7seekdirEj, ptr @_ZNSt3__h13basic_filebufIcNS_11char_traitsIcEEE7seekposENS_4fposI11__mbstate_tEEj, ptr @_ZNSt3__h13basic_filebufIcNS_11char_traitsIcEEE4syncEv, ptr @_ZNSt3__h15basic_streambufIcNS_11char_traitsIcEEE9showmanycEv, ptr @_ZNSt3__h15basic_streambufIcNS_11char_traitsIcEEE6xsgetnEPci, ptr @_ZNSt3__h13basic_filebufIcNS_11char_traitsIcEEE9underflowEv, ptr @_ZNSt3__h15basic_streambufIcNS_11char_traitsIcEEE5uflowEv, ptr @_ZNSt3__h13basic_filebufIcNS_11char_traitsIcEEE9pbackfailEi, ptr @_ZNSt3__h15basic_streambufIcNS_11char_traitsIcEEE6xsputnEPKci, ptr @_ZNSt3__h13basic_filebufIcNS_11char_traitsIcEEE8overflowEi] }, comdat, align 4, !type !27, !type !28, !type !29, !type !30, !type !31, !type !32, !type !33, !type !34, !type !35, !type !36, !type !37, !type !38, !type !39, !type !40, !type !41, !type !42, !type !43, !type !44, !type !45, !type !46, !type !47, !type !48, !type !49, !type !50, !type !51, !type !52
@_ZNSt3__h7codecvtIcc11__mbstate_tE2idE = external global %"class.std::__h::locale::id", align 4
@_ZTVNSt3__h14basic_ifstreamIcNS_11char_traitsIcEEEE = linkonce_odr unnamed_addr constant { [5 x ptr], [5 x ptr] } { [5 x ptr] [ptr inttoptr (i32 108 to ptr), ptr null, ptr null, ptr @_ZNSt3__h14basic_ifstreamIcNS_11char_traitsIcEEED1Ev, ptr @_ZNSt3__h14basic_ifstreamIcNS_11char_traitsIcEEED0Ev], [5 x ptr] [ptr inttoptr (i32 -108 to ptr), ptr inttoptr (i32 -108 to ptr), ptr null, ptr @_ZTv0_n12_NSt3__h14basic_ifstreamIcNS_11char_traitsIcEEED1Ev, ptr @_ZTv0_n12_NSt3__h14basic_ifstreamIcNS_11char_traitsIcEEED0Ev] }, comdat, align 4, !type !53, !type !54, !type !25, !type !26
@_ZTTNSt3__h14basic_ifstreamIcNS_11char_traitsIcEEEE = linkonce_odr unnamed_addr constant [4 x ptr] [ptr getelementptr inbounds ({ [5 x ptr], [5 x ptr] }, ptr @_ZTVNSt3__h14basic_ifstreamIcNS_11char_traitsIcEEEE, i32 0, inrange i32 0, i32 3), ptr getelementptr inbounds ({ [5 x ptr], [5 x ptr] }, ptr @_ZTCNSt3__h14basic_ifstreamIcNS_11char_traitsIcEEEE0_NS_13basic_istreamIcS2_EE, i32 0, inrange i32 0, i32 3), ptr getelementptr inbounds ({ [5 x ptr], [5 x ptr] }, ptr @_ZTCNSt3__h14basic_ifstreamIcNS_11char_traitsIcEEEE0_NS_13basic_istreamIcS2_EE, i32 0, inrange i32 1, i32 3), ptr getelementptr inbounds ({ [5 x ptr], [5 x ptr] }, ptr @_ZTVNSt3__h14basic_ifstreamIcNS_11char_traitsIcEEEE, i32 0, inrange i32 1, i32 3)], comdat, align 4
@_ZTCNSt3__h14basic_ifstreamIcNS_11char_traitsIcEEEE0_NS_13basic_istreamIcS2_EE = linkonce_odr unnamed_addr constant { [5 x ptr], [5 x ptr] } { [5 x ptr] [ptr inttoptr (i32 108 to ptr), ptr null, ptr null, ptr @_ZNSt3__h13basic_istreamIcNS_11char_traitsIcEEED1Ev, ptr @_ZNSt3__h13basic_istreamIcNS_11char_traitsIcEEED0Ev], [5 x ptr] [ptr inttoptr (i32 -108 to ptr), ptr inttoptr (i32 -108 to ptr), ptr null, ptr @_ZTv0_n12_NSt3__h13basic_istreamIcNS_11char_traitsIcEEED1Ev, ptr @_ZTv0_n12_NSt3__h13basic_istreamIcNS_11char_traitsIcEEED0Ev] }, comdat, align 4, !type !53, !type !25, !type !26
@.str.5 = private unnamed_addr constant [2 x i8] c"a\00", align 1, !dbg !55
@.str.6 = private unnamed_addr constant [2 x i8] c"r\00", align 1, !dbg !61
@_ZNSt3__h5ctypeIcE2idE = external global %"class.std::__h::locale::id", align 4
@_ZTVN4OHOS5SDemo9SDemoStubE = unnamed_addr constant { [25 x ptr], [10 x ptr], [8 x ptr], [15 x ptr] } { [25 x ptr] [ptr inttoptr (i32 92 to ptr), ptr inttoptr (i32 84 to ptr), ptr null, ptr null, ptr @_ZN4OHOS13IPCObjectStub17GetObjectRefCountEv, ptr @_ZN4OHOS13IPCObjectStub11SendRequestEjRNS_13MessageParcelES2_RNS_13MessageOptionE, ptr @_ZNK4OHOS13IPCObjectStub13IsProxyObjectEv, ptr @_ZNK4OHOS13IRemoteObject12IsObjectDeadEv, ptr @_ZN4OHOS13IRemoteObject22GetInterfaceDescriptorEv, ptr @_ZNK4OHOS13IRemoteObject19CheckObjectLegalityEv, ptr @_ZN4OHOS13IPCObjectStub17AddDeathRecipientERKNS_4sptrINS_13IRemoteObject14DeathRecipientEEE, ptr @_ZN4OHOS13IPCObjectStub20RemoveDeathRecipientERKNS_4sptrINS_13IRemoteObject14DeathRecipientEEE, ptr @_ZNK4OHOS13IRemoteObject11MarshallingERNS_6ParcelE, ptr @_ZN4OHOS11IRemoteStubINS_5SDemo13ISDemoServiceEE11AsInterfaceEv, ptr @_ZN4OHOS13IPCObjectStub4DumpEiRKNSt3__h6vectorINS1_12basic_stringIDsNS1_11char_traitsIDsEENS1_9allocatorIDsEEEENS6_IS8_EEEE, ptr @_ZN4OHOS5SDemo9SDemoStubD1Ev, ptr @_ZN4OHOS5SDemo9SDemoStubD0Ev, ptr @_ZN4OHOS5SDemo9SDemoStub15OnRemoteRequestEjRNS_13MessageParcelES3_RNS_13MessageOptionE, ptr @_ZN4OHOS13IPCObjectStub16OnFirstStrongRefEPKv, ptr @_ZN4OHOS13IPCObjectStub15OnLastStrongRefEPKv, ptr @_ZN4OHOS13IPCObjectStub12OnRemoteDumpEjRNS_13MessageParcelES2_RNS_13MessageOptionE, ptr @_ZN4OHOS13IPCObjectStub12ProcessProtoEjRNS_13MessageParcelES2_RNS_13MessageOptionE, ptr @_ZNK4OHOS13IPCObjectStub13GetObjectTypeEv, ptr @_ZN4OHOS13IPCObjectStub21GetAndSaveDBinderDataEij, ptr @_ZN4OHOS11IRemoteStubINS_5SDemo13ISDemoServiceEE8AsObjectEv], [10 x ptr] [ptr inttoptr (i32 32 to ptr), ptr inttoptr (i32 -60 to ptr), ptr null, ptr @_ZThn60_N4OHOS5SDemo9SDemoStubD1Ev, ptr @_ZThn60_N4OHOS5SDemo9SDemoStubD0Ev, ptr @_ZThn60_N4OHOS11IRemoteStubINS_5SDemo13ISDemoServiceEE8AsObjectEv, ptr @__cxa_pure_virtual, ptr @__cxa_pure_virtual, ptr @__cxa_pure_virtual, ptr @__cxa_pure_virtual], [8 x ptr] [ptr inttoptr (i32 -84 to ptr), ptr inttoptr (i32 -84 to ptr), ptr inttoptr (i32 8 to ptr), ptr inttoptr (i32 -84 to ptr), ptr null, ptr @_ZTv0_n16_N4OHOS5SDemo9SDemoStubD1Ev, ptr @_ZTv0_n16_N4OHOS5SDemo9SDemoStubD0Ev, ptr @_ZTv0_n20_NK4OHOS13IRemoteObject11MarshallingERNS_6ParcelE], [15 x ptr] [ptr null, ptr null, ptr inttoptr (i32 -92 to ptr), ptr inttoptr (i32 -92 to ptr), ptr null, ptr inttoptr (i32 -92 to ptr), ptr inttoptr (i32 -92 to ptr), ptr null, ptr @_ZTv0_n12_N4OHOS5SDemo9SDemoStubD1Ev, ptr @_ZTv0_n12_N4OHOS5SDemo9SDemoStubD0Ev, ptr @_ZN4OHOS7RefBase14RefPtrCallbackEv, ptr @_ZTv0_n20_N4OHOS13IPCObjectStub16OnFirstStrongRefEPKv, ptr @_ZTv0_n24_N4OHOS13IPCObjectStub15OnLastStrongRefEPKv, ptr @_ZN4OHOS7RefBase13OnLastWeakRefEPKv, ptr @_ZN4OHOS7RefBase17OnAttemptPromotedEPKv] }, align 4, !type !63, !type !64, !type !65, !type !66, !type !67, !type !68, !type !69, !type !70, !type !71, !type !72, !type !73, !type !74, !type !75, !type !76, !type !77, !type !78, !type !79, !type !80, !type !81, !type !82, !type !83, !type !84, !type !85, !type !86, !type !87, !type !88, !type !89, !type !90, !type !91, !type !92, !type !93, !type !94, !type !95, !type !96, !type !97, !type !98, !type !99, !type !100, !type !101, !type !102, !type !103, !type !104, !type !105, !type !106, !type !107, !type !108, !type !109, !type !110, !type !111, !type !112, !type !113, !type !114, !type !115, !type !116, !type !117, !type !118, !type !119, !type !120, !type !121, !type !122, !type !123, !type !124, !type !125, !type !126, !type !127, !type !128, !type !129, !type !130, !type !131, !type !132, !type !133, !type !134, !type !135, !type !136, !type !137, !type !138, !type !139, !type !140, !type !141, !type !142, !type !143, !type !144, !type !145, !type !146, !type !147, !type !148, !type !149, !type !150, !type !151, !type !152, !type !153, !type !154, !type !155, !type !156, !type !157, !type !158, !type !159, !type !160, !type !161, !type !162, !type !163, !type !164, !type !165, !type !166, !type !167, !type !168, !type !169, !type !170, !type !171, !type !172, !type !173, !type !174, !type !175, !type !176, !type !177, !type !178, !type !179, !type !180, !type !181, !type !182, !type !183, !type !184, !type !185, !type !186, !type !187, !type !188, !type !189, !type !190, !type !191, !type !192, !type !193, !type !194, !type !195, !type !196, !type !197, !type !198, !type !199, !type !200, !type !201, !type !202, !type !203, !type !204, !type !205, !type !206, !type !207, !type !208, !type !209, !type !210, !type !211, !type !212, !type !213, !type !214, !type !215, !type !216, !type !217, !type !218, !type !219, !type !220, !type !221, !type !222, !type !223, !type !224, !type !225, !type !226, !type !227, !type !228, !type !229, !type !230, !type !231, !type !232, !type !233, !type !234, !type !235, !type !236, !type !237, !type !238, !type !239, !type !240, !type !241, !type !242, !type !243, !type !244, !type !245, !type !246, !type !247, !type !248, !type !249, !type !250, !type !251, !type !252, !type !253, !type !254, !type !255, !type !256, !type !257, !type !258, !type !259, !type !260, !type !261, !type !262, !type !263, !type !264, !type !265, !type !266, !type !267, !type !268, !type !269, !type !270, !type !271, !type !272, !type !273, !type !274, !type !275, !type !276, !type !277, !type !278, !type !279, !type !280, !type !281, !type !282, !type !283, !type !284, !type !285, !type !286, !type !287, !type !288, !type !289, !type !290, !type !291, !type !292, !type !293, !type !294, !type !295, !type !296, !type !297, !type !298, !type !299, !type !300, !type !301, !type !302, !type !303, !type !304, !type !305, !type !306, !type !307, !type !308, !type !309, !type !310
@_ZTTN4OHOS5SDemo9SDemoStubE = unnamed_addr constant [20 x ptr] [ptr getelementptr inbounds ({ [25 x ptr], [10 x ptr], [8 x ptr], [15 x ptr] }, ptr @_ZTVN4OHOS5SDemo9SDemoStubE, i32 0, inrange i32 0, i32 4), ptr getelementptr inbounds ({ [25 x ptr], [10 x ptr], [8 x ptr], [15 x ptr] }, ptr @_ZTCN4OHOS5SDemo9SDemoStubE0_NS_11IRemoteStubINS0_13ISDemoServiceEEE, i32 0, inrange i32 0, i32 4), ptr getelementptr inbounds ({ [24 x ptr], [8 x ptr], [15 x ptr] }, ptr @_ZTCN4OHOS5SDemo9SDemoStubE0_NS_13IPCObjectStubE, i32 0, inrange i32 0, i32 4), ptr getelementptr inbounds ({ [17 x ptr], [8 x ptr], [15 x ptr] }, ptr @_ZTCN4OHOS5SDemo9SDemoStubE0_NS_13IRemoteObjectE, i32 0, inrange i32 0, i32 4), ptr getelementptr inbounds ({ [17 x ptr], [8 x ptr], [15 x ptr] }, ptr @_ZTCN4OHOS5SDemo9SDemoStubE0_NS_13IRemoteObjectE, i32 0, inrange i32 1, i32 5), ptr getelementptr inbounds ({ [17 x ptr], [8 x ptr], [15 x ptr] }, ptr @_ZTCN4OHOS5SDemo9SDemoStubE0_NS_13IRemoteObjectE, i32 0, inrange i32 2, i32 8), ptr getelementptr inbounds ({ [24 x ptr], [8 x ptr], [15 x ptr] }, ptr @_ZTCN4OHOS5SDemo9SDemoStubE0_NS_13IPCObjectStubE, i32 0, inrange i32 1, i32 5), ptr getelementptr inbounds ({ [24 x ptr], [8 x ptr], [15 x ptr] }, ptr @_ZTCN4OHOS5SDemo9SDemoStubE0_NS_13IPCObjectStubE, i32 0, inrange i32 2, i32 8), ptr getelementptr inbounds ({ [10 x ptr], [15 x ptr] }, ptr @_ZTCN4OHOS5SDemo9SDemoStubE60_NS0_13ISDemoServiceE, i32 0, inrange i32 0, i32 3), ptr getelementptr inbounds ({ [6 x ptr], [15 x ptr] }, ptr @_ZTCN4OHOS5SDemo9SDemoStubE60_NS_13IRemoteBrokerE, i32 0, inrange i32 0, i32 3), ptr getelementptr inbounds ({ [6 x ptr], [15 x ptr] }, ptr @_ZTCN4OHOS5SDemo9SDemoStubE60_NS_13IRemoteBrokerE, i32 0, inrange i32 1, i32 8), ptr getelementptr inbounds ({ [10 x ptr], [15 x ptr] }, ptr @_ZTCN4OHOS5SDemo9SDemoStubE60_NS0_13ISDemoServiceE, i32 0, inrange i32 1, i32 8), ptr getelementptr inbounds ({ [25 x ptr], [10 x ptr], [8 x ptr], [15 x ptr] }, ptr @_ZTCN4OHOS5SDemo9SDemoStubE0_NS_11IRemoteStubINS0_13ISDemoServiceEEE, i32 0, inrange i32 2, i32 5), ptr getelementptr inbounds ({ [25 x ptr], [10 x ptr], [8 x ptr], [15 x ptr] }, ptr @_ZTCN4OHOS5SDemo9SDemoStubE0_NS_11IRemoteStubINS0_13ISDemoServiceEEE, i32 0, inrange i32 3, i32 8), ptr getelementptr inbounds ({ [25 x ptr], [10 x ptr], [8 x ptr], [15 x ptr] }, ptr @_ZTCN4OHOS5SDemo9SDemoStubE0_NS_11IRemoteStubINS0_13ISDemoServiceEEE, i32 0, inrange i32 1, i32 3), ptr getelementptr inbounds ({ [25 x ptr], [10 x ptr], [8 x ptr], [15 x ptr] }, ptr @_ZTVN4OHOS5SDemo9SDemoStubE, i32 0, inrange i32 2, i32 5), ptr getelementptr inbounds ({ [25 x ptr], [10 x ptr], [8 x ptr], [15 x ptr] }, ptr @_ZTVN4OHOS5SDemo9SDemoStubE, i32 0, inrange i32 3, i32 8), ptr getelementptr inbounds ({ [25 x ptr], [10 x ptr], [8 x ptr], [15 x ptr] }, ptr @_ZTVN4OHOS5SDemo9SDemoStubE, i32 0, inrange i32 1, i32 3), ptr getelementptr inbounds ({ [8 x ptr], [15 x ptr] }, ptr @_ZTCN4OHOS5SDemo9SDemoStubE84_NS_10ParcelableE, i32 0, inrange i32 0, i32 5), ptr getelementptr inbounds ({ [8 x ptr], [15 x ptr] }, ptr @_ZTCN4OHOS5SDemo9SDemoStubE84_NS_10ParcelableE, i32 0, inrange i32 1, i32 8)], align 4
@_ZTCN4OHOS5SDemo9SDemoStubE0_NS_11IRemoteStubINS0_13ISDemoServiceEEE = unnamed_addr constant { [25 x ptr], [10 x ptr], [8 x ptr], [15 x ptr] } { [25 x ptr] [ptr inttoptr (i32 92 to ptr), ptr inttoptr (i32 84 to ptr), ptr null, ptr null, ptr @_ZN4OHOS13IPCObjectStub17GetObjectRefCountEv, ptr @_ZN4OHOS13IPCObjectStub11SendRequestEjRNS_13MessageParcelES2_RNS_13MessageOptionE, ptr @_ZNK4OHOS13IPCObjectStub13IsProxyObjectEv, ptr @_ZNK4OHOS13IRemoteObject12IsObjectDeadEv, ptr @_ZN4OHOS13IRemoteObject22GetInterfaceDescriptorEv, ptr @_ZNK4OHOS13IRemoteObject19CheckObjectLegalityEv, ptr @_ZN4OHOS13IPCObjectStub17AddDeathRecipientERKNS_4sptrINS_13IRemoteObject14DeathRecipientEEE, ptr @_ZN4OHOS13IPCObjectStub20RemoveDeathRecipientERKNS_4sptrINS_13IRemoteObject14DeathRecipientEEE, ptr @_ZNK4OHOS13IRemoteObject11MarshallingERNS_6ParcelE, ptr @_ZN4OHOS11IRemoteStubINS_5SDemo13ISDemoServiceEE11AsInterfaceEv, ptr @_ZN4OHOS13IPCObjectStub4DumpEiRKNSt3__h6vectorINS1_12basic_stringIDsNS1_11char_traitsIDsEENS1_9allocatorIDsEEEENS6_IS8_EEEE, ptr @_ZN4OHOS11IRemoteStubINS_5SDemo13ISDemoServiceEED1Ev, ptr @_ZN4OHOS11IRemoteStubINS_5SDemo13ISDemoServiceEED0Ev, ptr @_ZN4OHOS13IPCObjectStub15OnRemoteRequestEjRNS_13MessageParcelES2_RNS_13MessageOptionE, ptr @_ZN4OHOS13IPCObjectStub16OnFirstStrongRefEPKv, ptr @_ZN4OHOS13IPCObjectStub15OnLastStrongRefEPKv, ptr @_ZN4OHOS13IPCObjectStub12OnRemoteDumpEjRNS_13MessageParcelES2_RNS_13MessageOptionE, ptr @_ZN4OHOS13IPCObjectStub12ProcessProtoEjRNS_13MessageParcelES2_RNS_13MessageOptionE, ptr @_ZNK4OHOS13IPCObjectStub13GetObjectTypeEv, ptr @_ZN4OHOS13IPCObjectStub21GetAndSaveDBinderDataEij, ptr @_ZN4OHOS11IRemoteStubINS_5SDemo13ISDemoServiceEE8AsObjectEv], [10 x ptr] [ptr inttoptr (i32 32 to ptr), ptr inttoptr (i32 -60 to ptr), ptr null, ptr @_ZThn60_N4OHOS11IRemoteStubINS_5SDemo13ISDemoServiceEED1Ev, ptr @_ZThn60_N4OHOS11IRemoteStubINS_5SDemo13ISDemoServiceEED0Ev, ptr @_ZThn60_N4OHOS11IRemoteStubINS_5SDemo13ISDemoServiceEE8AsObjectEv, ptr @__cxa_pure_virtual, ptr @__cxa_pure_virtual, ptr @__cxa_pure_virtual, ptr @__cxa_pure_virtual], [8 x ptr] [ptr inttoptr (i32 -84 to ptr), ptr inttoptr (i32 -84 to ptr), ptr inttoptr (i32 8 to ptr), ptr inttoptr (i32 -84 to ptr), ptr null, ptr @_ZTv0_n16_N4OHOS11IRemoteStubINS_5SDemo13ISDemoServiceEED1Ev, ptr @_ZTv0_n16_N4OHOS11IRemoteStubINS_5SDemo13ISDemoServiceEED0Ev, ptr @_ZTv0_n20_NK4OHOS13IRemoteObject11MarshallingERNS_6ParcelE], [15 x ptr] [ptr null, ptr null, ptr inttoptr (i32 -92 to ptr), ptr inttoptr (i32 -92 to ptr), ptr null, ptr inttoptr (i32 -92 to ptr), ptr inttoptr (i32 -92 to ptr), ptr null, ptr @_ZTv0_n12_N4OHOS11IRemoteStubINS_5SDemo13ISDemoServiceEED1Ev, ptr @_ZTv0_n12_N4OHOS11IRemoteStubINS_5SDemo13ISDemoServiceEED0Ev, ptr @_ZN4OHOS7RefBase14RefPtrCallbackEv, ptr @_ZTv0_n20_N4OHOS13IPCObjectStub16OnFirstStrongRefEPKv, ptr @_ZTv0_n24_N4OHOS13IPCObjectStub15OnLastStrongRefEPKv, ptr @_ZN4OHOS7RefBase13OnLastWeakRefEPKv, ptr @_ZN4OHOS7RefBase17OnAttemptPromotedEPKv] }, align 4, !type !63, !type !64, !type !65, !type !66, !type !67, !type !68, !type !69, !type !70, !type !71, !type !72, !type !73, !type !74, !type !75, !type !76, !type !77, !type !78, !type !79, !type !80, !type !81, !type !82, !type !83, !type !84, !type !85, !type !86, !type !87, !type !88, !type !89, !type !90, !type !91, !type !92, !type !93, !type !94, !type !95, !type !96, !type !97, !type !98, !type !99, !type !100, !type !101, !type !102, !type !103, !type !104, !type !105, !type !106, !type !107, !type !108, !type !109, !type !110, !type !111, !type !112, !type !113, !type !114, !type !115, !type !116, !type !117, !type !118, !type !119, !type !120, !type !121, !type !122, !type !123, !type !124, !type !125, !type !126, !type !127, !type !128, !type !129, !type !130, !type !131, !type !132, !type !133, !type !134, !type !135, !type !136, !type !137, !type !138, !type !139, !type !140, !type !141, !type !142, !type !143, !type !144, !type !145, !type !146, !type !147, !type !148, !type !149, !type !150, !type !151, !type !152, !type !153, !type !154, !type !155, !type !156, !type !157, !type !158, !type !159, !type !160, !type !161, !type !162, !type !163, !type !164, !type !165, !type !166, !type !167, !type !168, !type !169, !type !170, !type !171, !type !172, !type !173, !type !174, !type !175, !type !176, !type !177, !type !178, !type !179, !type !180, !type !181, !type !182, !type !183, !type !184, !type !185, !type !186, !type !187, !type !188, !type !189, !type !190, !type !191, !type !192, !type !193, !type !194, !type !195, !type !196, !type !197, !type !198, !type !199, !type !200, !type !201, !type !202, !type !203, !type !204, !type !205, !type !206, !type !207, !type !208, !type !209, !type !210, !type !211, !type !212, !type !213, !type !214, !type !215, !type !216, !type !217, !type !218, !type !219, !type !220, !type !221, !type !222, !type !223, !type !224, !type !225, !type !226, !type !227, !type !228, !type !229, !type !230, !type !231, !type !232, !type !233, !type !234, !type !235, !type !236, !type !237, !type !238, !type !239, !type !240, !type !241, !type !242, !type !243, !type !244, !type !245, !type !246, !type !247, !type !248, !type !280, !type !281, !type !282, !type !283, !type !284, !type !285, !type !286, !type !287, !type !288, !type !289, !type !290, !type !291, !type !292, !type !293, !type !294, !type !295, !type !296, !type !297, !type !298, !type !299, !type !300, !type !301, !type !302, !type !303, !type !304, !type !305, !type !306, !type !307, !type !308, !type !309, !type !310, !type !63, !type !64, !type !65, !type !66, !type !67, !type !68, !type !69, !type !70, !type !71, !type !72, !type !73, !type !74, !type !75, !type !76, !type !77, !type !78, !type !79, !type !80, !type !81, !type !82, !type !83, !type !84, !type !85, !type !86, !type !87, !type !88, !type !89, !type !90, !type !91, !type !92, !type !93, !type !94, !type !95, !type !96, !type !97, !type !98, !type !99, !type !100, !type !101, !type !102, !type !103, !type !104, !type !105, !type !106, !type !107, !type !108, !type !109, !type !110, !type !111, !type !112, !type !113, !type !114, !type !115, !type !116, !type !117, !type !118, !type !119, !type !120, !type !121, !type !122, !type !123, !type !124, !type !125, !type !126, !type !127, !type !128, !type !129, !type !130, !type !131, !type !132, !type !133, !type !134, !type !135, !type !136, !type !137, !type !138, !type !139, !type !140, !type !141, !type !142, !type !143, !type !144, !type !145, !type !146, !type !147, !type !148, !type !149, !type !150, !type !151, !type !152, !type !153, !type !154, !type !155, !type !156, !type !157, !type !158, !type !159, !type !160, !type !161, !type !162, !type !163, !type !164, !type !165, !type !166, !type !167, !type !168, !type !169, !type !170, !type !171, !type !172, !type !173, !type !174, !type !175, !type !176, !type !177, !type !178, !type !179, !type !180, !type !181, !type !182, !type !183, !type !184, !type !185, !type !186, !type !187, !type !188, !type !189, !type !190, !type !191, !type !192, !type !193, !type !194, !type !195, !type !196, !type !197, !type !198, !type !199, !type !200, !type !201, !type !202, !type !203, !type !204, !type !205, !type !206, !type !207, !type !208, !type !209, !type !210, !type !211, !type !212, !type !213, !type !214, !type !215, !type !216, !type !217, !type !218, !type !219, !type !220, !type !221, !type !222, !type !223, !type !224, !type !225, !type !226, !type !227, !type !228, !type !229, !type !230, !type !231, !type !232, !type !233, !type !234, !type !235, !type !236, !type !237, !type !238, !type !239, !type !240, !type !241, !type !242, !type !243, !type !244, !type !245, !type !246, !type !247, !type !248, !type !280, !type !281, !type !282, !type !283, !type !284, !type !285, !type !286, !type !287, !type !288, !type !289, !type !290, !type !291, !type !292, !type !293, !type !294, !type !295, !type !296, !type !297, !type !298, !type !299, !type !300, !type !301, !type !302, !type !303, !type !304, !type !305, !type !306, !type !307, !type !308, !type !309, !type !310, !type !63, !type !64, !type !65, !type !66, !type !67, !type !68, !type !69, !type !70, !type !71, !type !72, !type !73, !type !74, !type !75, !type !76, !type !77, !type !78, !type !79, !type !80, !type !81, !type !82, !type !83, !type !84, !type !85, !type !86, !type !87, !type !88, !type !89, !type !90, !type !91, !type !92, !type !93, !type !94, !type !95, !type !96, !type !97, !type !98, !type !99, !type !100, !type !101, !type !102, !type !103, !type !104, !type !105, !type !106, !type !107, !type !108, !type !109, !type !110, !type !111, !type !112, !type !113, !type !114, !type !115, !type !116, !type !117, !type !118, !type !119, !type !120, !type !121, !type !122, !type !123, !type !124, !type !125, !type !126, !type !127, !type !128, !type !129, !type !130, !type !131, !type !132, !type !133, !type !134, !type !135, !type !136, !type !137, !type !138, !type !139, !type !140, !type !141, !type !142, !type !143, !type !144, !type !145, !type !146, !type !147, !type !148, !type !149, !type !150, !type !151, !type !152, !type !153, !type !154, !type !155, !type !156, !type !157, !type !158, !type !159, !type !160, !type !161, !type !162, !type !163, !type !164, !type !165, !type !166, !type !167, !type !168, !type !169, !type !170, !type !171, !type !172, !type !173, !type !174, !type !175, !type !176, !type !177, !type !178, !type !179, !type !180, !type !181, !type !182, !type !183, !type !184, !type !185, !type !186, !type !187, !type !188, !type !189, !type !190, !type !191, !type !192, !type !193, !type !194, !type !195, !type !196, !type !197, !type !198, !type !199, !type !200, !type !201, !type !202, !type !203, !type !204, !type !205, !type !206, !type !207, !type !208, !type !209, !type !210, !type !211, !type !212, !type !213, !type !214, !type !215, !type !216, !type !217, !type !218, !type !219, !type !220, !type !221, !type !222, !type !223, !type !224, !type !225, !type !226, !type !227, !type !228, !type !229, !type !230, !type !231, !type !232, !type !233, !type !234, !type !235, !type !236, !type !237, !type !238, !type !239, !type !240, !type !241, !type !242, !type !243, !type !244, !type !245, !type !246, !type !247, !type !248, !type !280, !type !281, !type !282, !type !283, !type !284, !type !285, !type !286, !type !287, !type !288, !type !289, !type !290, !type !291, !type !292, !type !293, !type !294, !type !295, !type !296, !type !297, !type !298, !type !299, !type !300, !type !301, !type !302, !type !303, !type !304, !type !305, !type !306, !type !307, !type !308, !type !309, !type !310
@_ZTCN4OHOS5SDemo9SDemoStubE0_NS_13IPCObjectStubE = unnamed_addr constant { [24 x ptr], [8 x ptr], [15 x ptr] } { [24 x ptr] [ptr inttoptr (i32 92 to ptr), ptr inttoptr (i32 84 to ptr), ptr null, ptr null, ptr @_ZN4OHOS13IPCObjectStub17GetObjectRefCountEv, ptr @_ZN4OHOS13IPCObjectStub11SendRequestEjRNS_13MessageParcelES2_RNS_13MessageOptionE, ptr @_ZNK4OHOS13IPCObjectStub13IsProxyObjectEv, ptr @_ZNK4OHOS13IRemoteObject12IsObjectDeadEv, ptr @_ZN4OHOS13IRemoteObject22GetInterfaceDescriptorEv, ptr @_ZNK4OHOS13IRemoteObject19CheckObjectLegalityEv, ptr @_ZN4OHOS13IPCObjectStub17AddDeathRecipientERKNS_4sptrINS_13IRemoteObject14DeathRecipientEEE, ptr @_ZN4OHOS13IPCObjectStub20RemoveDeathRecipientERKNS_4sptrINS_13IRemoteObject14DeathRecipientEEE, ptr @_ZNK4OHOS13IRemoteObject11MarshallingERNS_6ParcelE, ptr @_ZN4OHOS13IRemoteObject11AsInterfaceEv, ptr @_ZN4OHOS13IPCObjectStub4DumpEiRKNSt3__h6vectorINS1_12basic_stringIDsNS1_11char_traitsIDsEENS1_9allocatorIDsEEEENS6_IS8_EEEE, ptr @_ZN4OHOS13IPCObjectStubD1Ev, ptr @_ZN4OHOS13IPCObjectStubD0Ev, ptr @_ZN4OHOS13IPCObjectStub15OnRemoteRequestEjRNS_13MessageParcelES2_RNS_13MessageOptionE, ptr @_ZN4OHOS13IPCObjectStub16OnFirstStrongRefEPKv, ptr @_ZN4OHOS13IPCObjectStub15OnLastStrongRefEPKv, ptr @_ZN4OHOS13IPCObjectStub12OnRemoteDumpEjRNS_13MessageParcelES2_RNS_13MessageOptionE, ptr @_ZN4OHOS13IPCObjectStub12ProcessProtoEjRNS_13MessageParcelES2_RNS_13MessageOptionE, ptr @_ZNK4OHOS13IPCObjectStub13GetObjectTypeEv, ptr @_ZN4OHOS13IPCObjectStub21GetAndSaveDBinderDataEij], [8 x ptr] [ptr inttoptr (i32 -84 to ptr), ptr inttoptr (i32 -84 to ptr), ptr inttoptr (i32 8 to ptr), ptr inttoptr (i32 -84 to ptr), ptr null, ptr @_ZTv0_n16_N4OHOS13IPCObjectStubD1Ev, ptr @_ZTv0_n16_N4OHOS13IPCObjectStubD0Ev, ptr @_ZTv0_n20_NK4OHOS13IRemoteObject11MarshallingERNS_6ParcelE], [15 x ptr] [ptr null, ptr null, ptr inttoptr (i32 -92 to ptr), ptr inttoptr (i32 -92 to ptr), ptr null, ptr inttoptr (i32 -92 to ptr), ptr inttoptr (i32 -92 to ptr), ptr null, ptr @_ZTv0_n12_N4OHOS13IPCObjectStubD1Ev, ptr @_ZTv0_n12_N4OHOS13IPCObjectStubD0Ev, ptr @_ZN4OHOS7RefBase14RefPtrCallbackEv, ptr @_ZTv0_n20_N4OHOS13IPCObjectStub16OnFirstStrongRefEPKv, ptr @_ZTv0_n24_N4OHOS13IPCObjectStub15OnLastStrongRefEPKv, ptr @_ZN4OHOS7RefBase13OnLastWeakRefEPKv, ptr @_ZN4OHOS7RefBase17OnAttemptPromotedEPKv] }, align 4, !type !311, !type !64, !type !65, !type !66, !type !67, !type !68, !type !69, !type !70, !type !71, !type !72, !type !73, !type !74, !type !75, !type !76, !type !77, !type !78, !type !79, !type !80, !type !81, !type !312, !type !313, !type !314, !type !315, !type !316, !type !317, !type !125, !type !126, !type !127, !type !128, !type !129, !type !130, !type !131, !type !132, !type !133, !type !134, !type !135, !type !136, !type !137, !type !138, !type !139, !type !140, !type !141, !type !142, !type !143, !type !318, !type !319, !type !320, !type !321, !type !322, !type !323, !type !187, !type !188, !type !189, !type !190, !type !191, !type !192, !type !193, !type !194, !type !195, !type !196, !type !197, !type !198, !type !199, !type !200, !type !201, !type !202, !type !203, !type !204, !type !205, !type !324, !type !325, !type !326, !type !327, !type !328, !type !329, !type !330, !type !281, !type !282, !type !283, !type !284, !type !285, !type !286, !type !287, !type !288, !type !289, !type !290, !type !291, !type !292, !type !293, !type !294, !type !295, !type !296, !type !297, !type !298, !type !331, !type !332, !type !333, !type !334, !type !335, !type !336, !type !311, !type !64, !type !65, !type !66, !type !67, !type !68, !type !69, !type !70, !type !71, !type !72, !type !73, !type !74, !type !75, !type !76, !type !77, !type !78, !type !79, !type !80, !type !81, !type !312, !type !313, !type !314, !type !315, !type !316, !type !317, !type !125, !type !126, !type !127, !type !128, !type !129, !type !130, !type !131, !type !132, !type !133, !type !134, !type !135, !type !136, !type !137, !type !138, !type !139, !type !140, !type !141, !type !142, !type !143, !type !318, !type !319, !type !320, !type !321, !type !322, !type !323, !type !187, !type !188, !type !189, !type !190, !type !191, !type !192, !type !193, !type !194, !type !195, !type !196, !type !197, !type !198, !type !199, !type !200, !type !201, !type !202, !type !203, !type !204, !type !205, !type !324, !type !325, !type !326, !type !327, !type !328, !type !329, !type !330, !type !281, !type !282, !type !283, !type !284, !type !285, !type !286, !type !287, !type !288, !type !289, !type !290, !type !291, !type !292, !type !293, !type !294, !type !295, !type !296, !type !297, !type !298, !type !331, !type !332, !type !333, !type !334, !type !335, !type !336, !type !311, !type !64, !type !65, !type !66, !type !67, !type !68, !type !69, !type !70, !type !71, !type !72, !type !73, !type !74, !type !75, !type !76, !type !77, !type !78, !type !79, !type !80, !type !81, !type !312, !type !313, !type !314, !type !315, !type !316, !type !317, !type !125, !type !126, !type !127, !type !128, !type !129, !type !130, !type !131, !type !132, !type !133, !type !134, !type !135, !type !136, !type !137, !type !138, !type !139, !type !140, !type !141, !type !142, !type !143, !type !318, !type !319, !type !320, !type !321, !type !322, !type !323, !type !187, !type !188, !type !189, !type !190, !type !191, !type !192, !type !193, !type !194, !type !195, !type !196, !type !197, !type !198, !type !199, !type !200, !type !201, !type !202, !type !203, !type !204, !type !205, !type !324, !type !325, !type !326, !type !327, !type !328, !type !329, !type !330, !type !281, !type !282, !type !283, !type !284, !type !285, !type !286, !type !287, !type !288, !type !289, !type !290, !type !291, !type !292, !type !293, !type !294, !type !295, !type !296, !type !297, !type !298, !type !331, !type !332, !type !333, !type !334, !type !335, !type !336
@_ZTCN4OHOS5SDemo9SDemoStubE0_NS_13IRemoteObjectE = unnamed_addr constant { [17 x ptr], [8 x ptr], [15 x ptr] } { [17 x ptr] [ptr inttoptr (i32 92 to ptr), ptr inttoptr (i32 84 to ptr), ptr null, ptr null, ptr @__cxa_pure_virtual, ptr @__cxa_pure_virtual, ptr @_ZNK4OHOS13IRemoteObject13IsProxyObjectEv, ptr @_ZNK4OHOS13IRemoteObject12IsObjectDeadEv, ptr @_ZN4OHOS13IRemoteObject22GetInterfaceDescriptorEv, ptr @_ZNK4OHOS13IRemoteObject19CheckObjectLegalityEv, ptr @__cxa_pure_virtual, ptr @__cxa_pure_virtual, ptr @_ZNK4OHOS13IRemoteObject11MarshallingERNS_6ParcelE, ptr @_ZN4OHOS13IRemoteObject11AsInterfaceEv, ptr @__cxa_pure_virtual, ptr @_ZN4OHOS13IRemoteObjectD1Ev, ptr @_ZN4OHOS13IRemoteObjectD0Ev], [8 x ptr] [ptr inttoptr (i32 -84 to ptr), ptr inttoptr (i32 -84 to ptr), ptr inttoptr (i32 8 to ptr), ptr inttoptr (i32 -84 to ptr), ptr null, ptr @_ZTv0_n16_N4OHOS13IRemoteObjectD1Ev, ptr @_ZTv0_n16_N4OHOS13IRemoteObjectD0Ev, ptr @_ZTv0_n20_NK4OHOS13IRemoteObject11MarshallingERNS_6ParcelE], [15 x ptr] [ptr null, ptr null, ptr null, ptr null, ptr null, ptr inttoptr (i32 -92 to ptr), ptr inttoptr (i32 -92 to ptr), ptr null, ptr @_ZTv0_n12_N4OHOS13IRemoteObjectD1Ev, ptr @_ZTv0_n12_N4OHOS13IRemoteObjectD0Ev, ptr @_ZN4OHOS7RefBase14RefPtrCallbackEv, ptr @_ZN4OHOS7RefBase16OnFirstStrongRefEPKv, ptr @_ZN4OHOS7RefBase15OnLastStrongRefEPKv, ptr @_ZN4OHOS7RefBase13OnLastWeakRefEPKv, ptr @_ZN4OHOS7RefBase17OnAttemptPromotedEPKv] }, align 4, !type !337, !type !64, !type !65, !type !66, !type !67, !type !68, !type !69, !type !70, !type !71, !type !72, !type !73, !type !74, !type !338, !type !339, !type !340, !type !341, !type !342, !type !343, !type !187, !type !188, !type !189, !type !190, !type !191, !type !192, !type !193, !type !194, !type !195, !type !196, !type !197, !type !198, !type !344, !type !345, !type !346, !type !347, !type !348, !type !349, !type !350, !type !281, !type !282, !type !283, !type !284, !type !285, !type !286, !type !287, !type !288, !type !289, !type !290, !type !291, !type !351, !type !352, !type !353, !type !354, !type !355, !type !356, !type !337, !type !64, !type !65, !type !66, !type !67, !type !68, !type !69, !type !70, !type !71, !type !72, !type !73, !type !74, !type !338, !type !339, !type !340, !type !341, !type !342, !type !343, !type !187, !type !188, !type !189, !type !190, !type !191, !type !192, !type !193, !type !194, !type !195, !type !196, !type !197, !type !198, !type !344, !type !345, !type !346, !type !347, !type !348, !type !349, !type !350, !type !281, !type !282, !type !283, !type !284, !type !285, !type !286, !type !287, !type !288, !type !289, !type !290, !type !291, !type !351, !type !352, !type !353, !type !354, !type !355, !type !356, !type !337, !type !64, !type !65, !type !66, !type !67, !type !68, !type !69, !type !70, !type !71, !type !72, !type !73, !type !74, !type !338, !type !339, !type !340, !type !341, !type !342, !type !343, !type !187, !type !188, !type !189, !type !190, !type !191, !type !192, !type !193, !type !194, !type !195, !type !196, !type !197, !type !198, !type !344, !type !345, !type !346, !type !347, !type !348, !type !349, !type !350, !type !281, !type !282, !type !283, !type !284, !type !285, !type !286, !type !287, !type !288, !type !289, !type !290, !type !291, !type !351, !type !352, !type !353, !type !354, !type !355, !type !356
@_ZTCN4OHOS5SDemo9SDemoStubE60_NS0_13ISDemoServiceE = unnamed_addr constant { [10 x ptr], [15 x ptr] } { [10 x ptr] [ptr inttoptr (i32 32 to ptr), ptr null, ptr null, ptr @_ZN4OHOS5SDemo13ISDemoServiceD1Ev, ptr @_ZN4OHOS5SDemo13ISDemoServiceD0Ev, ptr @__cxa_pure_virtual, ptr @__cxa_pure_virtual, ptr @__cxa_pure_virtual, ptr @__cxa_pure_virtual, ptr @__cxa_pure_virtual], [15 x ptr] [ptr null, ptr null, ptr null, ptr null, ptr null, ptr inttoptr (i32 -32 to ptr), ptr inttoptr (i32 -32 to ptr), ptr null, ptr @_ZTv0_n12_N4OHOS5SDemo13ISDemoServiceD1Ev, ptr @_ZTv0_n12_N4OHOS5SDemo13ISDemoServiceD0Ev, ptr @_ZN4OHOS7RefBase14RefPtrCallbackEv, ptr @_ZN4OHOS7RefBase16OnFirstStrongRefEPKv, ptr @_ZN4OHOS7RefBase15OnLastStrongRefEPKv, ptr @_ZN4OHOS7RefBase13OnLastWeakRefEPKv, ptr @_ZN4OHOS7RefBase17OnAttemptPromotedEPKv] }, align 4, !type !357, !type !358, !type !359, !type !360, !type !361, !type !362, !type !363, !type !364, !type !365, !type !366, !type !367, !type !368, !type !369, !type !370, !type !371, !type !372, !type !373, !type !374, !type !375, !type !376, !type !377, !type !378, !type !379, !type !380, !type !381, !type !382, !type !383, !type !384, !type !385, !type !386, !type !387, !type !388, !type !389, !type !357, !type !358, !type !359, !type !360, !type !361, !type !362, !type !363, !type !364, !type !365, !type !366, !type !367, !type !368, !type !369, !type !370, !type !371, !type !372, !type !373, !type !374, !type !375, !type !376, !type !377, !type !378, !type !379, !type !380, !type !381, !type !382, !type !383, !type !384, !type !385, !type !386, !type !387, !type !388, !type !389, !type !357, !type !358, !type !359, !type !360, !type !361, !type !362, !type !363, !type !364, !type !365, !type !366, !type !367, !type !368, !type !369, !type !370, !type !371, !type !372, !type !373, !type !374, !type !375, !type !376, !type !377, !type !378, !type !379, !type !380, !type !381, !type !382, !type !383, !type !384, !type !385, !type !386, !type !387, !type !388, !type !389
@_ZTCN4OHOS5SDemo9SDemoStubE60_NS_13IRemoteBrokerE = unnamed_addr constant { [6 x ptr], [15 x ptr] } { [6 x ptr] [ptr inttoptr (i32 32 to ptr), ptr null, ptr null, ptr @_ZN4OHOS13IRemoteBrokerD1Ev, ptr @_ZN4OHOS13IRemoteBrokerD0Ev, ptr @__cxa_pure_virtual], [15 x ptr] [ptr null, ptr null, ptr null, ptr null, ptr null, ptr inttoptr (i32 -32 to ptr), ptr inttoptr (i32 -32 to ptr), ptr null, ptr @_ZTv0_n12_N4OHOS13IRemoteBrokerD1Ev, ptr @_ZTv0_n12_N4OHOS13IRemoteBrokerD0Ev, ptr @_ZN4OHOS7RefBase14RefPtrCallbackEv, ptr @_ZN4OHOS7RefBase16OnFirstStrongRefEPKv, ptr @_ZN4OHOS7RefBase15OnLastStrongRefEPKv, ptr @_ZN4OHOS7RefBase13OnLastWeakRefEPKv, ptr @_ZN4OHOS7RefBase17OnAttemptPromotedEPKv] }, align 4, !type !357, !type !358, !type !390, !type !391, !type !169, !type !170, !type !392, !type !393, !type !380, !type !394, !type !395, !type !293, !type !294, !type !396, !type !357, !type !358, !type !390, !type !391, !type !169, !type !170, !type !392, !type !393, !type !380, !type !394, !type !395, !type !293, !type !294, !type !396, !type !357, !type !358, !type !390, !type !391, !type !169, !type !170, !type !392, !type !393, !type !380, !type !394, !type !395, !type !293, !type !294, !type !396
@_ZTCN4OHOS5SDemo9SDemoStubE84_NS_10ParcelableE = unnamed_addr constant { [8 x ptr], [15 x ptr] } { [8 x ptr] [ptr null, ptr null, ptr inttoptr (i32 8 to ptr), ptr null, ptr null, ptr @_ZN4OHOS10ParcelableD1Ev, ptr @_ZN4OHOS10ParcelableD0Ev, ptr @__cxa_pure_virtual], [15 x ptr] [ptr null, ptr null, ptr null, ptr null, ptr null, ptr inttoptr (i32 -8 to ptr), ptr inttoptr (i32 -8 to ptr), ptr null, ptr @_ZTv0_n12_N4OHOS10ParcelableD1Ev, ptr @_ZTv0_n12_N4OHOS10ParcelableD0Ev, ptr @_ZN4OHOS7RefBase14RefPtrCallbackEv, ptr @_ZN4OHOS7RefBase16OnFirstStrongRefEPKv, ptr @_ZN4OHOS7RefBase15OnLastStrongRefEPKv, ptr @_ZN4OHOS7RefBase13OnLastWeakRefEPKv, ptr @_ZN4OHOS7RefBase17OnAttemptPromotedEPKv] }, align 4, !type !397, !type !398, !type !399, !type !77, !type !400, !type !401, !type !402, !type !403, !type !404, !type !405, !type !294, !type !406, !type !386, !type !407, !type !397, !type !398, !type !399, !type !77, !type !400, !type !401, !type !402, !type !403, !type !404, !type !405, !type !294, !type !406, !type !386, !type !407, !type !397, !type !398, !type !399, !type !77, !type !400, !type !401, !type !402, !type !403, !type !404, !type !405, !type !294, !type !406, !type !386, !type !407
@.str.4 = private unnamed_addr constant [25 x i16] [i16 79, i16 72, i16 79, i16 83, i16 46, i16 83, i16 68, i16 101, i16 109, i16 111, i16 46, i16 73, i16 83, i16 68, i16 101, i16 109, i16 111, i16 83, i16 101, i16 114, i16 118, i16 105, i16 99, i16 101, i16 0], align 2, !dbg !408
@_ZNSt3__hL19piecewise_constructE = internal constant %struct.anon.0 undef, align 1, !dbg !416
@llvm.global_ctors = appending global [1 x { i32, ptr, ptr }] [{ i32, ptr, ptr } { i32 65535, ptr @_GLOBAL__sub_I_sdemo_service.cpp, ptr null }]
@_ZN4OHOS5SDemoL27SDemoService_RegisterResultE = internal global i8 0, align 1, !dbg !428
@_ZTVN4OHOS5SDemo12SDemoServiceE = unnamed_addr constant { [22 x ptr], [25 x ptr], [10 x ptr], [8 x ptr], [15 x ptr] } { [22 x ptr] [ptr inttoptr (i32 196 to ptr), ptr inttoptr (i32 188 to ptr), ptr null, ptr null, ptr @_ZN4OHOS5SDemo12SDemoService12GetClassNameEv, ptr @_ZN4OHOS13SystemAbility6OnDumpEv, ptr @_ZN4OHOS5SDemo12SDemoService7OnStartEv, ptr @_ZN4OHOS13SystemAbility7OnStartERKNS_27SystemAbilityOnDemandReasonE, ptr @_ZN4OHOS13SystemAbility6OnIdleERKNS_27SystemAbilityOnDemandReasonE, ptr @_ZN4OHOS13SystemAbility8OnActiveERKNS_27SystemAbilityOnDemandReasonE, ptr @_ZN4OHOS5SDemo12SDemoService6OnStopEv, ptr @_ZN4OHOS13SystemAbility6OnStopERKNS_27SystemAbilityOnDemandReasonE, ptr @_ZN4OHOS13SystemAbility18OnAddSystemAbilityEiRKNSt3__h12basic_stringIcNS1_11char_traitsIcEENS1_9allocatorIcEEEE, ptr @_ZN4OHOS13SystemAbility21OnRemoveSystemAbilityEiRKNSt3__h12basic_stringIcNS1_11char_traitsIcEENS1_9allocatorIcEEEE, ptr @_ZN4OHOS5SDemo12SDemoServiceD1Ev, ptr @_ZN4OHOS5SDemo12SDemoServiceD0Ev, ptr @_ZN4OHOS13SystemAbility20OnDeviceLevelChangedEiiRNSt3__h12basic_stringIcNS1_11char_traitsIcEENS1_9allocatorIcEEEE, ptr @_ZN4OHOS13SystemAbility11OnExtensionERKNSt3__h12basic_stringIcNS1_11char_traitsIcEENS1_9allocatorIcEEEERNS_13MessageParcelESB_, ptr @_ZN4OHOS5SDemo12SDemoService20tureIllegalInforFlowEi, ptr @_ZN4OHOS5SDemo12SDemoService19mayIllegalInforFlowEi, ptr @_ZN4OHOS5SDemo12SDemoService21falseIllegalInforFlowEi, ptr @_ZN4OHOS5SDemo12SDemoService9helloWordEv], [25 x ptr] [ptr inttoptr (i32 92 to ptr), ptr inttoptr (i32 84 to ptr), ptr inttoptr (i32 -104 to ptr), ptr null, ptr @_ZN4OHOS13IPCObjectStub17GetObjectRefCountEv, ptr @_ZN4OHOS13IPCObjectStub11SendRequestEjRNS_13MessageParcelES2_RNS_13MessageOptionE, ptr @_ZNK4OHOS13IPCObjectStub13IsProxyObjectEv, ptr @_ZNK4OHOS13IRemoteObject12IsObjectDeadEv, ptr @_ZN4OHOS13IRemoteObject22GetInterfaceDescriptorEv, ptr @_ZNK4OHOS13IRemoteObject19CheckObjectLegalityEv, ptr @_ZN4OHOS13IPCObjectStub17AddDeathRecipientERKNS_4sptrINS_13IRemoteObject14DeathRecipientEEE, ptr @_ZN4OHOS13IPCObjectStub20RemoveDeathRecipientERKNS_4sptrINS_13IRemoteObject14DeathRecipientEEE, ptr @_ZNK4OHOS13IRemoteObject11MarshallingERNS_6ParcelE, ptr @_ZN4OHOS11IRemoteStubINS_5SDemo13ISDemoServiceEE11AsInterfaceEv, ptr @_ZN4OHOS13IPCObjectStub4DumpEiRKNSt3__h6vectorINS1_12basic_stringIDsNS1_11char_traitsIDsEENS1_9allocatorIDsEEEENS6_IS8_EEEE, ptr @_ZThn104_N4OHOS5SDemo12SDemoServiceD1Ev, ptr @_ZThn104_N4OHOS5SDemo12SDemoServiceD0Ev, ptr @_ZN4OHOS5SDemo9SDemoStub15OnRemoteRequestEjRNS_13MessageParcelES3_RNS_13MessageOptionE, ptr @_ZN4OHOS13IPCObjectStub16OnFirstStrongRefEPKv, ptr @_ZN4OHOS13IPCObjectStub15OnLastStrongRefEPKv, ptr @_ZN4OHOS13IPCObjectStub12OnRemoteDumpEjRNS_13MessageParcelES2_RNS_13MessageOptionE, ptr @_ZN4OHOS13IPCObjectStub12ProcessProtoEjRNS_13MessageParcelES2_RNS_13MessageOptionE, ptr @_ZNK4OHOS13IPCObjectStub13GetObjectTypeEv, ptr @_ZN4OHOS13IPCObjectStub21GetAndSaveDBinderDataEij, ptr @_ZN4OHOS11IRemoteStubINS_5SDemo13ISDemoServiceEE8AsObjectEv], [10 x ptr] [ptr inttoptr (i32 32 to ptr), ptr inttoptr (i32 -164 to ptr), ptr null, ptr @_ZThn164_N4OHOS5SDemo12SDemoServiceD1Ev, ptr @_ZThn164_N4OHOS5SDemo12SDemoServiceD0Ev, ptr @_ZThn60_N4OHOS11IRemoteStubINS_5SDemo13ISDemoServiceEE8AsObjectEv, ptr @_ZThn164_N4OHOS5SDemo12SDemoService20tureIllegalInforFlowEi, ptr @_ZThn164_N4OHOS5SDemo12SDemoService19mayIllegalInforFlowEi, ptr @_ZThn164_N4OHOS5SDemo12SDemoService21falseIllegalInforFlowEi, ptr @_ZThn164_N4OHOS5SDemo12SDemoService9helloWordEv], [8 x ptr] [ptr inttoptr (i32 -84 to ptr), ptr inttoptr (i32 -188 to ptr), ptr inttoptr (i32 8 to ptr), ptr inttoptr (i32 -188 to ptr), ptr null, ptr @_ZTv0_n16_N4OHOS5SDemo12SDemoServiceD1Ev, ptr @_ZTv0_n16_N4OHOS5SDemo12SDemoServiceD0Ev, ptr @_ZTv0_n20_NK4OHOS13IRemoteObject11MarshallingERNS_6ParcelE], [15 x ptr] [ptr null, ptr null, ptr inttoptr (i32 -92 to ptr), ptr inttoptr (i32 -92 to ptr), ptr null, ptr inttoptr (i32 -196 to ptr), ptr inttoptr (i32 -196 to ptr), ptr null, ptr @_ZTv0_n12_N4OHOS5SDemo12SDemoServiceD1Ev, ptr @_ZTv0_n12_N4OHOS5SDemo12SDemoServiceD0Ev, ptr @_ZN4OHOS7RefBase14RefPtrCallbackEv, ptr @_ZTv0_n20_N4OHOS13IPCObjectStub16OnFirstStrongRefEPKv, ptr @_ZTv0_n24_N4OHOS13IPCObjectStub15OnLastStrongRefEPKv, ptr @_ZN4OHOS7RefBase13OnLastWeakRefEPKv, ptr @_ZN4OHOS7RefBase17OnAttemptPromotedEPKv] }, align 4, !type !435, !type !436, !type !437, !type !438, !type !439, !type !440, !type !441, !type !442, !type !443, !type !444, !type !445, !type !446, !type !447, !type !448, !type !449, !type !450, !type !451, !type !452, !type !453, !type !454, !type !455, !type !456, !type !457, !type !458, !type !459, !type !460, !type !461, !type !462, !type !463, !type !464, !type !465, !type !466, !type !467, !type !468, !type !469, !type !470, !type !471, !type !472, !type !473, !type !474, !type !475, !type !476, !type !477, !type !478, !type !479, !type !480, !type !481, !type !482, !type !483, !type !484, !type !485, !type !486, !type !487, !type !488, !type !489, !type !490, !type !491, !type !492, !type !493, !type !494, !type !495, !type !496, !type !497, !type !498, !type !499, !type !500, !type !501, !type !502, !type !503, !type !504, !type !505, !type !506, !type !507, !type !508, !type !509, !type !510, !type !511, !type !512, !type !513, !type !514, !type !515, !type !516, !type !517, !type !518, !type !519, !type !520, !type !521, !type !522, !type !523, !type !524, !type !525, !type !526, !type !527, !type !528, !type !529, !type !530, !type !531, !type !532, !type !533, !type !534, !type !535, !type !536, !type !537, !type !538, !type !539, !type !540, !type !541, !type !542, !type !543, !type !544, !type !545, !type !546, !type !547, !type !548, !type !549, !type !550, !type !551, !type !552, !type !553, !type !554, !type !555, !type !556, !type !557, !type !558, !type !559, !type !560, !type !561, !type !562, !type !563, !type !564, !type !565, !type !566, !type !567, !type !568, !type !569, !type !570, !type !571, !type !572, !type !573, !type !574, !type !575, !type !576, !type !577, !type !578, !type !579, !type !580, !type !581, !type !582, !type !583, !type !584, !type !585, !type !586, !type !587, !type !588, !type !589, !type !590, !type !591, !type !592, !type !593, !type !594, !type !595, !type !596, !type !597, !type !598, !type !599, !type !600, !type !601, !type !602, !type !603, !type !604, !type !605, !type !606, !type !607, !type !608, !type !609, !type !610, !type !611, !type !612, !type !613, !type !614, !type !615, !type !616, !type !617, !type !618, !type !619, !type !620, !type !621, !type !622, !type !623, !type !624, !type !625, !type !626, !type !627, !type !628, !type !629, !type !630, !type !631, !type !632, !type !633, !type !634, !type !635, !type !636, !type !637, !type !638, !type !639, !type !640, !type !641, !type !642, !type !643, !type !644, !type !645, !type !646, !type !647, !type !648, !type !649, !type !650, !type !651, !type !652, !type !653, !type !654, !type !655, !type !656, !type !657, !type !658, !type !659, !type !660, !type !661, !type !662, !type !663, !type !664, !type !665, !type !666, !type !667, !type !668, !type !669, !type !670, !type !671, !type !672, !type !673, !type !674, !type !675, !type !676, !type !677, !type !678, !type !679, !type !680, !type !681, !type !682, !type !683, !type !684, !type !685, !type !686, !type !687, !type !688, !type !689, !type !690, !type !691, !type !692, !type !693, !type !694, !type !695, !type !696, !type !697, !type !698, !type !699, !type !700, !type !701, !type !702, !type !703, !type !704, !type !705, !type !706, !type !707, !type !708, !type !709, !type !710, !type !711, !type !712, !type !713, !type !714, !type !715, !type !716, !type !717, !type !718, !type !719, !type !720, !type !721, !type !722, !type !723, !type !724, !type !725, !type !726, !type !727, !type !728, !type !729, !type !730, !type !731, !type !732, !type !733, !type !734, !type !735, !type !736, !type !737, !type !738, !type !739, !type !740, !type !741, !type !742, !type !743, !type !744, !type !745, !type !746, !type !747, !type !748, !type !749, !type !750, !type !751, !type !752, !type !753, !type !754, !type !755, !type !756, !type !757, !type !758, !type !759, !type !760, !type !761, !type !762, !type !763, !type !764, !type !765, !type !766, !type !767, !type !768, !type !769, !type !770, !type !771, !type !772, !type !773, !type !774, !type !775, !type !776, !type !777, !type !778, !type !779, !type !780, !type !781, !type !782, !type !783, !type !784, !type !785, !type !786, !type !787, !type !788, !type !789, !type !790, !type !791, !type !792, !type !793, !type !794, !type !795, !type !796, !type !797, !type !798, !type !799, !type !800, !type !801, !type !802, !type !803, !type !804, !type !805, !type !806, !type !807, !type !808, !type !809, !type !810, !type !811, !type !812, !type !813, !type !814, !type !815, !type !816, !type !817, !type !818, !type !819, !type !820, !type !821, !type !822, !type !823, !type !824, !type !825, !type !826, !type !827, !type !828, !type !829, !type !830, !type !831, !type !832, !type !833, !type !834, !type !835, !type !836, !type !837, !type !838, !type !839, !type !840, !type !841, !type !842, !type !843, !type !844, !type !845, !type !846, !type !847, !type !848, !type !849, !type !850, !type !851, !type !852, !type !853, !type !854, !type !855, !type !856, !type !857, !type !858, !type !859, !type !860, !type !861, !type !862, !type !863, !type !864, !type !865, !type !866, !type !867, !type !868, !type !869, !type !870, !type !871, !type !872, !type !873, !type !874, !type !875, !type !876, !type !877, !type !878, !type !879, !type !880, !type !881, !type !882, !type !883, !type !884, !type !885, !type !886, !type !887, !type !888, !type !889, !type !890, !type !891, !type !892, !type !893, !type !894, !type !895, !type !896, !type !897, !type !898, !type !899, !type !900, !type !901, !type !902, !type !903, !type !904
@_ZTTN4OHOS5SDemo12SDemoServiceE = unnamed_addr constant [25 x ptr] [ptr getelementptr inbounds ({ [22 x ptr], [25 x ptr], [10 x ptr], [8 x ptr], [15 x ptr] }, ptr @_ZTVN4OHOS5SDemo12SDemoServiceE, i32 0, inrange i32 0, i32 4), ptr getelementptr inbounds ({ [25 x ptr], [10 x ptr], [8 x ptr], [15 x ptr] }, ptr @_ZTCN4OHOS5SDemo12SDemoServiceE104_NS0_9SDemoStubE, i32 0, inrange i32 0, i32 4), ptr getelementptr inbounds ({ [25 x ptr], [10 x ptr], [8 x ptr], [15 x ptr] }, ptr @_ZTCN4OHOS5SDemo12SDemoServiceE104_NS_11IRemoteStubINS0_13ISDemoServiceEEE, i32 0, inrange i32 0, i32 4), ptr getelementptr inbounds ({ [24 x ptr], [8 x ptr], [15 x ptr] }, ptr @_ZTCN4OHOS5SDemo12SDemoServiceE104_NS_13IPCObjectStubE, i32 0, inrange i32 0, i32 4), ptr getelementptr inbounds ({ [17 x ptr], [8 x ptr], [15 x ptr] }, ptr @_ZTCN4OHOS5SDemo12SDemoServiceE104_NS_13IRemoteObjectE, i32 0, inrange i32 0, i32 4), ptr getelementptr inbounds ({ [17 x ptr], [8 x ptr], [15 x ptr] }, ptr @_ZTCN4OHOS5SDemo12SDemoServiceE104_NS_13IRemoteObjectE, i32 0, inrange i32 1, i32 5), ptr getelementptr inbounds ({ [17 x ptr], [8 x ptr], [15 x ptr] }, ptr @_ZTCN4OHOS5SDemo12SDemoServiceE104_NS_13IRemoteObjectE, i32 0, inrange i32 2, i32 8), ptr getelementptr inbounds ({ [24 x ptr], [8 x ptr], [15 x ptr] }, ptr @_ZTCN4OHOS5SDemo12SDemoServiceE104_NS_13IPCObjectStubE, i32 0, inrange i32 1, i32 5), ptr getelementptr inbounds ({ [24 x ptr], [8 x ptr], [15 x ptr] }, ptr @_ZTCN4OHOS5SDemo12SDemoServiceE104_NS_13IPCObjectStubE, i32 0, inrange i32 2, i32 8), ptr getelementptr inbounds ({ [10 x ptr], [15 x ptr] }, ptr @_ZTCN4OHOS5SDemo12SDemoServiceE164_NS0_13ISDemoServiceE, i32 0, inrange i32 0, i32 3), ptr getelementptr inbounds ({ [6 x ptr], [15 x ptr] }, ptr @_ZTCN4OHOS5SDemo12SDemoServiceE164_NS_13IRemoteBrokerE, i32 0, inrange i32 0, i32 3), ptr getelementptr inbounds ({ [6 x ptr], [15 x ptr] }, ptr @_ZTCN4OHOS5SDemo12SDemoServiceE164_NS_13IRemoteBrokerE, i32 0, inrange i32 1, i32 8), ptr getelementptr inbounds ({ [10 x ptr], [15 x ptr] }, ptr @_ZTCN4OHOS5SDemo12SDemoServiceE164_NS0_13ISDemoServiceE, i32 0, inrange i32 1, i32 8), ptr getelementptr inbounds ({ [25 x ptr], [10 x ptr], [8 x ptr], [15 x ptr] }, ptr @_ZTCN4OHOS5SDemo12SDemoServiceE104_NS_11IRemoteStubINS0_13ISDemoServiceEEE, i32 0, inrange i32 2, i32 5), ptr getelementptr inbounds ({ [25 x ptr], [10 x ptr], [8 x ptr], [15 x ptr] }, ptr @_ZTCN4OHOS5SDemo12SDemoServiceE104_NS_11IRemoteStubINS0_13ISDemoServiceEEE, i32 0, inrange i32 3, i32 8), ptr getelementptr inbounds ({ [25 x ptr], [10 x ptr], [8 x ptr], [15 x ptr] }, ptr @_ZTCN4OHOS5SDemo12SDemoServiceE104_NS_11IRemoteStubINS0_13ISDemoServiceEEE, i32 0, inrange i32 1, i32 3), ptr getelementptr inbounds ({ [25 x ptr], [10 x ptr], [8 x ptr], [15 x ptr] }, ptr @_ZTCN4OHOS5SDemo12SDemoServiceE104_NS0_9SDemoStubE, i32 0, inrange i32 2, i32 5), ptr getelementptr inbounds ({ [25 x ptr], [10 x ptr], [8 x ptr], [15 x ptr] }, ptr @_ZTCN4OHOS5SDemo12SDemoServiceE104_NS0_9SDemoStubE, i32 0, inrange i32 3, i32 8), ptr getelementptr inbounds ({ [25 x ptr], [10 x ptr], [8 x ptr], [15 x ptr] }, ptr @_ZTCN4OHOS5SDemo12SDemoServiceE104_NS0_9SDemoStubE, i32 0, inrange i32 1, i32 3), ptr getelementptr inbounds ({ [22 x ptr], [25 x ptr], [10 x ptr], [8 x ptr], [15 x ptr] }, ptr @_ZTVN4OHOS5SDemo12SDemoServiceE, i32 0, inrange i32 1, i32 4), ptr getelementptr inbounds ({ [22 x ptr], [25 x ptr], [10 x ptr], [8 x ptr], [15 x ptr] }, ptr @_ZTVN4OHOS5SDemo12SDemoServiceE, i32 0, inrange i32 3, i32 5), ptr getelementptr inbounds ({ [22 x ptr], [25 x ptr], [10 x ptr], [8 x ptr], [15 x ptr] }, ptr @_ZTVN4OHOS5SDemo12SDemoServiceE, i32 0, inrange i32 4, i32 8), ptr getelementptr inbounds ({ [22 x ptr], [25 x ptr], [10 x ptr], [8 x ptr], [15 x ptr] }, ptr @_ZTVN4OHOS5SDemo12SDemoServiceE, i32 0, inrange i32 2, i32 3), ptr getelementptr inbounds ({ [8 x ptr], [15 x ptr] }, ptr @_ZTCN4OHOS5SDemo12SDemoServiceE188_NS_10ParcelableE, i32 0, inrange i32 0, i32 5), ptr getelementptr inbounds ({ [8 x ptr], [15 x ptr] }, ptr @_ZTCN4OHOS5SDemo12SDemoServiceE188_NS_10ParcelableE, i32 0, inrange i32 1, i32 8)], align 4
@_ZTCN4OHOS5SDemo12SDemoServiceE104_NS0_9SDemoStubE = unnamed_addr constant { [25 x ptr], [10 x ptr], [8 x ptr], [15 x ptr] } { [25 x ptr] [ptr inttoptr (i32 92 to ptr), ptr inttoptr (i32 84 to ptr), ptr null, ptr null, ptr @_ZN4OHOS13IPCObjectStub17GetObjectRefCountEv, ptr @_ZN4OHOS13IPCObjectStub11SendRequestEjRNS_13MessageParcelES2_RNS_13MessageOptionE, ptr @_ZNK4OHOS13IPCObjectStub13IsProxyObjectEv, ptr @_ZNK4OHOS13IRemoteObject12IsObjectDeadEv, ptr @_ZN4OHOS13IRemoteObject22GetInterfaceDescriptorEv, ptr @_ZNK4OHOS13IRemoteObject19CheckObjectLegalityEv, ptr @_ZN4OHOS13IPCObjectStub17AddDeathRecipientERKNS_4sptrINS_13IRemoteObject14DeathRecipientEEE, ptr @_ZN4OHOS13IPCObjectStub20RemoveDeathRecipientERKNS_4sptrINS_13IRemoteObject14DeathRecipientEEE, ptr @_ZNK4OHOS13IRemoteObject11MarshallingERNS_6ParcelE, ptr @_ZN4OHOS11IRemoteStubINS_5SDemo13ISDemoServiceEE11AsInterfaceEv, ptr @_ZN4OHOS13IPCObjectStub4DumpEiRKNSt3__h6vectorINS1_12basic_stringIDsNS1_11char_traitsIDsEENS1_9allocatorIDsEEEENS6_IS8_EEEE, ptr @_ZN4OHOS5SDemo9SDemoStubD1Ev, ptr @_ZN4OHOS5SDemo9SDemoStubD0Ev, ptr @_ZN4OHOS5SDemo9SDemoStub15OnRemoteRequestEjRNS_13MessageParcelES3_RNS_13MessageOptionE, ptr @_ZN4OHOS13IPCObjectStub16OnFirstStrongRefEPKv, ptr @_ZN4OHOS13IPCObjectStub15OnLastStrongRefEPKv, ptr @_ZN4OHOS13IPCObjectStub12OnRemoteDumpEjRNS_13MessageParcelES2_RNS_13MessageOptionE, ptr @_ZN4OHOS13IPCObjectStub12ProcessProtoEjRNS_13MessageParcelES2_RNS_13MessageOptionE, ptr @_ZNK4OHOS13IPCObjectStub13GetObjectTypeEv, ptr @_ZN4OHOS13IPCObjectStub21GetAndSaveDBinderDataEij, ptr @_ZN4OHOS11IRemoteStubINS_5SDemo13ISDemoServiceEE8AsObjectEv], [10 x ptr] [ptr inttoptr (i32 32 to ptr), ptr inttoptr (i32 -60 to ptr), ptr null, ptr @_ZThn60_N4OHOS5SDemo9SDemoStubD1Ev, ptr @_ZThn60_N4OHOS5SDemo9SDemoStubD0Ev, ptr @_ZThn60_N4OHOS11IRemoteStubINS_5SDemo13ISDemoServiceEE8AsObjectEv, ptr @__cxa_pure_virtual, ptr @__cxa_pure_virtual, ptr @__cxa_pure_virtual, ptr @__cxa_pure_virtual], [8 x ptr] [ptr inttoptr (i32 -84 to ptr), ptr inttoptr (i32 -84 to ptr), ptr inttoptr (i32 8 to ptr), ptr inttoptr (i32 -84 to ptr), ptr null, ptr @_ZTv0_n16_N4OHOS5SDemo9SDemoStubD1Ev, ptr @_ZTv0_n16_N4OHOS5SDemo9SDemoStubD0Ev, ptr @_ZTv0_n20_NK4OHOS13IRemoteObject11MarshallingERNS_6ParcelE], [15 x ptr] [ptr null, ptr null, ptr inttoptr (i32 -92 to ptr), ptr inttoptr (i32 -92 to ptr), ptr null, ptr inttoptr (i32 -92 to ptr), ptr inttoptr (i32 -92 to ptr), ptr null, ptr @_ZTv0_n12_N4OHOS5SDemo9SDemoStubD1Ev, ptr @_ZTv0_n12_N4OHOS5SDemo9SDemoStubD0Ev, ptr @_ZN4OHOS7RefBase14RefPtrCallbackEv, ptr @_ZTv0_n20_N4OHOS13IPCObjectStub16OnFirstStrongRefEPKv, ptr @_ZTv0_n24_N4OHOS13IPCObjectStub15OnLastStrongRefEPKv, ptr @_ZN4OHOS7RefBase13OnLastWeakRefEPKv, ptr @_ZN4OHOS7RefBase17OnAttemptPromotedEPKv] }, align 4, !type !63, !type !64, !type !65, !type !66, !type !67, !type !68, !type !69, !type !70, !type !71, !type !72, !type !73, !type !74, !type !75, !type !76, !type !77, !type !78, !type !79, !type !80, !type !81, !type !82, !type !83, !type !84, !type !85, !type !86, !type !87, !type !88, !type !89, !type !90, !type !91, !type !92, !type !93, !type !94, !type !95, !type !96, !type !97, !type !98, !type !99, !type !100, !type !101, !type !102, !type !103, !type !104, !type !105, !type !106, !type !107, !type !108, !type !109, !type !110, !type !111, !type !112, !type !113, !type !114, !type !115, !type !116, !type !117, !type !118, !type !119, !type !120, !type !121, !type !122, !type !123, !type !124, !type !125, !type !126, !type !127, !type !128, !type !129, !type !130, !type !131, !type !132, !type !133, !type !134, !type !135, !type !136, !type !137, !type !138, !type !139, !type !140, !type !141, !type !142, !type !143, !type !144, !type !145, !type !146, !type !147, !type !148, !type !149, !type !150, !type !151, !type !152, !type !153, !type !154, !type !155, !type !156, !type !157, !type !158, !type !159, !type !160, !type !161, !type !162, !type !163, !type !164, !type !165, !type !166, !type !167, !type !168, !type !169, !type !170, !type !171, !type !172, !type !173, !type !174, !type !175, !type !176, !type !177, !type !178, !type !179, !type !180, !type !181, !type !182, !type !183, !type !184, !type !185, !type !186, !type !187, !type !188, !type !189, !type !190, !type !191, !type !192, !type !193, !type !194, !type !195, !type !196, !type !197, !type !198, !type !199, !type !200, !type !201, !type !202, !type !203, !type !204, !type !205, !type !206, !type !207, !type !208, !type !209, !type !210, !type !211, !type !212, !type !213, !type !214, !type !215, !type !216, !type !217, !type !218, !type !219, !type !220, !type !221, !type !222, !type !223, !type !224, !type !225, !type !226, !type !227, !type !228, !type !229, !type !230, !type !231, !type !232, !type !233, !type !234, !type !235, !type !236, !type !237, !type !238, !type !239, !type !240, !type !241, !type !242, !type !243, !type !244, !type !245, !type !246, !type !247, !type !248, !type !249, !type !250, !type !251, !type !252, !type !253, !type !254, !type !255, !type !256, !type !257, !type !258, !type !259, !type !260, !type !261, !type !262, !type !263, !type !264, !type !265, !type !266, !type !267, !type !268, !type !269, !type !270, !type !271, !type !272, !type !273, !type !274, !type !275, !type !276, !type !277, !type !278, !type !279, !type !280, !type !281, !type !282, !type !283, !type !284, !type !285, !type !286, !type !287, !type !288, !type !289, !type !290, !type !291, !type !292, !type !293, !type !294, !type !295, !type !296, !type !297, !type !298, !type !299, !type !300, !type !301, !type !302, !type !303, !type !304, !type !305, !type !306, !type !307, !type !308, !type !309, !type !310, !type !63, !type !64, !type !65, !type !66, !type !67, !type !68, !type !69, !type !70, !type !71, !type !72, !type !73, !type !74, !type !75, !type !76, !type !77, !type !78, !type !79, !type !80, !type !81, !type !82, !type !83, !type !84, !type !85, !type !86, !type !87, !type !88, !type !89, !type !90, !type !91, !type !92, !type !93, !type !94, !type !95, !type !96, !type !97, !type !98, !type !99, !type !100, !type !101, !type !102, !type !103, !type !104, !type !105, !type !106, !type !107, !type !108, !type !109, !type !110, !type !111, !type !112, !type !113, !type !114, !type !115, !type !116, !type !117, !type !118, !type !119, !type !120, !type !121, !type !122, !type !123, !type !124, !type !125, !type !126, !type !127, !type !128, !type !129, !type !130, !type !131, !type !132, !type !133, !type !134, !type !135, !type !136, !type !137, !type !138, !type !139, !type !140, !type !141, !type !142, !type !143, !type !144, !type !145, !type !146, !type !147, !type !148, !type !149, !type !150, !type !151, !type !152, !type !153, !type !154, !type !155, !type !156, !type !157, !type !158, !type !159, !type !160, !type !161, !type !162, !type !163, !type !164, !type !165, !type !166, !type !167, !type !168, !type !169, !type !170, !type !171, !type !172, !type !173, !type !174, !type !175, !type !176, !type !177, !type !178, !type !179, !type !180, !type !181, !type !182, !type !183, !type !184, !type !185, !type !186, !type !187, !type !188, !type !189, !type !190, !type !191, !type !192, !type !193, !type !194, !type !195, !type !196, !type !197, !type !198, !type !199, !type !200, !type !201, !type !202, !type !203, !type !204, !type !205, !type !206, !type !207, !type !208, !type !209, !type !210, !type !211, !type !212, !type !213, !type !214, !type !215, !type !216, !type !217, !type !218, !type !219, !type !220, !type !221, !type !222, !type !223, !type !224, !type !225, !type !226, !type !227, !type !228, !type !229, !type !230, !type !231, !type !232, !type !233, !type !234, !type !235, !type !236, !type !237, !type !238, !type !239, !type !240, !type !241, !type !242, !type !243, !type !244, !type !245, !type !246, !type !247, !type !248, !type !249, !type !250, !type !251, !type !252, !type !253, !type !254, !type !255, !type !256, !type !257, !type !258, !type !259, !type !260, !type !261, !type !262, !type !263, !type !264, !type !265, !type !266, !type !267, !type !268, !type !269, !type !270, !type !271, !type !272, !type !273, !type !274, !type !275, !type !276, !type !277, !type !278, !type !279, !type !280, !type !281, !type !282, !type !283, !type !284, !type !285, !type !286, !type !287, !type !288, !type !289, !type !290, !type !291, !type !292, !type !293, !type !294, !type !295, !type !296, !type !297, !type !298, !type !299, !type !300, !type !301, !type !302, !type !303, !type !304, !type !305, !type !306, !type !307, !type !308, !type !309, !type !310, !type !63, !type !64, !type !65, !type !66, !type !67, !type !68, !type !69, !type !70, !type !71, !type !72, !type !73, !type !74, !type !75, !type !76, !type !77, !type !78, !type !79, !type !80, !type !81, !type !82, !type !83, !type !84, !type !85, !type !86, !type !87, !type !88, !type !89, !type !90, !type !91, !type !92, !type !93, !type !94, !type !95, !type !96, !type !97, !type !98, !type !99, !type !100, !type !101, !type !102, !type !103, !type !104, !type !105, !type !106, !type !107, !type !108, !type !109, !type !110, !type !111, !type !112, !type !113, !type !114, !type !115, !type !116, !type !117, !type !118, !type !119, !type !120, !type !121, !type !122, !type !123, !type !124, !type !125, !type !126, !type !127, !type !128, !type !129, !type !130, !type !131, !type !132, !type !133, !type !134, !type !135, !type !136, !type !137, !type !138, !type !139, !type !140, !type !141, !type !142, !type !143, !type !144, !type !145, !type !146, !type !147, !type !148, !type !149, !type !150, !type !151, !type !152, !type !153, !type !154, !type !155, !type !156, !type !157, !type !158, !type !159, !type !160, !type !161, !type !162, !type !163, !type !164, !type !165, !type !166, !type !167, !type !168, !type !169, !type !170, !type !171, !type !172, !type !173, !type !174, !type !175, !type !176, !type !177, !type !178, !type !179, !type !180, !type !181, !type !182, !type !183, !type !184, !type !185, !type !186, !type !187, !type !188, !type !189, !type !190, !type !191, !type !192, !type !193, !type !194, !type !195, !type !196, !type !197, !type !198, !type !199, !type !200, !type !201, !type !202, !type !203, !type !204, !type !205, !type !206, !type !207, !type !208, !type !209, !type !210, !type !211, !type !212, !type !213, !type !214, !type !215, !type !216, !type !217, !type !218, !type !219, !type !220, !type !221, !type !222, !type !223, !type !224, !type !225, !type !226, !type !227, !type !228, !type !229, !type !230, !type !231, !type !232, !type !233, !type !234, !type !235, !type !236, !type !237, !type !238, !type !239, !type !240, !type !241, !type !242, !type !243, !type !244, !type !245, !type !246, !type !247, !type !248, !type !249, !type !250, !type !251, !type !252, !type !253, !type !254, !type !255, !type !256, !type !257, !type !258, !type !259, !type !260, !type !261, !type !262, !type !263, !type !264, !type !265, !type !266, !type !267, !type !268, !type !269, !type !270, !type !271, !type !272, !type !273, !type !274, !type !275, !type !276, !type !277, !type !278, !type !279, !type !280, !type !281, !type !282, !type !283, !type !284, !type !285, !type !286, !type !287, !type !288, !type !289, !type !290, !type !291, !type !292, !type !293, !type !294, !type !295, !type !296, !type !297, !type !298, !type !299, !type !300, !type !301, !type !302, !type !303, !type !304, !type !305, !type !306, !type !307, !type !308, !type !309, !type !310
@_ZTCN4OHOS5SDemo12SDemoServiceE104_NS_11IRemoteStubINS0_13ISDemoServiceEEE = unnamed_addr constant { [25 x ptr], [10 x ptr], [8 x ptr], [15 x ptr] } { [25 x ptr] [ptr inttoptr (i32 92 to ptr), ptr inttoptr (i32 84 to ptr), ptr null, ptr null, ptr @_ZN4OHOS13IPCObjectStub17GetObjectRefCountEv, ptr @_ZN4OHOS13IPCObjectStub11SendRequestEjRNS_13MessageParcelES2_RNS_13MessageOptionE, ptr @_ZNK4OHOS13IPCObjectStub13IsProxyObjectEv, ptr @_ZNK4OHOS13IRemoteObject12IsObjectDeadEv, ptr @_ZN4OHOS13IRemoteObject22GetInterfaceDescriptorEv, ptr @_ZNK4OHOS13IRemoteObject19CheckObjectLegalityEv, ptr @_ZN4OHOS13IPCObjectStub17AddDeathRecipientERKNS_4sptrINS_13IRemoteObject14DeathRecipientEEE, ptr @_ZN4OHOS13IPCObjectStub20RemoveDeathRecipientERKNS_4sptrINS_13IRemoteObject14DeathRecipientEEE, ptr @_ZNK4OHOS13IRemoteObject11MarshallingERNS_6ParcelE, ptr @_ZN4OHOS11IRemoteStubINS_5SDemo13ISDemoServiceEE11AsInterfaceEv, ptr @_ZN4OHOS13IPCObjectStub4DumpEiRKNSt3__h6vectorINS1_12basic_stringIDsNS1_11char_traitsIDsEENS1_9allocatorIDsEEEENS6_IS8_EEEE, ptr @_ZN4OHOS11IRemoteStubINS_5SDemo13ISDemoServiceEED1Ev, ptr @_ZN4OHOS11IRemoteStubINS_5SDemo13ISDemoServiceEED0Ev, ptr @_ZN4OHOS13IPCObjectStub15OnRemoteRequestEjRNS_13MessageParcelES2_RNS_13MessageOptionE, ptr @_ZN4OHOS13IPCObjectStub16OnFirstStrongRefEPKv, ptr @_ZN4OHOS13IPCObjectStub15OnLastStrongRefEPKv, ptr @_ZN4OHOS13IPCObjectStub12OnRemoteDumpEjRNS_13MessageParcelES2_RNS_13MessageOptionE, ptr @_ZN4OHOS13IPCObjectStub12ProcessProtoEjRNS_13MessageParcelES2_RNS_13MessageOptionE, ptr @_ZNK4OHOS13IPCObjectStub13GetObjectTypeEv, ptr @_ZN4OHOS13IPCObjectStub21GetAndSaveDBinderDataEij, ptr @_ZN4OHOS11IRemoteStubINS_5SDemo13ISDemoServiceEE8AsObjectEv], [10 x ptr] [ptr inttoptr (i32 32 to ptr), ptr inttoptr (i32 -60 to ptr), ptr null, ptr @_ZThn60_N4OHOS11IRemoteStubINS_5SDemo13ISDemoServiceEED1Ev, ptr @_ZThn60_N4OHOS11IRemoteStubINS_5SDemo13ISDemoServiceEED0Ev, ptr @_ZThn60_N4OHOS11IRemoteStubINS_5SDemo13ISDemoServiceEE8AsObjectEv, ptr @__cxa_pure_virtual, ptr @__cxa_pure_virtual, ptr @__cxa_pure_virtual, ptr @__cxa_pure_virtual], [8 x ptr] [ptr inttoptr (i32 -84 to ptr), ptr inttoptr (i32 -84 to ptr), ptr inttoptr (i32 8 to ptr), ptr inttoptr (i32 -84 to ptr), ptr null, ptr @_ZTv0_n16_N4OHOS11IRemoteStubINS_5SDemo13ISDemoServiceEED1Ev, ptr @_ZTv0_n16_N4OHOS11IRemoteStubINS_5SDemo13ISDemoServiceEED0Ev, ptr @_ZTv0_n20_NK4OHOS13IRemoteObject11MarshallingERNS_6ParcelE], [15 x ptr] [ptr null, ptr null, ptr inttoptr (i32 -92 to ptr), ptr inttoptr (i32 -92 to ptr), ptr null, ptr inttoptr (i32 -92 to ptr), ptr inttoptr (i32 -92 to ptr), ptr null, ptr @_ZTv0_n12_N4OHOS11IRemoteStubINS_5SDemo13ISDemoServiceEED1Ev, ptr @_ZTv0_n12_N4OHOS11IRemoteStubINS_5SDemo13ISDemoServiceEED0Ev, ptr @_ZN4OHOS7RefBase14RefPtrCallbackEv, ptr @_ZTv0_n20_N4OHOS13IPCObjectStub16OnFirstStrongRefEPKv, ptr @_ZTv0_n24_N4OHOS13IPCObjectStub15OnLastStrongRefEPKv, ptr @_ZN4OHOS7RefBase13OnLastWeakRefEPKv, ptr @_ZN4OHOS7RefBase17OnAttemptPromotedEPKv] }, align 4, !type !63, !type !64, !type !65, !type !66, !type !67, !type !68, !type !69, !type !70, !type !71, !type !72, !type !73, !type !74, !type !75, !type !76, !type !77, !type !78, !type !79, !type !80, !type !81, !type !82, !type !83, !type !84, !type !85, !type !86, !type !87, !type !88, !type !89, !type !90, !type !91, !type !92, !type !93, !type !94, !type !95, !type !96, !type !97, !type !98, !type !99, !type !100, !type !101, !type !102, !type !103, !type !104, !type !105, !type !106, !type !107, !type !108, !type !109, !type !110, !type !111, !type !112, !type !113, !type !114, !type !115, !type !116, !type !117, !type !118, !type !119, !type !120, !type !121, !type !122, !type !123, !type !124, !type !125, !type !126, !type !127, !type !128, !type !129, !type !130, !type !131, !type !132, !type !133, !type !134, !type !135, !type !136, !type !137, !type !138, !type !139, !type !140, !type !141, !type !142, !type !143, !type !144, !type !145, !type !146, !type !147, !type !148, !type !149, !type !150, !type !151, !type !152, !type !153, !type !154, !type !155, !type !156, !type !157, !type !158, !type !159, !type !160, !type !161, !type !162, !type !163, !type !164, !type !165, !type !166, !type !167, !type !168, !type !169, !type !170, !type !171, !type !172, !type !173, !type !174, !type !175, !type !176, !type !177, !type !178, !type !179, !type !180, !type !181, !type !182, !type !183, !type !184, !type !185, !type !186, !type !187, !type !188, !type !189, !type !190, !type !191, !type !192, !type !193, !type !194, !type !195, !type !196, !type !197, !type !198, !type !199, !type !200, !type !201, !type !202, !type !203, !type !204, !type !205, !type !206, !type !207, !type !208, !type !209, !type !210, !type !211, !type !212, !type !213, !type !214, !type !215, !type !216, !type !217, !type !218, !type !219, !type !220, !type !221, !type !222, !type !223, !type !224, !type !225, !type !226, !type !227, !type !228, !type !229, !type !230, !type !231, !type !232, !type !233, !type !234, !type !235, !type !236, !type !237, !type !238, !type !239, !type !240, !type !241, !type !242, !type !243, !type !244, !type !245, !type !246, !type !247, !type !248, !type !280, !type !281, !type !282, !type !283, !type !284, !type !285, !type !286, !type !287, !type !288, !type !289, !type !290, !type !291, !type !292, !type !293, !type !294, !type !295, !type !296, !type !297, !type !298, !type !299, !type !300, !type !301, !type !302, !type !303, !type !304, !type !305, !type !306, !type !307, !type !308, !type !309, !type !310, !type !63, !type !64, !type !65, !type !66, !type !67, !type !68, !type !69, !type !70, !type !71, !type !72, !type !73, !type !74, !type !75, !type !76, !type !77, !type !78, !type !79, !type !80, !type !81, !type !82, !type !83, !type !84, !type !85, !type !86, !type !87, !type !88, !type !89, !type !90, !type !91, !type !92, !type !93, !type !94, !type !95, !type !96, !type !97, !type !98, !type !99, !type !100, !type !101, !type !102, !type !103, !type !104, !type !105, !type !106, !type !107, !type !108, !type !109, !type !110, !type !111, !type !112, !type !113, !type !114, !type !115, !type !116, !type !117, !type !118, !type !119, !type !120, !type !121, !type !122, !type !123, !type !124, !type !125, !type !126, !type !127, !type !128, !type !129, !type !130, !type !131, !type !132, !type !133, !type !134, !type !135, !type !136, !type !137, !type !138, !type !139, !type !140, !type !141, !type !142, !type !143, !type !144, !type !145, !type !146, !type !147, !type !148, !type !149, !type !150, !type !151, !type !152, !type !153, !type !154, !type !155, !type !156, !type !157, !type !158, !type !159, !type !160, !type !161, !type !162, !type !163, !type !164, !type !165, !type !166, !type !167, !type !168, !type !169, !type !170, !type !171, !type !172, !type !173, !type !174, !type !175, !type !176, !type !177, !type !178, !type !179, !type !180, !type !181, !type !182, !type !183, !type !184, !type !185, !type !186, !type !187, !type !188, !type !189, !type !190, !type !191, !type !192, !type !193, !type !194, !type !195, !type !196, !type !197, !type !198, !type !199, !type !200, !type !201, !type !202, !type !203, !type !204, !type !205, !type !206, !type !207, !type !208, !type !209, !type !210, !type !211, !type !212, !type !213, !type !214, !type !215, !type !216, !type !217, !type !218, !type !219, !type !220, !type !221, !type !222, !type !223, !type !224, !type !225, !type !226, !type !227, !type !228, !type !229, !type !230, !type !231, !type !232, !type !233, !type !234, !type !235, !type !236, !type !237, !type !238, !type !239, !type !240, !type !241, !type !242, !type !243, !type !244, !type !245, !type !246, !type !247, !type !248, !type !280, !type !281, !type !282, !type !283, !type !284, !type !285, !type !286, !type !287, !type !288, !type !289, !type !290, !type !291, !type !292, !type !293, !type !294, !type !295, !type !296, !type !297, !type !298, !type !299, !type !300, !type !301, !type !302, !type !303, !type !304, !type !305, !type !306, !type !307, !type !308, !type !309, !type !310, !type !63, !type !64, !type !65, !type !66, !type !67, !type !68, !type !69, !type !70, !type !71, !type !72, !type !73, !type !74, !type !75, !type !76, !type !77, !type !78, !type !79, !type !80, !type !81, !type !82, !type !83, !type !84, !type !85, !type !86, !type !87, !type !88, !type !89, !type !90, !type !91, !type !92, !type !93, !type !94, !type !95, !type !96, !type !97, !type !98, !type !99, !type !100, !type !101, !type !102, !type !103, !type !104, !type !105, !type !106, !type !107, !type !108, !type !109, !type !110, !type !111, !type !112, !type !113, !type !114, !type !115, !type !116, !type !117, !type !118, !type !119, !type !120, !type !121, !type !122, !type !123, !type !124, !type !125, !type !126, !type !127, !type !128, !type !129, !type !130, !type !131, !type !132, !type !133, !type !134, !type !135, !type !136, !type !137, !type !138, !type !139, !type !140, !type !141, !type !142, !type !143, !type !144, !type !145, !type !146, !type !147, !type !148, !type !149, !type !150, !type !151, !type !152, !type !153, !type !154, !type !155, !type !156, !type !157, !type !158, !type !159, !type !160, !type !161, !type !162, !type !163, !type !164, !type !165, !type !166, !type !167, !type !168, !type !169, !type !170, !type !171, !type !172, !type !173, !type !174, !type !175, !type !176, !type !177, !type !178, !type !179, !type !180, !type !181, !type !182, !type !183, !type !184, !type !185, !type !186, !type !187, !type !188, !type !189, !type !190, !type !191, !type !192, !type !193, !type !194, !type !195, !type !196, !type !197, !type !198, !type !199, !type !200, !type !201, !type !202, !type !203, !type !204, !type !205, !type !206, !type !207, !type !208, !type !209, !type !210, !type !211, !type !212, !type !213, !type !214, !type !215, !type !216, !type !217, !type !218, !type !219, !type !220, !type !221, !type !222, !type !223, !type !224, !type !225, !type !226, !type !227, !type !228, !type !229, !type !230, !type !231, !type !232, !type !233, !type !234, !type !235, !type !236, !type !237, !type !238, !type !239, !type !240, !type !241, !type !242, !type !243, !type !244, !type !245, !type !246, !type !247, !type !248, !type !280, !type !281, !type !282, !type !283, !type !284, !type !285, !type !286, !type !287, !type !288, !type !289, !type !290, !type !291, !type !292, !type !293, !type !294, !type !295, !type !296, !type !297, !type !298, !type !299, !type !300, !type !301, !type !302, !type !303, !type !304, !type !305, !type !306, !type !307, !type !308, !type !309, !type !310
@_ZTCN4OHOS5SDemo12SDemoServiceE104_NS_13IPCObjectStubE = unnamed_addr constant { [24 x ptr], [8 x ptr], [15 x ptr] } { [24 x ptr] [ptr inttoptr (i32 92 to ptr), ptr inttoptr (i32 84 to ptr), ptr null, ptr null, ptr @_ZN4OHOS13IPCObjectStub17GetObjectRefCountEv, ptr @_ZN4OHOS13IPCObjectStub11SendRequestEjRNS_13MessageParcelES2_RNS_13MessageOptionE, ptr @_ZNK4OHOS13IPCObjectStub13IsProxyObjectEv, ptr @_ZNK4OHOS13IRemoteObject12IsObjectDeadEv, ptr @_ZN4OHOS13IRemoteObject22GetInterfaceDescriptorEv, ptr @_ZNK4OHOS13IRemoteObject19CheckObjectLegalityEv, ptr @_ZN4OHOS13IPCObjectStub17AddDeathRecipientERKNS_4sptrINS_13IRemoteObject14DeathRecipientEEE, ptr @_ZN4OHOS13IPCObjectStub20RemoveDeathRecipientERKNS_4sptrINS_13IRemoteObject14DeathRecipientEEE, ptr @_ZNK4OHOS13IRemoteObject11MarshallingERNS_6ParcelE, ptr @_ZN4OHOS13IRemoteObject11AsInterfaceEv, ptr @_ZN4OHOS13IPCObjectStub4DumpEiRKNSt3__h6vectorINS1_12basic_stringIDsNS1_11char_traitsIDsEENS1_9allocatorIDsEEEENS6_IS8_EEEE, ptr @_ZN4OHOS13IPCObjectStubD1Ev, ptr @_ZN4OHOS13IPCObjectStubD0Ev, ptr @_ZN4OHOS13IPCObjectStub15OnRemoteRequestEjRNS_13MessageParcelES2_RNS_13MessageOptionE, ptr @_ZN4OHOS13IPCObjectStub16OnFirstStrongRefEPKv, ptr @_ZN4OHOS13IPCObjectStub15OnLastStrongRefEPKv, ptr @_ZN4OHOS13IPCObjectStub12OnRemoteDumpEjRNS_13MessageParcelES2_RNS_13MessageOptionE, ptr @_ZN4OHOS13IPCObjectStub12ProcessProtoEjRNS_13MessageParcelES2_RNS_13MessageOptionE, ptr @_ZNK4OHOS13IPCObjectStub13GetObjectTypeEv, ptr @_ZN4OHOS13IPCObjectStub21GetAndSaveDBinderDataEij], [8 x ptr] [ptr inttoptr (i32 -84 to ptr), ptr inttoptr (i32 -84 to ptr), ptr inttoptr (i32 8 to ptr), ptr inttoptr (i32 -84 to ptr), ptr null, ptr @_ZTv0_n16_N4OHOS13IPCObjectStubD1Ev, ptr @_ZTv0_n16_N4OHOS13IPCObjectStubD0Ev, ptr @_ZTv0_n20_NK4OHOS13IRemoteObject11MarshallingERNS_6ParcelE], [15 x ptr] [ptr null, ptr null, ptr inttoptr (i32 -92 to ptr), ptr inttoptr (i32 -92 to ptr), ptr null, ptr inttoptr (i32 -92 to ptr), ptr inttoptr (i32 -92 to ptr), ptr null, ptr @_ZTv0_n12_N4OHOS13IPCObjectStubD1Ev, ptr @_ZTv0_n12_N4OHOS13IPCObjectStubD0Ev, ptr @_ZN4OHOS7RefBase14RefPtrCallbackEv, ptr @_ZTv0_n20_N4OHOS13IPCObjectStub16OnFirstStrongRefEPKv, ptr @_ZTv0_n24_N4OHOS13IPCObjectStub15OnLastStrongRefEPKv, ptr @_ZN4OHOS7RefBase13OnLastWeakRefEPKv, ptr @_ZN4OHOS7RefBase17OnAttemptPromotedEPKv] }, align 4, !type !311, !type !64, !type !65, !type !66, !type !67, !type !68, !type !69, !type !70, !type !71, !type !72, !type !73, !type !74, !type !75, !type !76, !type !77, !type !78, !type !79, !type !80, !type !81, !type !312, !type !313, !type !314, !type !315, !type !316, !type !317, !type !125, !type !126, !type !127, !type !128, !type !129, !type !130, !type !131, !type !132, !type !133, !type !134, !type !135, !type !136, !type !137, !type !138, !type !139, !type !140, !type !141, !type !142, !type !143, !type !318, !type !319, !type !320, !type !321, !type !322, !type !323, !type !187, !type !188, !type !189, !type !190, !type !191, !type !192, !type !193, !type !194, !type !195, !type !196, !type !197, !type !198, !type !199, !type !200, !type !201, !type !202, !type !203, !type !204, !type !205, !type !324, !type !325, !type !326, !type !327, !type !328, !type !329, !type !330, !type !281, !type !282, !type !283, !type !284, !type !285, !type !286, !type !287, !type !288, !type !289, !type !290, !type !291, !type !292, !type !293, !type !294, !type !295, !type !296, !type !297, !type !298, !type !331, !type !332, !type !333, !type !334, !type !335, !type !336, !type !311, !type !64, !type !65, !type !66, !type !67, !type !68, !type !69, !type !70, !type !71, !type !72, !type !73, !type !74, !type !75, !type !76, !type !77, !type !78, !type !79, !type !80, !type !81, !type !312, !type !313, !type !314, !type !315, !type !316, !type !317, !type !125, !type !126, !type !127, !type !128, !type !129, !type !130, !type !131, !type !132, !type !133, !type !134, !type !135, !type !136, !type !137, !type !138, !type !139, !type !140, !type !141, !type !142, !type !143, !type !318, !type !319, !type !320, !type !321, !type !322, !type !323, !type !187, !type !188, !type !189, !type !190, !type !191, !type !192, !type !193, !type !194, !type !195, !type !196, !type !197, !type !198, !type !199, !type !200, !type !201, !type !202, !type !203, !type !204, !type !205, !type !324, !type !325, !type !326, !type !327, !type !328, !type !329, !type !330, !type !281, !type !282, !type !283, !type !284, !type !285, !type !286, !type !287, !type !288, !type !289, !type !290, !type !291, !type !292, !type !293, !type !294, !type !295, !type !296, !type !297, !type !298, !type !331, !type !332, !type !333, !type !334, !type !335, !type !336, !type !311, !type !64, !type !65, !type !66, !type !67, !type !68, !type !69, !type !70, !type !71, !type !72, !type !73, !type !74, !type !75, !type !76, !type !77, !type !78, !type !79, !type !80, !type !81, !type !312, !type !313, !type !314, !type !315, !type !316, !type !317, !type !125, !type !126, !type !127, !type !128, !type !129, !type !130, !type !131, !type !132, !type !133, !type !134, !type !135, !type !136, !type !137, !type !138, !type !139, !type !140, !type !141, !type !142, !type !143, !type !318, !type !319, !type !320, !type !321, !type !322, !type !323, !type !187, !type !188, !type !189, !type !190, !type !191, !type !192, !type !193, !type !194, !type !195, !type !196, !type !197, !type !198, !type !199, !type !200, !type !201, !type !202, !type !203, !type !204, !type !205, !type !324, !type !325, !type !326, !type !327, !type !328, !type !329, !type !330, !type !281, !type !282, !type !283, !type !284, !type !285, !type !286, !type !287, !type !288, !type !289, !type !290, !type !291, !type !292, !type !293, !type !294, !type !295, !type !296, !type !297, !type !298, !type !331, !type !332, !type !333, !type !334, !type !335, !type !336
@_ZTCN4OHOS5SDemo12SDemoServiceE104_NS_13IRemoteObjectE = unnamed_addr constant { [17 x ptr], [8 x ptr], [15 x ptr] } { [17 x ptr] [ptr inttoptr (i32 92 to ptr), ptr inttoptr (i32 84 to ptr), ptr null, ptr null, ptr @__cxa_pure_virtual, ptr @__cxa_pure_virtual, ptr @_ZNK4OHOS13IRemoteObject13IsProxyObjectEv, ptr @_ZNK4OHOS13IRemoteObject12IsObjectDeadEv, ptr @_ZN4OHOS13IRemoteObject22GetInterfaceDescriptorEv, ptr @_ZNK4OHOS13IRemoteObject19CheckObjectLegalityEv, ptr @__cxa_pure_virtual, ptr @__cxa_pure_virtual, ptr @_ZNK4OHOS13IRemoteObject11MarshallingERNS_6ParcelE, ptr @_ZN4OHOS13IRemoteObject11AsInterfaceEv, ptr @__cxa_pure_virtual, ptr @_ZN4OHOS13IRemoteObjectD1Ev, ptr @_ZN4OHOS13IRemoteObjectD0Ev], [8 x ptr] [ptr inttoptr (i32 -84 to ptr), ptr inttoptr (i32 -84 to ptr), ptr inttoptr (i32 8 to ptr), ptr inttoptr (i32 -84 to ptr), ptr null, ptr @_ZTv0_n16_N4OHOS13IRemoteObjectD1Ev, ptr @_ZTv0_n16_N4OHOS13IRemoteObjectD0Ev, ptr @_ZTv0_n20_NK4OHOS13IRemoteObject11MarshallingERNS_6ParcelE], [15 x ptr] [ptr null, ptr null, ptr null, ptr null, ptr null, ptr inttoptr (i32 -92 to ptr), ptr inttoptr (i32 -92 to ptr), ptr null, ptr @_ZTv0_n12_N4OHOS13IRemoteObjectD1Ev, ptr @_ZTv0_n12_N4OHOS13IRemoteObjectD0Ev, ptr @_ZN4OHOS7RefBase14RefPtrCallbackEv, ptr @_ZN4OHOS7RefBase16OnFirstStrongRefEPKv, ptr @_ZN4OHOS7RefBase15OnLastStrongRefEPKv, ptr @_ZN4OHOS7RefBase13OnLastWeakRefEPKv, ptr @_ZN4OHOS7RefBase17OnAttemptPromotedEPKv] }, align 4, !type !337, !type !64, !type !65, !type !66, !type !67, !type !68, !type !69, !type !70, !type !71, !type !72, !type !73, !type !74, !type !338, !type !339, !type !340, !type !341, !type !342, !type !343, !type !187, !type !188, !type !189, !type !190, !type !191, !type !192, !type !193, !type !194, !type !195, !type !196, !type !197, !type !198, !type !344, !type !345, !type !346, !type !347, !type !348, !type !349, !type !350, !type !281, !type !282, !type !283, !type !284, !type !285, !type !286, !type !287, !type !288, !type !289, !type !290, !type !291, !type !351, !type !352, !type !353, !type !354, !type !355, !type !356, !type !337, !type !64, !type !65, !type !66, !type !67, !type !68, !type !69, !type !70, !type !71, !type !72, !type !73, !type !74, !type !338, !type !339, !type !340, !type !341, !type !342, !type !343, !type !187, !type !188, !type !189, !type !190, !type !191, !type !192, !type !193, !type !194, !type !195, !type !196, !type !197, !type !198, !type !344, !type !345, !type !346, !type !347, !type !348, !type !349, !type !350, !type !281, !type !282, !type !283, !type !284, !type !285, !type !286, !type !287, !type !288, !type !289, !type !290, !type !291, !type !351, !type !352, !type !353, !type !354, !type !355, !type !356, !type !337, !type !64, !type !65, !type !66, !type !67, !type !68, !type !69, !type !70, !type !71, !type !72, !type !73, !type !74, !type !338, !type !339, !type !340, !type !341, !type !342, !type !343, !type !187, !type !188, !type !189, !type !190, !type !191, !type !192, !type !193, !type !194, !type !195, !type !196, !type !197, !type !198, !type !344, !type !345, !type !346, !type !347, !type !348, !type !349, !type !350, !type !281, !type !282, !type !283, !type !284, !type !285, !type !286, !type !287, !type !288, !type !289, !type !290, !type !291, !type !351, !type !352, !type !353, !type !354, !type !355, !type !356
@_ZTCN4OHOS5SDemo12SDemoServiceE164_NS0_13ISDemoServiceE = unnamed_addr constant { [10 x ptr], [15 x ptr] } { [10 x ptr] [ptr inttoptr (i32 32 to ptr), ptr null, ptr null, ptr @_ZN4OHOS5SDemo13ISDemoServiceD1Ev, ptr @_ZN4OHOS5SDemo13ISDemoServiceD0Ev, ptr @__cxa_pure_virtual, ptr @__cxa_pure_virtual, ptr @__cxa_pure_virtual, ptr @__cxa_pure_virtual, ptr @__cxa_pure_virtual], [15 x ptr] [ptr null, ptr null, ptr null, ptr null, ptr null, ptr inttoptr (i32 -32 to ptr), ptr inttoptr (i32 -32 to ptr), ptr null, ptr @_ZTv0_n12_N4OHOS5SDemo13ISDemoServiceD1Ev, ptr @_ZTv0_n12_N4OHOS5SDemo13ISDemoServiceD0Ev, ptr @_ZN4OHOS7RefBase14RefPtrCallbackEv, ptr @_ZN4OHOS7RefBase16OnFirstStrongRefEPKv, ptr @_ZN4OHOS7RefBase15OnLastStrongRefEPKv, ptr @_ZN4OHOS7RefBase13OnLastWeakRefEPKv, ptr @_ZN4OHOS7RefBase17OnAttemptPromotedEPKv] }, align 4, !type !357, !type !358, !type !359, !type !360, !type !361, !type !362, !type !363, !type !364, !type !365, !type !366, !type !367, !type !368, !type !369, !type !370, !type !371, !type !372, !type !373, !type !374, !type !375, !type !376, !type !377, !type !378, !type !379, !type !380, !type !381, !type !382, !type !383, !type !384, !type !385, !type !386, !type !387, !type !388, !type !389, !type !357, !type !358, !type !359, !type !360, !type !361, !type !362, !type !363, !type !364, !type !365, !type !366, !type !367, !type !368, !type !369, !type !370, !type !371, !type !372, !type !373, !type !374, !type !375, !type !376, !type !377, !type !378, !type !379, !type !380, !type !381, !type !382, !type !383, !type !384, !type !385, !type !386, !type !387, !type !388, !type !389, !type !357, !type !358, !type !359, !type !360, !type !361, !type !362, !type !363, !type !364, !type !365, !type !366, !type !367, !type !368, !type !369, !type !370, !type !371, !type !372, !type !373, !type !374, !type !375, !type !376, !type !377, !type !378, !type !379, !type !380, !type !381, !type !382, !type !383, !type !384, !type !385, !type !386, !type !387, !type !388, !type !389
@_ZTCN4OHOS5SDemo12SDemoServiceE164_NS_13IRemoteBrokerE = unnamed_addr constant { [6 x ptr], [15 x ptr] } { [6 x ptr] [ptr inttoptr (i32 32 to ptr), ptr null, ptr null, ptr @_ZN4OHOS13IRemoteBrokerD1Ev, ptr @_ZN4OHOS13IRemoteBrokerD0Ev, ptr @__cxa_pure_virtual], [15 x ptr] [ptr null, ptr null, ptr null, ptr null, ptr null, ptr inttoptr (i32 -32 to ptr), ptr inttoptr (i32 -32 to ptr), ptr null, ptr @_ZTv0_n12_N4OHOS13IRemoteBrokerD1Ev, ptr @_ZTv0_n12_N4OHOS13IRemoteBrokerD0Ev, ptr @_ZN4OHOS7RefBase14RefPtrCallbackEv, ptr @_ZN4OHOS7RefBase16OnFirstStrongRefEPKv, ptr @_ZN4OHOS7RefBase15OnLastStrongRefEPKv, ptr @_ZN4OHOS7RefBase13OnLastWeakRefEPKv, ptr @_ZN4OHOS7RefBase17OnAttemptPromotedEPKv] }, align 4, !type !357, !type !358, !type !390, !type !391, !type !169, !type !170, !type !392, !type !393, !type !380, !type !394, !type !395, !type !293, !type !294, !type !396, !type !357, !type !358, !type !390, !type !391, !type !169, !type !170, !type !392, !type !393, !type !380, !type !394, !type !395, !type !293, !type !294, !type !396, !type !357, !type !358, !type !390, !type !391, !type !169, !type !170, !type !392, !type !393, !type !380, !type !394, !type !395, !type !293, !type !294, !type !396
@_ZTCN4OHOS5SDemo12SDemoServiceE188_NS_10ParcelableE = unnamed_addr constant { [8 x ptr], [15 x ptr] } { [8 x ptr] [ptr null, ptr null, ptr inttoptr (i32 8 to ptr), ptr null, ptr null, ptr @_ZN4OHOS10ParcelableD1Ev, ptr @_ZN4OHOS10ParcelableD0Ev, ptr @__cxa_pure_virtual], [15 x ptr] [ptr null, ptr null, ptr null, ptr null, ptr null, ptr inttoptr (i32 -8 to ptr), ptr inttoptr (i32 -8 to ptr), ptr null, ptr @_ZTv0_n12_N4OHOS10ParcelableD1Ev, ptr @_ZTv0_n12_N4OHOS10ParcelableD0Ev, ptr @_ZN4OHOS7RefBase14RefPtrCallbackEv, ptr @_ZN4OHOS7RefBase16OnFirstStrongRefEPKv, ptr @_ZN4OHOS7RefBase15OnLastStrongRefEPKv, ptr @_ZN4OHOS7RefBase13OnLastWeakRefEPKv, ptr @_ZN4OHOS7RefBase17OnAttemptPromotedEPKv] }, align 4, !type !397, !type !398, !type !399, !type !77, !type !400, !type !401, !type !402, !type !403, !type !404, !type !405, !type !294, !type !406, !type !386, !type !407, !type !397, !type !398, !type !399, !type !77, !type !400, !type !401, !type !402, !type !403, !type !404, !type !405, !type !294, !type !406, !type !386, !type !407, !type !397, !type !398, !type !399, !type !77, !type !400, !type !401, !type !402, !type !403, !type !404, !type !405, !type !294, !type !406, !type !386, !type !407
@.str.19 = private unnamed_addr constant [13 x i8] c"SDemoService\00", align 1, !dbg !905

; Function Attrs: nounwind sspstrong uwtable(sync)
define noundef i32 @_Z25innerTureIllegalInforFlowi(i32 noundef %0) local_unnamed_addr #0 !dbg !7059 {
  %2 = alloca %"class.std::__h::locale", align 4
  %3 = alloca %"class.std::__h::locale", align 4
  %4 = alloca %"class.std::__h::locale", align 4
  %5 = alloca %"class.std::__h::basic_ifstream", align 4
  %6 = alloca %"class.std::__h::basic_ofstream", align 4
  %7 = alloca %"class.std::__h::basic_string", align 4
  call void @llvm.dbg.value(metadata i32 %0, metadata !7061, metadata !DIExpression()), !dbg !7067
  call void @llvm.lifetime.start.p0(i64 188, ptr nonnull %5) #18, !dbg !7068
  call void @llvm.dbg.declare(metadata ptr %5, metadata !7062, metadata !DIExpression()), !dbg !7069
  %8 = getelementptr inbounds i8, ptr %5, i32 8, !dbg !7069
  call void @llvm.memset.p0.i32(ptr noundef nonnull align 4 dereferenceable(188) %8, i8 0, i32 180, i1 false), !dbg !7069, !annotation !7070
  call void @llvm.dbg.value(metadata ptr %5, metadata !7071, metadata !DIExpression()), !dbg !7077
  call void @llvm.dbg.value(metadata ptr @.str, metadata !7074, metadata !DIExpression()), !dbg !7077
  call void @llvm.dbg.value(metadata i32 8, metadata !7075, metadata !DIExpression()), !dbg !7077
  %9 = getelementptr inbounds i8, ptr %5, i32 108, !dbg !7079
  %10 = getelementptr inbounds %"class.std::__h::basic_ifstream", ptr %5, i32 0, i32 1, !dbg !7080
  call void @llvm.dbg.value(metadata ptr %5, metadata !7081, metadata !DIExpression()), !dbg !7092
  call void @llvm.dbg.value(metadata ptr getelementptr inbounds ([4 x ptr], ptr @_ZTTNSt3__h14basic_ifstreamIcNS_11char_traitsIcEEEE, i32 0, i32 1), metadata !7088, metadata !DIExpression()), !dbg !7092
  call void @llvm.dbg.value(metadata ptr %10, metadata !7090, metadata !DIExpression()), !dbg !7092
  store ptr getelementptr inbounds ({ [5 x ptr], [5 x ptr] }, ptr @_ZTCNSt3__h14basic_ifstreamIcNS_11char_traitsIcEEEE0_NS_13basic_istreamIcS2_EE, i32 0, inrange i32 0, i32 3), ptr %5, align 4, !dbg !7094
  store ptr getelementptr inbounds ({ [5 x ptr], [5 x ptr] }, ptr @_ZTCNSt3__h14basic_ifstreamIcNS_11char_traitsIcEEEE0_NS_13basic_istreamIcS2_EE, i32 0, inrange i32 1, i32 3), ptr %9, align 4, !dbg !7094
  %11 = getelementptr inbounds %"class.std::__h::basic_istream", ptr %5, i32 0, i32 1, !dbg !7095
  store i32 0, ptr %11, align 4, !dbg !7095
  call void @llvm.dbg.value(metadata ptr %9, metadata !7096, metadata !DIExpression()), !dbg !7105
  call void @llvm.dbg.value(metadata ptr %10, metadata !7103, metadata !DIExpression()), !dbg !7105
  call void @_ZNSt3__h8ios_base4initEPv(ptr noundef nonnull align 4 dereferenceable(72) %9, ptr noundef nonnull %10) #18, !dbg !7108
  %12 = getelementptr inbounds i8, ptr %5, i32 180, !dbg !7109
  store ptr null, ptr %12, align 4, !dbg !7110
  %13 = getelementptr inbounds i8, ptr %5, i32 184, !dbg !7111
  store i32 -1, ptr %13, align 4, !dbg !7112
  store ptr getelementptr inbounds ({ [5 x ptr], [5 x ptr] }, ptr @_ZTVNSt3__h14basic_ifstreamIcNS_11char_traitsIcEEEE, i32 0, inrange i32 0, i32 3), ptr %5, align 4, !dbg !7079
  store ptr getelementptr inbounds ({ [5 x ptr], [5 x ptr] }, ptr @_ZTVNSt3__h14basic_ifstreamIcNS_11char_traitsIcEEEE, i32 0, inrange i32 1, i32 3), ptr %9, align 4, !dbg !7079
  %14 = call noundef ptr @_ZNSt3__h13basic_filebufIcNS_11char_traitsIcEEEC2Ev(ptr noundef nonnull align 4 dereferenceable(99) %10), !dbg !7113
  call void @llvm.dbg.value(metadata ptr %10, metadata !7114, metadata !DIExpression()), !dbg !7124
  call void @llvm.dbg.value(metadata ptr @.str, metadata !7117, metadata !DIExpression()), !dbg !7124
  call void @llvm.dbg.value(metadata i32 8, metadata !7118, metadata !DIExpression()), !dbg !7124
  call void @llvm.dbg.value(metadata ptr null, metadata !7119, metadata !DIExpression()), !dbg !7124
  call void @llvm.dbg.value(metadata ptr null, metadata !7119, metadata !DIExpression()), !dbg !7124
  %15 = getelementptr inbounds %"class.std::__h::basic_ifstream", ptr %5, i32 0, i32 1, i32 8, !dbg !7128
  %16 = load ptr, ptr %15, align 4, !dbg !7128
  %17 = icmp eq ptr %16, null, !dbg !7129
  br i1 %17, label %18, label %23, !dbg !7130

18:                                               ; preds = %1
  call void @llvm.dbg.value(metadata ptr null, metadata !7120, metadata !DIExpression()), !dbg !7131
  call void @llvm.dbg.value(metadata ptr null, metadata !7120, metadata !DIExpression()), !dbg !7131
  call void @llvm.dbg.value(metadata ptr %10, metadata !7119, metadata !DIExpression()), !dbg !7124
  %19 = call ptr @fopen(ptr noundef nonnull @.str, ptr noundef nonnull @.str.6), !dbg !7132
  store ptr %19, ptr %15, align 4, !dbg !7134
  %20 = icmp eq ptr %19, null, !dbg !7135
  br i1 %20, label %23, label %21, !dbg !7137

21:                                               ; preds = %18
  %22 = getelementptr inbounds %"class.std::__h::basic_ifstream", ptr %5, i32 0, i32 1, i32 12, !dbg !7138
  store i32 8, ptr %22, align 4, !dbg !7140
  call void @llvm.dbg.value(metadata ptr %10, metadata !7119, metadata !DIExpression()), !dbg !7124
  br label %31, !dbg !7141

23:                                               ; preds = %18, %1
  call void @llvm.dbg.value(metadata ptr %10, metadata !7119, metadata !DIExpression()), !dbg !7124
  %24 = load ptr, ptr %5, align 4, !dbg !7142
  %25 = getelementptr i8, ptr %24, i32 -12, !dbg !7142
  %26 = load i32, ptr %25, align 4, !dbg !7142
  %27 = getelementptr inbounds i8, ptr %5, i32 %26, !dbg !7142
  call void @llvm.dbg.value(metadata ptr %27, metadata !7143, metadata !DIExpression()), !dbg !7151
  call void @llvm.dbg.value(metadata i32 4, metadata !7150, metadata !DIExpression()), !dbg !7151
  call void @llvm.dbg.value(metadata ptr %27, metadata !7153, metadata !DIExpression()), !dbg !7162
  call void @llvm.dbg.value(metadata i32 4, metadata !7160, metadata !DIExpression()), !dbg !7162
  %28 = getelementptr inbounds %"class.std::__h::ios_base", ptr %27, i32 0, i32 4, !dbg !7164
  %29 = load i32, ptr %28, align 4, !dbg !7164
  %30 = or i32 %29, 4, !dbg !7165
  call void @_ZNSt3__h8ios_base5clearEj(ptr noundef nonnull align 4 dereferenceable(72) %27, i32 noundef %30) #18, !dbg !7166
  br label %31, !dbg !7167

31:                                               ; preds = %23, %21
  call void @llvm.lifetime.start.p0(i64 184, ptr nonnull %6) #18, !dbg !7168
  call void @llvm.dbg.declare(metadata ptr %6, metadata !7064, metadata !DIExpression()), !dbg !7169
  %32 = getelementptr inbounds i8, ptr %6, i32 4, !dbg !7169
  call void @llvm.memset.p0.i32(ptr noundef nonnull align 4 dereferenceable(184) %32, i8 0, i32 180, i1 false), !dbg !7169, !annotation !7070
  call void @llvm.dbg.value(metadata ptr %6, metadata !7170, metadata !DIExpression()), !dbg !7176
  call void @llvm.dbg.value(metadata ptr @.str.1, metadata !7173, metadata !DIExpression()), !dbg !7176
  call void @llvm.dbg.value(metadata i32 1, metadata !7174, metadata !DIExpression()), !dbg !7176
  %33 = getelementptr inbounds i8, ptr %6, i32 104, !dbg !7178
  %34 = getelementptr inbounds %"class.std::__h::basic_ofstream", ptr %6, i32 0, i32 1, !dbg !7179
  call void @llvm.dbg.value(metadata ptr %6, metadata !7180, metadata !DIExpression()), !dbg !7190
  call void @llvm.dbg.value(metadata ptr getelementptr inbounds ([4 x ptr], ptr @_ZTTNSt3__h14basic_ofstreamIcNS_11char_traitsIcEEEE, i32 0, i32 1), metadata !7187, metadata !DIExpression()), !dbg !7190
  call void @llvm.dbg.value(metadata ptr %34, metadata !7188, metadata !DIExpression()), !dbg !7190
  store ptr getelementptr inbounds ({ [5 x ptr], [5 x ptr] }, ptr @_ZTCNSt3__h14basic_ofstreamIcNS_11char_traitsIcEEEE0_NS_13basic_ostreamIcS2_EE, i32 0, inrange i32 0, i32 3), ptr %6, align 4, !dbg !7192
  store ptr getelementptr inbounds ({ [5 x ptr], [5 x ptr] }, ptr @_ZTCNSt3__h14basic_ofstreamIcNS_11char_traitsIcEEEE0_NS_13basic_ostreamIcS2_EE, i32 0, inrange i32 1, i32 3), ptr %33, align 4, !dbg !7192
  call void @llvm.dbg.value(metadata ptr %33, metadata !7096, metadata !DIExpression()), !dbg !7193
  call void @llvm.dbg.value(metadata ptr %34, metadata !7103, metadata !DIExpression()), !dbg !7193
  call void @_ZNSt3__h8ios_base4initEPv(ptr noundef nonnull align 4 dereferenceable(72) %33, ptr noundef nonnull %34) #18, !dbg !7196
  %35 = getelementptr inbounds i8, ptr %6, i32 176, !dbg !7197
  store ptr null, ptr %35, align 4, !dbg !7198
  %36 = getelementptr inbounds i8, ptr %6, i32 180, !dbg !7199
  store i32 -1, ptr %36, align 4, !dbg !7200
  store ptr getelementptr inbounds ({ [5 x ptr], [5 x ptr] }, ptr @_ZTVNSt3__h14basic_ofstreamIcNS_11char_traitsIcEEEE, i32 0, inrange i32 0, i32 3), ptr %6, align 4, !dbg !7178
  store ptr getelementptr inbounds ({ [5 x ptr], [5 x ptr] }, ptr @_ZTVNSt3__h14basic_ofstreamIcNS_11char_traitsIcEEEE, i32 0, inrange i32 1, i32 3), ptr %33, align 4, !dbg !7178
  %37 = call noundef ptr @_ZNSt3__h13basic_filebufIcNS_11char_traitsIcEEEC2Ev(ptr noundef nonnull align 4 dereferenceable(99) %34), !dbg !7201
  call void @llvm.dbg.value(metadata ptr %34, metadata !7114, metadata !DIExpression()), !dbg !7202
  call void @llvm.dbg.value(metadata ptr @.str.1, metadata !7117, metadata !DIExpression()), !dbg !7202
  call void @llvm.dbg.value(metadata i32 17, metadata !7118, metadata !DIExpression()), !dbg !7202
  call void @llvm.dbg.value(metadata ptr null, metadata !7119, metadata !DIExpression()), !dbg !7202
  %38 = getelementptr inbounds %"class.std::__h::basic_ofstream", ptr %6, i32 0, i32 1, i32 8, !dbg !7206
  %39 = load ptr, ptr %38, align 4, !dbg !7206
  %40 = icmp eq ptr %39, null, !dbg !7207
  br i1 %40, label %41, label %46, !dbg !7208

41:                                               ; preds = %31
  call void @llvm.dbg.value(metadata ptr null, metadata !7120, metadata !DIExpression()), !dbg !7209
  call void @llvm.dbg.value(metadata ptr %34, metadata !7119, metadata !DIExpression()), !dbg !7202
  %42 = call ptr @fopen(ptr noundef nonnull @.str.1, ptr noundef nonnull @.str.5), !dbg !7210
  store ptr %42, ptr %38, align 4, !dbg !7211
  %43 = icmp eq ptr %42, null, !dbg !7212
  br i1 %43, label %46, label %44, !dbg !7213

44:                                               ; preds = %41
  %45 = getelementptr inbounds %"class.std::__h::basic_ofstream", ptr %6, i32 0, i32 1, i32 12, !dbg !7214
  store i32 17, ptr %45, align 4, !dbg !7215
  call void @llvm.dbg.value(metadata ptr %34, metadata !7119, metadata !DIExpression()), !dbg !7202
  br label %55, !dbg !7216

46:                                               ; preds = %41, %31
  call void @llvm.dbg.value(metadata ptr %34, metadata !7119, metadata !DIExpression()), !dbg !7202
  %47 = load ptr, ptr %6, align 4, !dbg !7217
  %48 = getelementptr i8, ptr %47, i32 -12, !dbg !7217
  %49 = load i32, ptr %48, align 4, !dbg !7217
  %50 = getelementptr inbounds i8, ptr %6, i32 %49, !dbg !7217
  call void @llvm.dbg.value(metadata ptr %50, metadata !7143, metadata !DIExpression()), !dbg !7218
  call void @llvm.dbg.value(metadata i32 4, metadata !7150, metadata !DIExpression()), !dbg !7218
  call void @llvm.dbg.value(metadata ptr %50, metadata !7153, metadata !DIExpression()), !dbg !7220
  call void @llvm.dbg.value(metadata i32 4, metadata !7160, metadata !DIExpression()), !dbg !7220
  %51 = getelementptr inbounds %"class.std::__h::ios_base", ptr %50, i32 0, i32 4, !dbg !7222
  %52 = load i32, ptr %51, align 4, !dbg !7222
  %53 = or i32 %52, 4, !dbg !7223
  call void @_ZNSt3__h8ios_base5clearEj(ptr noundef nonnull align 4 dereferenceable(72) %50, i32 noundef %53) #18, !dbg !7224
  %54 = load ptr, ptr %38, align 4
  br label %55, !dbg !7225

55:                                               ; preds = %46, %44
  %56 = phi ptr [ %42, %44 ], [ %54, %46 ]
  call void @llvm.lifetime.start.p0(i64 12, ptr nonnull %7) #18, !dbg !7226
  call void @llvm.dbg.declare(metadata ptr %7, metadata !7066, metadata !DIExpression()), !dbg !7227
  call void @llvm.dbg.value(metadata ptr %7, metadata !7228, metadata !DIExpression()), !dbg !7232
  call void @llvm.dbg.value(metadata ptr %7, metadata !7234, metadata !DIExpression()), !dbg !7237
  call void @llvm.dbg.value(metadata ptr %7, metadata !7240, metadata !DIExpression()), !dbg !7243
  call void @llvm.dbg.value(metadata ptr %5, metadata !7245, metadata !DIExpression()), !dbg !7249
  call void @llvm.dbg.value(metadata ptr %5, metadata !7252, metadata !DIExpression(DW_OP_plus_uconst, 8, DW_OP_stack_value)), !dbg !7256
  call void @llvm.memset.p0.i64(ptr noundef nonnull align 4 dereferenceable(12) %7, i8 0, i64 12, i1 false), !dbg !7258
  %57 = load ptr, ptr %15, align 4, !dbg !7259
  %58 = icmp ne ptr %57, null, !dbg !7260
  %59 = icmp ne ptr %56, null
  %60 = select i1 %58, i1 %59, i1 false, !dbg !7261
  call void @llvm.dbg.value(metadata ptr %6, metadata !7252, metadata !DIExpression(DW_OP_plus_uconst, 4, DW_OP_stack_value)), !dbg !7262
  br i1 %60, label %61, label %120, !dbg !7261

61:                                               ; preds = %55
  call void @llvm.dbg.value(metadata ptr %5, metadata !7269, metadata !DIExpression()), !dbg !7276
  call void @llvm.dbg.value(metadata ptr %7, metadata !7275, metadata !DIExpression()), !dbg !7276
  %62 = load ptr, ptr %5, align 4, !dbg !7280
  %63 = getelementptr i8, ptr %62, i32 -12, !dbg !7280
  %64 = load i32, ptr %63, align 4, !dbg !7280
  %65 = getelementptr inbounds i8, ptr %5, i32 %64, !dbg !7280
  call void @llvm.dbg.value(metadata ptr %65, metadata !7281, metadata !DIExpression()), !dbg !7292
  call void @llvm.dbg.value(metadata i8 10, metadata !7290, metadata !DIExpression()), !dbg !7292
  call void @llvm.lifetime.start.p0(i64 4, ptr nonnull %4) #18, !dbg !7294
  call void @_ZNKSt3__h8ios_base6getlocEv(ptr nonnull sret(%"class.std::__h::locale") align 4 %4, ptr noundef nonnull align 4 dereferenceable(72) %65) #18, !dbg !7294
  call void @llvm.dbg.value(metadata ptr %4, metadata !7295, metadata !DIExpression()), !dbg !7305
  %66 = call noundef ptr @_ZNKSt3__h6locale9use_facetERNS0_2idE(ptr noundef nonnull align 4 dereferenceable(4) %4, ptr noundef nonnull align 4 dereferenceable(8) @_ZNSt3__h5ctypeIcE2idE) #18, !dbg !7307
  call void @llvm.dbg.value(metadata ptr %66, metadata !7308, metadata !DIExpression()), !dbg !7318
  call void @llvm.dbg.value(metadata i8 10, metadata !7316, metadata !DIExpression()), !dbg !7318
  %67 = load ptr, ptr %66, align 4, !dbg !7320
  %68 = getelementptr inbounds ptr, ptr %67, i32 7, !dbg !7320
  %69 = load ptr, ptr %68, align 4, !dbg !7320
  %70 = call noundef zeroext i8 %69(ptr noundef nonnull align 4 dereferenceable(13) %66, i8 noundef zeroext 10) #18, !dbg !7320
  %71 = call noundef ptr @_ZNSt3__h6localeD1Ev(ptr noundef nonnull align 4 dereferenceable(4) %4) #18, !dbg !7321
  call void @llvm.lifetime.end.p0(i64 4, ptr nonnull %4) #18, !dbg !7321
  %72 = call noundef nonnull align 4 dereferenceable(8) ptr @_ZNSt3__h7getlineIcNS_11char_traitsIcEENS_9allocatorIcEEEERNS_13basic_istreamIT_T0_EES9_RNS_12basic_stringIS6_S7_T1_EES6_(ptr noundef nonnull align 4 dereferenceable(8) %5, ptr noundef nonnull align 4 dereferenceable(12) %7, i8 noundef zeroext %70), !dbg !7322
  %73 = load ptr, ptr %72, align 4, !dbg !7323
  %74 = getelementptr i8, ptr %73, i32 -12, !dbg !7323
  %75 = load i32, ptr %74, align 4, !dbg !7323
  %76 = getelementptr inbounds i8, ptr %72, i32 %75, !dbg !7323
  call void @llvm.dbg.value(metadata ptr %76, metadata !7324, metadata !DIExpression()), !dbg !7330
  call void @llvm.dbg.value(metadata ptr %76, metadata !7332, metadata !DIExpression()), !dbg !7336
  call void @llvm.dbg.value(metadata ptr %76, metadata !7338, metadata !DIExpression()), !dbg !7347
  %77 = getelementptr inbounds %"class.std::__h::ios_base", ptr %76, i32 0, i32 4, !dbg !7349
  %78 = load i32, ptr %77, align 4, !dbg !7349
  %79 = and i32 %78, 5, !dbg !7350
  %80 = icmp eq i32 %79, 0, !dbg !7351
  br i1 %80, label %81, label %120, !dbg !7352

81:                                               ; preds = %61
  call void @llvm.dbg.value(metadata ptr %6, metadata !7353, metadata !DIExpression()), !dbg !7359
  call void @llvm.dbg.value(metadata ptr %7, metadata !7358, metadata !DIExpression()), !dbg !7359
  call void @llvm.dbg.value(metadata ptr %7, metadata !7362, metadata !DIExpression()), !dbg !7366
  call void @llvm.dbg.value(metadata ptr %7, metadata !7368, metadata !DIExpression()), !dbg !7371
  call void @llvm.dbg.value(metadata ptr %7, metadata !7373, metadata !DIExpression()), !dbg !7376
  %82 = load i8, ptr %7, align 4, !dbg !7378
  %83 = and i8 %82, 1, !dbg !7378
  %84 = icmp eq i8 %83, 0, !dbg !7379
  %85 = getelementptr inbounds %"struct.std::__h::basic_string<char>::__long", ptr %7, i32 0, i32 2, !dbg !7380
  %86 = load ptr, ptr %85, align 4, !dbg !7380
  %87 = getelementptr inbounds %"struct.std::__h::basic_string<char>::__short", ptr %7, i32 0, i32 2, !dbg !7380
  %88 = select i1 %84, ptr %87, ptr %86, !dbg !7380
  call void @llvm.dbg.value(metadata ptr %7, metadata !7381, metadata !DIExpression()), !dbg !7384
  call void @llvm.dbg.value(metadata ptr %7, metadata !7373, metadata !DIExpression()), !dbg !7386
  %89 = getelementptr inbounds %"struct.std::__h::basic_string<char>::__long", ptr %7, i32 0, i32 1, !dbg !7388
  %90 = load i32, ptr %89, align 4, !dbg !7388
  %91 = lshr i8 %82, 1, !dbg !7388
  %92 = zext i8 %91 to i32, !dbg !7388
  %93 = select i1 %84, i32 %92, i32 %90, !dbg !7388
  %94 = call noundef nonnull align 4 dereferenceable(4) ptr @_ZNSt3__h24__put_character_sequenceIcNS_11char_traitsIcEEEERNS_13basic_ostreamIT_T0_EES7_PKS4_j(ptr noundef nonnull align 4 dereferenceable(4) %6, ptr noundef %88, i32 noundef %93), !dbg !7389
  call void @llvm.dbg.value(metadata ptr %94, metadata !7390, metadata !DIExpression()), !dbg !7400
  call void @llvm.dbg.value(metadata !933, metadata !7399, metadata !DIExpression()), !dbg !7400
  call void @llvm.dbg.value(metadata ptr %94, metadata !7402, metadata !DIExpression()), !dbg !7405
  %95 = load ptr, ptr %94, align 4, !dbg !7407
  %96 = getelementptr i8, ptr %95, i32 -12, !dbg !7407
  %97 = load i32, ptr %96, align 4, !dbg !7407
  %98 = getelementptr inbounds i8, ptr %94, i32 %97, !dbg !7407
  call void @llvm.dbg.value(metadata ptr %98, metadata !7281, metadata !DIExpression()), !dbg !7408
  call void @llvm.dbg.value(metadata i8 10, metadata !7290, metadata !DIExpression()), !dbg !7408
  call void @llvm.lifetime.start.p0(i64 4, ptr nonnull %3) #18, !dbg !7410
  call void @_ZNKSt3__h8ios_base6getlocEv(ptr nonnull sret(%"class.std::__h::locale") align 4 %3, ptr noundef nonnull align 4 dereferenceable(72) %98) #18, !dbg !7410
  call void @llvm.dbg.value(metadata ptr %3, metadata !7295, metadata !DIExpression()), !dbg !7411
  %99 = call noundef ptr @_ZNKSt3__h6locale9use_facetERNS0_2idE(ptr noundef nonnull align 4 dereferenceable(4) %3, ptr noundef nonnull align 4 dereferenceable(8) @_ZNSt3__h5ctypeIcE2idE) #18, !dbg !7413
  call void @llvm.dbg.value(metadata ptr %99, metadata !7308, metadata !DIExpression()), !dbg !7414
  call void @llvm.dbg.value(metadata i8 10, metadata !7316, metadata !DIExpression()), !dbg !7414
  %100 = load ptr, ptr %99, align 4, !dbg !7416
  %101 = getelementptr inbounds ptr, ptr %100, i32 7, !dbg !7416
  %102 = load ptr, ptr %101, align 4, !dbg !7416
  %103 = call noundef zeroext i8 %102(ptr noundef nonnull align 4 dereferenceable(13) %99, i8 noundef zeroext 10) #18, !dbg !7416
  %104 = call noundef ptr @_ZNSt3__h6localeD1Ev(ptr noundef nonnull align 4 dereferenceable(4) %3) #18, !dbg !7417
  call void @llvm.lifetime.end.p0(i64 4, ptr nonnull %3) #18, !dbg !7417
  %105 = call noundef nonnull align 4 dereferenceable(4) ptr @_ZNSt3__h13basic_ostreamIcNS_11char_traitsIcEEE3putEc(ptr noundef nonnull align 4 dereferenceable(4) %94, i8 noundef zeroext %103) #18, !dbg !7418
  %106 = call noundef nonnull align 4 dereferenceable(4) ptr @_ZNSt3__h13basic_ostreamIcNS_11char_traitsIcEEE5flushEv(ptr noundef nonnull align 4 dereferenceable(4) %94) #18, !dbg !7419
  %107 = call noundef nonnull align 4 dereferenceable(4) ptr @_ZNSt3__h13basic_ostreamIcNS_11char_traitsIcEEElsEi(ptr noundef nonnull align 4 dereferenceable(4) %6, i32 noundef %0) #18, !dbg !7420
  call void @llvm.dbg.value(metadata ptr %107, metadata !7390, metadata !DIExpression()), !dbg !7421
  call void @llvm.dbg.value(metadata !933, metadata !7399, metadata !DIExpression()), !dbg !7421
  call void @llvm.dbg.value(metadata ptr %107, metadata !7402, metadata !DIExpression()), !dbg !7423
  %108 = load ptr, ptr %107, align 4, !dbg !7425
  %109 = getelementptr i8, ptr %108, i32 -12, !dbg !7425
  %110 = load i32, ptr %109, align 4, !dbg !7425
  %111 = getelementptr inbounds i8, ptr %107, i32 %110, !dbg !7425
  call void @llvm.dbg.value(metadata ptr %111, metadata !7281, metadata !DIExpression()), !dbg !7426
  call void @llvm.dbg.value(metadata i8 10, metadata !7290, metadata !DIExpression()), !dbg !7426
  call void @llvm.lifetime.start.p0(i64 4, ptr nonnull %2) #18, !dbg !7428
  call void @_ZNKSt3__h8ios_base6getlocEv(ptr nonnull sret(%"class.std::__h::locale") align 4 %2, ptr noundef nonnull align 4 dereferenceable(72) %111) #18, !dbg !7428
  call void @llvm.dbg.value(metadata ptr %2, metadata !7295, metadata !DIExpression()), !dbg !7429
  %112 = call noundef ptr @_ZNKSt3__h6locale9use_facetERNS0_2idE(ptr noundef nonnull align 4 dereferenceable(4) %2, ptr noundef nonnull align 4 dereferenceable(8) @_ZNSt3__h5ctypeIcE2idE) #18, !dbg !7431
  call void @llvm.dbg.value(metadata ptr %112, metadata !7308, metadata !DIExpression()), !dbg !7432
  call void @llvm.dbg.value(metadata i8 10, metadata !7316, metadata !DIExpression()), !dbg !7432
  %113 = load ptr, ptr %112, align 4, !dbg !7434
  %114 = getelementptr inbounds ptr, ptr %113, i32 7, !dbg !7434
  %115 = load ptr, ptr %114, align 4, !dbg !7434
  %116 = call noundef zeroext i8 %115(ptr noundef nonnull align 4 dereferenceable(13) %112, i8 noundef zeroext 10) #18, !dbg !7434
  %117 = call noundef ptr @_ZNSt3__h6localeD1Ev(ptr noundef nonnull align 4 dereferenceable(4) %2) #18, !dbg !7435
  call void @llvm.lifetime.end.p0(i64 4, ptr nonnull %2) #18, !dbg !7435
  %118 = call noundef nonnull align 4 dereferenceable(4) ptr @_ZNSt3__h13basic_ostreamIcNS_11char_traitsIcEEE3putEc(ptr noundef nonnull align 4 dereferenceable(4) %107, i8 noundef zeroext %116) #18, !dbg !7436
  %119 = call noundef nonnull align 4 dereferenceable(4) ptr @_ZNSt3__h13basic_ostreamIcNS_11char_traitsIcEEE5flushEv(ptr noundef nonnull align 4 dereferenceable(4) %107) #18, !dbg !7437
  br label %120, !dbg !7438

120:                                              ; preds = %81, %61, %55
  call void @llvm.dbg.value(metadata ptr %7, metadata !7439, metadata !DIExpression()), !dbg !7442
  call void @llvm.dbg.value(metadata ptr %7, metadata !7373, metadata !DIExpression()), !dbg !7444
  %121 = load i8, ptr %7, align 4, !dbg !7448
  %122 = and i8 %121, 1, !dbg !7448
  %123 = icmp eq i8 %122, 0, !dbg !7449
  br i1 %123, label %127, label %124, !dbg !7450

124:                                              ; preds = %120
  call void @llvm.dbg.value(metadata ptr %7, metadata !7451, metadata !DIExpression()), !dbg !7454
  %125 = getelementptr inbounds %"struct.std::__h::basic_string<char>::__long", ptr %7, i32 0, i32 2, !dbg !7456
  %126 = load ptr, ptr %125, align 4, !dbg !7456
  call void @llvm.dbg.value(metadata ptr %7, metadata !7457, metadata !DIExpression()), !dbg !7462
  call void @llvm.dbg.value(metadata ptr %126, metadata !7460, metadata !DIExpression()), !dbg !7462
  call void @llvm.dbg.value(metadata i32 undef, metadata !7461, metadata !DIExpression(DW_OP_constu, 18446744073709551614, DW_OP_and, DW_OP_stack_value)), !dbg !7462
  call void @llvm.dbg.value(metadata ptr %7, metadata !7464, metadata !DIExpression()), !dbg !7470
  call void @llvm.dbg.value(metadata ptr %126, metadata !7467, metadata !DIExpression()), !dbg !7470
  call void @llvm.dbg.value(metadata i32 undef, metadata !7468, metadata !DIExpression(DW_OP_constu, 18446744073709551614, DW_OP_and, DW_OP_stack_value)), !dbg !7470
  call void @llvm.dbg.value(metadata ptr %126, metadata !7472, metadata !DIExpression()), !dbg !7483
  call void @llvm.dbg.value(metadata i32 undef, metadata !7477, metadata !DIExpression(DW_OP_constu, 18446744073709551614, DW_OP_and, DW_OP_stack_value)), !dbg !7483
  call void @llvm.dbg.value(metadata i32 1, metadata !7478, metadata !DIExpression()), !dbg !7483
  call void @llvm.dbg.value(metadata ptr %126, metadata !7487, metadata !DIExpression()), !dbg !7495
  call void @llvm.dbg.value(metadata i32 undef, metadata !7492, metadata !DIExpression(DW_OP_constu, 18446744073709551614, DW_OP_and, DW_OP_stack_value)), !dbg !7495
  call void @llvm.dbg.value(metadata ptr %126, metadata !7498, metadata !DIExpression()), !dbg !7505
  call void @_ZdlPv(ptr noundef %126) #19, !dbg !7507
  br label %127, !dbg !7508

127:                                              ; preds = %124, %120
  call void @llvm.lifetime.end.p0(i64 12, ptr nonnull %7) #18, !dbg !7509
  call void @llvm.dbg.value(metadata ptr %6, metadata !7510, metadata !DIExpression()), !dbg !7514
  call void @llvm.dbg.value(metadata ptr %6, metadata !7516, metadata !DIExpression()), !dbg !7520
  call void @llvm.dbg.value(metadata ptr @_ZTTNSt3__h14basic_ofstreamIcNS_11char_traitsIcEEEE, metadata !7519, metadata !DIExpression()), !dbg !7520
  store ptr getelementptr inbounds ({ [5 x ptr], [5 x ptr] }, ptr @_ZTVNSt3__h14basic_ofstreamIcNS_11char_traitsIcEEEE, i32 0, inrange i32 0, i32 3), ptr %6, align 4, !dbg !7522
  store ptr getelementptr inbounds ({ [5 x ptr], [5 x ptr] }, ptr @_ZTVNSt3__h14basic_ofstreamIcNS_11char_traitsIcEEEE, i32 0, inrange i32 1, i32 3), ptr %33, align 4, !dbg !7522
  %128 = call noundef ptr @_ZNSt3__h13basic_filebufIcNS_11char_traitsIcEEED2Ev(ptr noundef nonnull align 4 dereferenceable(99) %34) #18, !dbg !7523
  %129 = call noundef ptr @_ZNSt3__h13basic_ostreamIcNS_11char_traitsIcEEED2Ev(ptr noundef nonnull align 4 dereferenceable(4) %6, ptr noundef nonnull getelementptr inbounds ([4 x ptr], ptr @_ZTTNSt3__h14basic_ofstreamIcNS_11char_traitsIcEEEE, i32 0, i32 1)) #18, !dbg !7523
  %130 = call noundef ptr @_ZNSt3__h9basic_iosIcNS_11char_traitsIcEEED2Ev(ptr noundef nonnull align 4 dereferenceable(80) %33) #18, !dbg !7525
  call void @llvm.lifetime.end.p0(i64 184, ptr nonnull %6) #18, !dbg !7509
  call void @llvm.dbg.value(metadata ptr %5, metadata !7526, metadata !DIExpression()), !dbg !7530
  call void @llvm.dbg.value(metadata ptr %5, metadata !7532, metadata !DIExpression()), !dbg !7536
  call void @llvm.dbg.value(metadata ptr @_ZTTNSt3__h14basic_ifstreamIcNS_11char_traitsIcEEEE, metadata !7535, metadata !DIExpression()), !dbg !7536
  store ptr getelementptr inbounds ({ [5 x ptr], [5 x ptr] }, ptr @_ZTVNSt3__h14basic_ifstreamIcNS_11char_traitsIcEEEE, i32 0, inrange i32 0, i32 3), ptr %5, align 4, !dbg !7538
  store ptr getelementptr inbounds ({ [5 x ptr], [5 x ptr] }, ptr @_ZTVNSt3__h14basic_ifstreamIcNS_11char_traitsIcEEEE, i32 0, inrange i32 1, i32 3), ptr %9, align 4, !dbg !7538
  %131 = call noundef ptr @_ZNSt3__h13basic_filebufIcNS_11char_traitsIcEEED2Ev(ptr noundef nonnull align 4 dereferenceable(99) %10) #18, !dbg !7539
  %132 = call noundef ptr @_ZNSt3__h13basic_istreamIcNS_11char_traitsIcEEED2Ev(ptr noundef nonnull align 4 dereferenceable(8) %5, ptr noundef nonnull getelementptr inbounds ([4 x ptr], ptr @_ZTTNSt3__h14basic_ifstreamIcNS_11char_traitsIcEEEE, i32 0, i32 1)) #18, !dbg !7539
  %133 = call noundef ptr @_ZNSt3__h9basic_iosIcNS_11char_traitsIcEEED2Ev(ptr noundef nonnull align 4 dereferenceable(80) %9) #18, !dbg !7541
  call void @llvm.lifetime.end.p0(i64 188, ptr nonnull %5) #18, !dbg !7509
  ret i32 0, !dbg !7509
}

; Function Attrs: nocallback nofree nosync nounwind readnone speculatable willreturn
declare void @llvm.dbg.value(metadata, metadata, metadata) #1

; Function Attrs: argmemonly nocallback nofree nosync nounwind willreturn
declare void @llvm.lifetime.start.p0(i64 immarg, ptr nocapture) #2

; Function Attrs: nocallback nofree nosync nounwind readnone speculatable willreturn
declare void @llvm.dbg.declare(metadata, metadata, metadata) #1

; Function Attrs: argmemonly nocallback nofree nounwind willreturn writeonly
declare void @llvm.memset.p0.i32(ptr nocapture writeonly, i8, i32, i1 immarg) #3

declare void @_ZNSt3__h8ios_base4initEPv(ptr noundef nonnull align 4 dereferenceable(72), ptr noundef) local_unnamed_addr #4

; Function Attrs: nounwind sspstrong uwtable(sync)
define linkonce_odr noundef ptr @_ZNSt3__h13basic_filebufIcNS_11char_traitsIcEEEC2Ev(ptr noundef nonnull returned align 4 dereferenceable(99) %0) unnamed_addr #0 comdat align 2 !dbg !7542 {
  %2 = alloca %"class.std::__h::locale", align 4
  %3 = alloca %"class.std::__h::locale", align 4
  call void @llvm.dbg.value(metadata ptr %0, metadata !7544, metadata !DIExpression()), !dbg !7545
  %4 = tail call noundef ptr @_ZNSt3__h15basic_streambufIcNS_11char_traitsIcEEEC2Ev(ptr noundef nonnull align 4 dereferenceable(32) %0) #18, !dbg !7546
  store ptr getelementptr inbounds ({ [16 x ptr] }, ptr @_ZTVNSt3__h13basic_filebufIcNS_11char_traitsIcEEEE, i32 0, inrange i32 0, i32 2), ptr %0, align 4, !dbg !7547
  %5 = getelementptr inbounds %"class.std::__h::basic_filebuf", ptr %0, i32 0, i32 1, !dbg !7548
  store ptr null, ptr %5, align 4, !dbg !7548
  %6 = getelementptr inbounds %"class.std::__h::basic_filebuf", ptr %0, i32 0, i32 2, !dbg !7549
  store ptr null, ptr %6, align 4, !dbg !7549
  %7 = getelementptr inbounds %"class.std::__h::basic_filebuf", ptr %0, i32 0, i32 3, !dbg !7550
  store ptr null, ptr %7, align 4, !dbg !7550
  %8 = getelementptr inbounds %"class.std::__h::basic_filebuf", ptr %0, i32 0, i32 5, !dbg !7551
  call void @llvm.memset.p0.i64(ptr noundef nonnull align 4 dereferenceable(47) %8, i8 0, i64 47, i1 false), !dbg !7551
  call void @llvm.lifetime.start.p0(i64 4, ptr nonnull %2) #18, !dbg !7552
  call void @llvm.dbg.value(metadata ptr %0, metadata !7555, metadata !DIExpression()), !dbg !7564
  %9 = getelementptr inbounds %"class.std::__h::basic_streambuf", ptr %0, i32 0, i32 1, !dbg !7566
  %10 = call noundef ptr @_ZNSt3__h6localeC1ERKS0_(ptr noundef nonnull align 4 dereferenceable(4) %2, ptr noundef nonnull align 4 dereferenceable(4) %9) #18, !dbg !7566
  call void @llvm.dbg.value(metadata ptr %2, metadata !7567, metadata !DIExpression()), !dbg !7574
  %11 = call noundef zeroext i1 @_ZNKSt3__h6locale9has_facetERNS0_2idE(ptr noundef nonnull align 4 dereferenceable(4) %2, ptr noundef nonnull align 4 dereferenceable(8) @_ZNSt3__h7codecvtIcc11__mbstate_tE2idE) #18, !dbg !7576
  %12 = call noundef ptr @_ZNSt3__h6localeD1Ev(ptr noundef nonnull align 4 dereferenceable(4) %2) #18, !dbg !7577
  call void @llvm.lifetime.end.p0(i64 4, ptr nonnull %2) #18, !dbg !7577
  br i1 %11, label %13, label %25, !dbg !7578

13:                                               ; preds = %1
  %14 = getelementptr inbounds %"class.std::__h::basic_filebuf", ptr %0, i32 0, i32 16, !dbg !7579
  %15 = getelementptr inbounds %"class.std::__h::basic_filebuf", ptr %0, i32 0, i32 9, !dbg !7580
  call void @llvm.lifetime.start.p0(i64 4, ptr nonnull %3) #18, !dbg !7581
  call void @llvm.dbg.value(metadata ptr %0, metadata !7555, metadata !DIExpression()), !dbg !7583
  %16 = call noundef ptr @_ZNSt3__h6localeC1ERKS0_(ptr noundef nonnull align 4 dereferenceable(4) %3, ptr noundef nonnull align 4 dereferenceable(4) %9) #18, !dbg !7585
  call void @llvm.dbg.value(metadata ptr %3, metadata !7586, metadata !DIExpression()), !dbg !7592
  %17 = call noundef ptr @_ZNKSt3__h6locale9use_facetERNS0_2idE(ptr noundef nonnull align 4 dereferenceable(4) %3, ptr noundef nonnull align 4 dereferenceable(8) @_ZNSt3__h7codecvtIcc11__mbstate_tE2idE) #18, !dbg !7594
  store ptr %17, ptr %15, align 4, !dbg !7595
  %18 = call noundef ptr @_ZNSt3__h6localeD1Ev(ptr noundef nonnull align 4 dereferenceable(4) %3) #18, !dbg !7596
  call void @llvm.lifetime.end.p0(i64 4, ptr nonnull %3) #18, !dbg !7596
  %19 = load ptr, ptr %15, align 4, !dbg !7597
  call void @llvm.dbg.value(metadata ptr %19, metadata !7598, metadata !DIExpression()), !dbg !7605
  %20 = load ptr, ptr %19, align 4, !dbg !7607
  %21 = getelementptr inbounds ptr, ptr %20, i32 7, !dbg !7607
  %22 = load ptr, ptr %21, align 4, !dbg !7607
  %23 = call noundef zeroext i1 %22(ptr noundef nonnull align 4 dereferenceable(8) %19) #18, !dbg !7607
  %24 = zext i1 %23 to i8, !dbg !7608
  store i8 %24, ptr %14, align 2, !dbg !7608
  br label %25, !dbg !7609

25:                                               ; preds = %13, %1
  %26 = load ptr, ptr %0, align 4, !dbg !7610
  %27 = getelementptr inbounds ptr, ptr %26, i32 3, !dbg !7610
  %28 = load ptr, ptr %27, align 4, !dbg !7610
  %29 = call noundef ptr %28(ptr noundef nonnull align 4 dereferenceable(99) %0, ptr noundef null, i32 noundef 4096) #18, !dbg !7610
  ret ptr %0, !dbg !7611
}

; Function Attrs: nofree nounwind
declare noalias noundef ptr @fopen(ptr nocapture noundef readonly, ptr nocapture noundef readonly) local_unnamed_addr #5

declare void @_ZNSt3__h8ios_base5clearEj(ptr noundef nonnull align 4 dereferenceable(72), i32 noundef) local_unnamed_addr #4

; Function Attrs: argmemonly nocallback nofree nounwind willreturn writeonly
declare void @llvm.memset.p0.i64(ptr nocapture writeonly, i8, i64, i1 immarg) #3

declare void @_ZNKSt3__h8ios_base6getlocEv(ptr sret(%"class.std::__h::locale") align 4, ptr noundef nonnull align 4 dereferenceable(72)) local_unnamed_addr #4

declare noundef ptr @_ZNKSt3__h6locale9use_facetERNS0_2idE(ptr noundef nonnull align 4 dereferenceable(4), ptr noundef nonnull align 4 dereferenceable(8)) local_unnamed_addr #4

; Function Attrs: nounwind
declare noundef ptr @_ZNSt3__h6localeD1Ev(ptr noundef nonnull returned align 4 dereferenceable(4)) unnamed_addr #6

; Function Attrs: argmemonly nocallback nofree nosync nounwind willreturn
declare void @llvm.lifetime.end.p0(i64 immarg, ptr nocapture) #2

; Function Attrs: mustprogress nounwind sspstrong uwtable(sync)
define linkonce_odr noundef nonnull align 4 dereferenceable(8) ptr @_ZNSt3__h7getlineIcNS_11char_traitsIcEENS_9allocatorIcEEEERNS_13basic_istreamIT_T0_EES9_RNS_12basic_stringIS6_S7_T1_EES6_(ptr noundef nonnull align 4 dereferenceable(8) %0, ptr noundef nonnull align 4 dereferenceable(12) %1, i8 noundef zeroext %2) local_unnamed_addr #7 comdat !dbg !7612 {
  %4 = alloca %struct.anon.0, align 1
  call void @llvm.dbg.value(metadata ptr %0, metadata !7616, metadata !DIExpression()), !dbg !7628
  call void @llvm.dbg.value(metadata ptr %1, metadata !7617, metadata !DIExpression()), !dbg !7628
  call void @llvm.dbg.value(metadata i8 %2, metadata !7618, metadata !DIExpression()), !dbg !7628
  call void @llvm.dbg.value(metadata i32 0, metadata !7619, metadata !DIExpression()), !dbg !7628
  call void @llvm.dbg.value(metadata i32 0, metadata !7619, metadata !DIExpression()), !dbg !7628
  call void @llvm.lifetime.start.p0(i64 1, ptr nonnull %4) #18, !dbg !7629
  call void @llvm.dbg.declare(metadata ptr %4, metadata !7620, metadata !DIExpression()), !dbg !7630
  store i8 0, ptr %4, align 1, !dbg !7630, !annotation !7070
  %5 = call noundef ptr @_ZNSt3__h13basic_istreamIcNS_11char_traitsIcEEE6sentryC1ERS3_b(ptr noundef nonnull align 1 dereferenceable(1) %4, ptr noundef nonnull align 4 dereferenceable(8) %0, i1 noundef zeroext true) #18, !dbg !7630
  call void @llvm.dbg.value(metadata ptr %4, metadata !7631, metadata !DIExpression()), !dbg !7640
  %6 = load i8, ptr %4, align 1, !dbg !7642, !range !7643
  %7 = icmp eq i8 %6, 0, !dbg !7642
  br i1 %7, label %67, label %8, !dbg !7644

8:                                                ; preds = %3
  call void @llvm.dbg.value(metadata ptr %1, metadata !7645, metadata !DIExpression()), !dbg !7648
  call void @llvm.dbg.value(metadata ptr %1, metadata !7373, metadata !DIExpression()), !dbg !7650
  %9 = load i8, ptr %1, align 4, !dbg !7653
  %10 = and i8 %9, 1, !dbg !7653
  %11 = icmp eq i8 %10, 0, !dbg !7654
  br i1 %11, label %16, label %12, !dbg !7655

12:                                               ; preds = %8
  call void @llvm.dbg.value(metadata ptr %1, metadata !7451, metadata !DIExpression()), !dbg !7656
  %13 = getelementptr inbounds %"struct.std::__h::basic_string<char>::__long", ptr %1, i32 0, i32 2, !dbg !7659
  %14 = load ptr, ptr %13, align 4, !dbg !7659
  call void @llvm.dbg.value(metadata ptr %14, metadata !7660, metadata !DIExpression()), !dbg !7664
  call void @llvm.dbg.value(metadata ptr undef, metadata !7663, metadata !DIExpression()), !dbg !7664
  store i8 0, ptr %14, align 1, !dbg !7666
  call void @llvm.dbg.value(metadata ptr %1, metadata !7667, metadata !DIExpression()), !dbg !7671
  call void @llvm.dbg.value(metadata i32 0, metadata !7670, metadata !DIExpression()), !dbg !7671
  %15 = getelementptr inbounds %"struct.std::__h::basic_string<char>::__long", ptr %1, i32 0, i32 1, !dbg !7673
  store i32 0, ptr %15, align 4, !dbg !7674
  br label %18, !dbg !7675

16:                                               ; preds = %8
  call void @llvm.dbg.value(metadata ptr %1, metadata !7676, metadata !DIExpression()), !dbg !7679
  %17 = getelementptr inbounds %"struct.std::__h::basic_string<char>::__short", ptr %1, i32 0, i32 2, !dbg !7682
  call void @llvm.dbg.value(metadata ptr %17, metadata !7660, metadata !DIExpression()), !dbg !7683
  call void @llvm.dbg.value(metadata ptr undef, metadata !7663, metadata !DIExpression()), !dbg !7683
  store i8 0, ptr %17, align 1, !dbg !7685
  call void @llvm.dbg.value(metadata ptr %1, metadata !7686, metadata !DIExpression()), !dbg !7690
  call void @llvm.dbg.value(metadata i32 0, metadata !7689, metadata !DIExpression()), !dbg !7690
  store i8 0, ptr %1, align 4, !dbg !7692
  br label %18

18:                                               ; preds = %16, %12
  call void @llvm.dbg.value(metadata i32 0, metadata !7622, metadata !DIExpression()), !dbg !7693
  call void @llvm.dbg.value(metadata i32 0, metadata !7622, metadata !DIExpression()), !dbg !7693
  %19 = getelementptr inbounds %"struct.std::__h::basic_string<char>::__long", ptr %1, i32 0, i32 1
  br label %20, !dbg !7694

20:                                               ; preds = %47, %18
  %21 = phi i32 [ 0, %18 ], [ %48, %47 ], !dbg !7695
  call void @llvm.dbg.value(metadata i32 %21, metadata !7622, metadata !DIExpression()), !dbg !7693
  call void @llvm.dbg.value(metadata i32 0, metadata !7619, metadata !DIExpression()), !dbg !7628
  call void @llvm.dbg.value(metadata i32 0, metadata !7625, metadata !DIExpression()), !dbg !7696
  %22 = load ptr, ptr %0, align 4, !dbg !7697
  %23 = getelementptr i8, ptr %22, i32 -12, !dbg !7697
  %24 = load i32, ptr %23, align 4, !dbg !7697
  %25 = getelementptr inbounds i8, ptr %0, i32 %24, !dbg !7697
  call void @llvm.dbg.value(metadata ptr %25, metadata !7698, metadata !DIExpression()), !dbg !7704
  call void @llvm.dbg.value(metadata ptr %25, metadata !7706, metadata !DIExpression()), !dbg !7712
  %26 = getelementptr inbounds %"class.std::__h::ios_base", ptr %25, i32 0, i32 6, !dbg !7714
  %27 = load ptr, ptr %26, align 4, !dbg !7714
  call void @llvm.dbg.value(metadata ptr %27, metadata !7715, metadata !DIExpression()), !dbg !7723
  %28 = getelementptr inbounds %"class.std::__h::basic_streambuf", ptr %27, i32 0, i32 3, !dbg !7725
  %29 = load ptr, ptr %28, align 4, !dbg !7725
  %30 = getelementptr inbounds %"class.std::__h::basic_streambuf", ptr %27, i32 0, i32 4, !dbg !7727
  %31 = load ptr, ptr %30, align 4, !dbg !7727
  %32 = icmp eq ptr %29, %31, !dbg !7728
  br i1 %32, label %37, label %33, !dbg !7729

33:                                               ; preds = %20
  %34 = getelementptr inbounds i8, ptr %29, i32 1, !dbg !7730
  store ptr %34, ptr %28, align 4, !dbg !7730
  %35 = load i8, ptr %29, align 1, !dbg !7731
  call void @llvm.dbg.value(metadata i8 %35, metadata !7732, metadata !DIExpression()), !dbg !7735
  %36 = zext i8 %35 to i32, !dbg !7737
  call void @llvm.dbg.value(metadata i32 %41, metadata !7625, metadata !DIExpression()), !dbg !7696
  call void @llvm.dbg.value(metadata i32 %41, metadata !7738, metadata !DIExpression()), !dbg !7742
  call void @llvm.dbg.value(metadata i32 -1, metadata !7741, metadata !DIExpression()), !dbg !7742
  br label %43, !dbg !7745

37:                                               ; preds = %20
  %38 = load ptr, ptr %27, align 4, !dbg !7746
  %39 = getelementptr inbounds ptr, ptr %38, i32 10, !dbg !7746
  %40 = load ptr, ptr %39, align 4, !dbg !7746
  %41 = call noundef i32 %40(ptr noundef nonnull align 4 dereferenceable(32) %27) #18, !dbg !7746
  call void @llvm.dbg.value(metadata i32 %41, metadata !7625, metadata !DIExpression()), !dbg !7696
  call void @llvm.dbg.value(metadata i32 %41, metadata !7738, metadata !DIExpression()), !dbg !7742
  call void @llvm.dbg.value(metadata i32 -1, metadata !7741, metadata !DIExpression()), !dbg !7742
  %42 = icmp eq i32 %41, -1, !dbg !7747
  br i1 %42, label %55, label %43, !dbg !7745

43:                                               ; preds = %37, %33
  %44 = phi i32 [ %36, %33 ], [ %41, %37 ]
  call void @llvm.dbg.value(metadata i32 %21, metadata !7622, metadata !DIExpression(DW_OP_plus_uconst, 1, DW_OP_stack_value)), !dbg !7693
  call void @llvm.dbg.value(metadata i8 0, metadata !7627, metadata !DIExpression()), !dbg !7696
  call void @llvm.dbg.value(metadata i32 %41, metadata !7748, metadata !DIExpression()), !dbg !7751
  %45 = trunc i32 %44 to i8, !dbg !7753
  call void @llvm.dbg.value(metadata i8 %45, metadata !7627, metadata !DIExpression()), !dbg !7696
  call void @llvm.dbg.value(metadata i8 %45, metadata !7754, metadata !DIExpression()), !dbg !7758
  call void @llvm.dbg.value(metadata i8 %2, metadata !7757, metadata !DIExpression()), !dbg !7758
  %46 = icmp eq i8 %45, %2, !dbg !7761
  br i1 %46, label %58, label %47, !dbg !7762

47:                                               ; preds = %43
  %48 = add i32 %21, 1, !dbg !7763
  call void @llvm.dbg.value(metadata i32 %48, metadata !7622, metadata !DIExpression()), !dbg !7693
  call void @_ZNSt3__h12basic_stringIcNS_11char_traitsIcEENS_9allocatorIcEEE9push_backEc(ptr noundef nonnull align 4 dereferenceable(12) %1, i8 noundef zeroext %45) #18, !dbg !7764
  call void @llvm.dbg.value(metadata ptr %1, metadata !7381, metadata !DIExpression()), !dbg !7765
  call void @llvm.dbg.value(metadata ptr %1, metadata !7373, metadata !DIExpression()), !dbg !7768
  %49 = load i8, ptr %1, align 4, !dbg !7770
  %50 = and i8 %49, 1, !dbg !7770
  %51 = icmp ne i8 %50, 0, !dbg !7771
  %52 = load i32, ptr %19, align 4, !dbg !7772
  %53 = icmp eq i32 %52, -17, !dbg !7773
  %54 = select i1 %51, i1 %53, i1 false, !dbg !7773
  br i1 %54, label %58, label %20, !dbg !7774

55:                                               ; preds = %37
  call void @llvm.dbg.value(metadata i32 %21, metadata !7622, metadata !DIExpression(DW_OP_plus_uconst, 1, DW_OP_stack_value)), !dbg !7693
  call void @llvm.dbg.value(metadata i32 0, metadata !7619, metadata !DIExpression()), !dbg !7628
  %56 = icmp eq i32 %21, 0, !dbg !7775
  %57 = select i1 %56, i32 6, i32 2, !dbg !7777
  br label %58, !dbg !7777

58:                                               ; preds = %55, %47, %43
  %59 = phi i32 [ %57, %55 ], [ 0, %43 ], [ 4, %47 ]
  call void @llvm.dbg.value(metadata i32 %59, metadata !7619, metadata !DIExpression()), !dbg !7628
  %60 = load ptr, ptr %0, align 4, !dbg !7778
  %61 = getelementptr i8, ptr %60, i32 -12, !dbg !7778
  %62 = load i32, ptr %61, align 4, !dbg !7778
  %63 = getelementptr inbounds i8, ptr %0, i32 %62, !dbg !7778
  call void @llvm.dbg.value(metadata ptr %63, metadata !7143, metadata !DIExpression()), !dbg !7779
  call void @llvm.dbg.value(metadata i32 %59, metadata !7150, metadata !DIExpression()), !dbg !7779
  call void @llvm.dbg.value(metadata ptr %63, metadata !7153, metadata !DIExpression()), !dbg !7781
  call void @llvm.dbg.value(metadata i32 %59, metadata !7160, metadata !DIExpression()), !dbg !7781
  %64 = getelementptr inbounds %"class.std::__h::ios_base", ptr %63, i32 0, i32 4, !dbg !7783
  %65 = load i32, ptr %64, align 4, !dbg !7783
  %66 = or i32 %65, %59, !dbg !7784
  call void @_ZNSt3__h8ios_base5clearEj(ptr noundef nonnull align 4 dereferenceable(72) %63, i32 noundef %66) #18, !dbg !7785
  br label %67, !dbg !7786

67:                                               ; preds = %58, %3
  call void @llvm.lifetime.end.p0(i64 1, ptr nonnull %4) #18, !dbg !7787
  ret ptr %0, !dbg !7788
}

; Function Attrs: nounwind sspstrong uwtable(sync)
define linkonce_odr noundef nonnull align 4 dereferenceable(4) ptr @_ZNSt3__h24__put_character_sequenceIcNS_11char_traitsIcEEEERNS_13basic_ostreamIT_T0_EES7_PKS4_j(ptr noundef nonnull align 4 dereferenceable(4) %0, ptr noundef %1, i32 noundef %2) local_unnamed_addr #0 comdat !dbg !1940 {
  %4 = alloca %"class.std::__h::locale", align 4
  %5 = alloca %"class.std::__h::basic_ostream<char>::sentry", align 8
  call void @llvm.dbg.value(metadata ptr %0, metadata !1946, metadata !DIExpression()), !dbg !7789
  call void @llvm.dbg.value(metadata ptr %1, metadata !1947, metadata !DIExpression()), !dbg !7789
  call void @llvm.dbg.value(metadata i32 %2, metadata !1948, metadata !DIExpression()), !dbg !7789
  call void @llvm.lifetime.start.p0(i64 8, ptr nonnull %5) #18, !dbg !7790
  call void @llvm.dbg.declare(metadata ptr %5, metadata !1949, metadata !DIExpression()), !dbg !7791
  store i64 0, ptr %5, align 8, !dbg !7791, !annotation !7070
  %6 = call noundef ptr @_ZNSt3__h13basic_ostreamIcNS_11char_traitsIcEEE6sentryC1ERS3_(ptr noundef nonnull align 4 dereferenceable(8) %5, ptr noundef nonnull align 4 dereferenceable(4) %0) #18, !dbg !7791
  call void @llvm.dbg.value(metadata ptr %5, metadata !7792, metadata !DIExpression()), !dbg !7801
  %7 = load i8, ptr %5, align 8, !dbg !7804, !range !7643
  %8 = icmp eq i8 %7, 0, !dbg !7804
  br i1 %8, label %48, label %9, !dbg !7805

9:                                                ; preds = %3
  call void @llvm.dbg.value(metadata ptr undef, metadata !7806, metadata !DIExpression()), !dbg !7811
  call void @llvm.dbg.value(metadata ptr %0, metadata !7809, metadata !DIExpression()), !dbg !7811
  %10 = load ptr, ptr %0, align 4, !dbg !7815
  %11 = getelementptr i8, ptr %10, i32 -12, !dbg !7815
  %12 = load i32, ptr %11, align 4, !dbg !7815
  %13 = getelementptr inbounds i8, ptr %0, i32 %12, !dbg !7815
  call void @llvm.dbg.value(metadata ptr %13, metadata !7698, metadata !DIExpression()), !dbg !7816
  call void @llvm.dbg.value(metadata ptr %13, metadata !7706, metadata !DIExpression()), !dbg !7818
  %14 = getelementptr inbounds %"class.std::__h::ios_base", ptr %13, i32 0, i32 6, !dbg !7820
  %15 = load ptr, ptr %14, align 4, !dbg !7820
  call void @llvm.dbg.value(metadata ptr %13, metadata !7821, metadata !DIExpression()), !dbg !7828
  %16 = getelementptr inbounds %"class.std::__h::ios_base", ptr %13, i32 0, i32 1, !dbg !7830
  %17 = load i32, ptr %16, align 4, !dbg !7830
  %18 = and i32 %17, 176, !dbg !7831
  %19 = icmp eq i32 %18, 32, !dbg !7832
  %20 = getelementptr inbounds i8, ptr %1, i32 %2, !dbg !7833
  %21 = select i1 %19, ptr %20, ptr %1, !dbg !7833
  call void @llvm.dbg.value(metadata ptr %13, metadata !7834, metadata !DIExpression()), !dbg !7840
  %22 = getelementptr inbounds %"class.std::__h::basic_ios", ptr %13, i32 0, i32 2, !dbg !7842
  %23 = load i32, ptr %22, align 4, !dbg !7842
  call void @llvm.dbg.value(metadata i32 -1, metadata !7738, metadata !DIExpression()), !dbg !7844
  call void @llvm.dbg.value(metadata i32 %23, metadata !7741, metadata !DIExpression()), !dbg !7844
  %24 = icmp eq i32 %23, -1, !dbg !7846
  br i1 %24, label %25, label %33, !dbg !7847

25:                                               ; preds = %9
  call void @llvm.dbg.value(metadata ptr %13, metadata !7281, metadata !DIExpression()), !dbg !7848
  call void @llvm.dbg.value(metadata i8 32, metadata !7290, metadata !DIExpression()), !dbg !7848
  call void @llvm.lifetime.start.p0(i64 4, ptr nonnull %4) #18, !dbg !7850
  call void @_ZNKSt3__h8ios_base6getlocEv(ptr nonnull sret(%"class.std::__h::locale") align 4 %4, ptr noundef nonnull align 4 dereferenceable(72) %13) #18, !dbg !7850
  call void @llvm.dbg.value(metadata ptr %4, metadata !7295, metadata !DIExpression()), !dbg !7851
  %26 = call noundef ptr @_ZNKSt3__h6locale9use_facetERNS0_2idE(ptr noundef nonnull align 4 dereferenceable(4) %4, ptr noundef nonnull align 4 dereferenceable(8) @_ZNSt3__h5ctypeIcE2idE) #18, !dbg !7853
  call void @llvm.dbg.value(metadata ptr %26, metadata !7308, metadata !DIExpression()), !dbg !7854
  call void @llvm.dbg.value(metadata i8 32, metadata !7316, metadata !DIExpression()), !dbg !7854
  %27 = load ptr, ptr %26, align 4, !dbg !7856
  %28 = getelementptr inbounds ptr, ptr %27, i32 7, !dbg !7856
  %29 = load ptr, ptr %28, align 4, !dbg !7856
  %30 = call noundef zeroext i8 %29(ptr noundef nonnull align 4 dereferenceable(13) %26, i8 noundef zeroext 32) #18, !dbg !7856
  %31 = call noundef ptr @_ZNSt3__h6localeD1Ev(ptr noundef nonnull align 4 dereferenceable(4) %4) #18, !dbg !7857
  call void @llvm.lifetime.end.p0(i64 4, ptr nonnull %4) #18, !dbg !7857
  %32 = zext i8 %30 to i32, !dbg !7858
  store i32 %32, ptr %22, align 4, !dbg !7859
  br label %33, !dbg !7860

33:                                               ; preds = %25, %9
  %34 = phi i32 [ %32, %25 ], [ %23, %9 ], !dbg !7861
  %35 = trunc i32 %34 to i8, !dbg !7861
  %36 = ptrtoint ptr %15 to i32, !dbg !7862
  %37 = insertvalue [1 x i32] poison, i32 %36, 0, !dbg !7862
  %38 = call i32 @_ZNSt3__h16__pad_and_outputIcNS_11char_traitsIcEEEENS_19ostreambuf_iteratorIT_T0_EES6_PKS4_S8_S8_RNS_8ios_baseES4_([1 x i32] %37, ptr noundef %1, ptr noundef %21, ptr noundef %20, ptr noundef nonnull align 4 dereferenceable(72) %13, i8 noundef zeroext %35), !dbg !7862
  call void @llvm.dbg.value(metadata ptr undef, metadata !7863, metadata !DIExpression()), !dbg !7867
  %39 = icmp eq i32 %38, 0, !dbg !7869
  br i1 %39, label %40, label %48, !dbg !7870

40:                                               ; preds = %33
  %41 = load ptr, ptr %0, align 4, !dbg !7871
  %42 = getelementptr i8, ptr %41, i32 -12, !dbg !7871
  %43 = load i32, ptr %42, align 4, !dbg !7871
  %44 = getelementptr inbounds i8, ptr %0, i32 %43, !dbg !7871
  call void @llvm.dbg.value(metadata ptr %44, metadata !7143, metadata !DIExpression()), !dbg !7872
  call void @llvm.dbg.value(metadata i32 5, metadata !7150, metadata !DIExpression()), !dbg !7872
  call void @llvm.dbg.value(metadata ptr %44, metadata !7153, metadata !DIExpression()), !dbg !7874
  call void @llvm.dbg.value(metadata i32 5, metadata !7160, metadata !DIExpression()), !dbg !7874
  %45 = getelementptr inbounds %"class.std::__h::ios_base", ptr %44, i32 0, i32 4, !dbg !7876
  %46 = load i32, ptr %45, align 4, !dbg !7876
  %47 = or i32 %46, 5, !dbg !7877
  call void @_ZNSt3__h8ios_base5clearEj(ptr noundef nonnull align 4 dereferenceable(72) %44, i32 noundef %47) #18, !dbg !7878
  br label %48, !dbg !7871

48:                                               ; preds = %40, %33, %3
  %49 = call noundef ptr @_ZNSt3__h13basic_ostreamIcNS_11char_traitsIcEEE6sentryD1Ev(ptr noundef nonnull align 4 dereferenceable(8) %5) #18, !dbg !7879
  call void @llvm.lifetime.end.p0(i64 8, ptr nonnull %5) #18, !dbg !7879
  ret ptr %0, !dbg !7879
}

declare noundef nonnull align 4 dereferenceable(4) ptr @_ZNSt3__h13basic_ostreamIcNS_11char_traitsIcEEE3putEc(ptr noundef nonnull align 4 dereferenceable(4), i8 noundef zeroext) local_unnamed_addr #4

declare noundef nonnull align 4 dereferenceable(4) ptr @_ZNSt3__h13basic_ostreamIcNS_11char_traitsIcEEE5flushEv(ptr noundef nonnull align 4 dereferenceable(4)) local_unnamed_addr #4

declare noundef nonnull align 4 dereferenceable(4) ptr @_ZNSt3__h13basic_ostreamIcNS_11char_traitsIcEEElsEi(ptr noundef nonnull align 4 dereferenceable(4), i32 noundef) local_unnamed_addr #4

; Function Attrs: nobuiltin nounwind
declare void @_ZdlPv(ptr noundef) local_unnamed_addr #8

; Function Attrs: nounwind sspstrong uwtable(sync)
define linkonce_odr noundef ptr @_ZNSt3__h13basic_filebufIcNS_11char_traitsIcEEED2Ev(ptr noundef nonnull returned align 4 dereferenceable(99) %0) unnamed_addr #0 comdat align 2 !dbg !7880 {
  call void @llvm.dbg.value(metadata ptr %0, metadata !7882, metadata !DIExpression()), !dbg !7883
  store ptr getelementptr inbounds ({ [16 x ptr] }, ptr @_ZTVNSt3__h13basic_filebufIcNS_11char_traitsIcEEEE, i32 0, inrange i32 0, i32 2), ptr %0, align 4, !dbg !7884
  call void @llvm.dbg.value(metadata ptr %0, metadata !7885, metadata !DIExpression()), !dbg !7892
  call void @llvm.dbg.value(metadata ptr null, metadata !7888, metadata !DIExpression()), !dbg !7892
  call void @llvm.dbg.value(metadata ptr null, metadata !7888, metadata !DIExpression()), !dbg !7892
  %2 = getelementptr inbounds %"class.std::__h::basic_filebuf", ptr %0, i32 0, i32 8, !dbg !7895
  %3 = load ptr, ptr %2, align 4, !dbg !7895
  %4 = icmp eq ptr %3, null, !dbg !7895
  br i1 %4, label %12, label %5, !dbg !7896

5:                                                ; preds = %1
  call void @llvm.dbg.value(metadata ptr %0, metadata !7888, metadata !DIExpression()), !dbg !7892
  call void @llvm.dbg.value(metadata ptr %3, metadata !7889, metadata !DIExpression(DW_OP_LLVM_fragment, 0, 32)), !dbg !7897
  call void @llvm.dbg.value(metadata ptr @fclose, metadata !7889, metadata !DIExpression(DW_OP_LLVM_fragment, 32, 32)), !dbg !7897
  %6 = tail call noundef i32 @_ZNSt3__h13basic_filebufIcNS_11char_traitsIcEEE4syncEv(ptr noundef nonnull align 4 dereferenceable(99) %0) #18, !dbg !7898
  call void @llvm.dbg.value(metadata ptr undef, metadata !7888, metadata !DIExpression()), !dbg !7892
  call void @llvm.dbg.value(metadata ptr null, metadata !7889, metadata !DIExpression(DW_OP_LLVM_fragment, 0, 32)), !dbg !7897
  %7 = tail call i32 @fclose(ptr noundef nonnull %3), !dbg !7900
  call void @llvm.dbg.value(metadata ptr undef, metadata !7888, metadata !DIExpression()), !dbg !7892
  store ptr null, ptr %2, align 4, !dbg !7902
  %8 = load ptr, ptr %0, align 4, !dbg !7903
  %9 = getelementptr inbounds ptr, ptr %8, i32 3, !dbg !7903
  %10 = load ptr, ptr %9, align 4, !dbg !7903
  %11 = tail call noundef ptr %10(ptr noundef nonnull align 4 dereferenceable(99) %0, ptr noundef null, i32 noundef 0) #18, !dbg !7903
  br label %12, !dbg !7904

12:                                               ; preds = %5, %1
  call void @llvm.dbg.value(metadata ptr undef, metadata !7888, metadata !DIExpression()), !dbg !7892
  %13 = getelementptr inbounds %"class.std::__h::basic_filebuf", ptr %0, i32 0, i32 14, !dbg !7905
  %14 = load i8, ptr %13, align 4, !dbg !7905, !range !7643
  %15 = icmp eq i8 %14, 0, !dbg !7905
  br i1 %15, label %21, label %16, !dbg !7907

16:                                               ; preds = %12
  %17 = getelementptr inbounds %"class.std::__h::basic_filebuf", ptr %0, i32 0, i32 1, !dbg !7908
  %18 = load ptr, ptr %17, align 4, !dbg !7908
  %19 = icmp eq ptr %18, null, !dbg !7909
  br i1 %19, label %21, label %20, !dbg !7909

20:                                               ; preds = %16
  tail call void @_ZdaPv(ptr noundef nonnull %18) #19, !dbg !7909
  br label %21, !dbg !7909

21:                                               ; preds = %20, %16, %12
  %22 = getelementptr inbounds %"class.std::__h::basic_filebuf", ptr %0, i32 0, i32 15, !dbg !7910
  %23 = load i8, ptr %22, align 1, !dbg !7910, !range !7643
  %24 = icmp eq i8 %23, 0, !dbg !7910
  br i1 %24, label %30, label %25, !dbg !7912

25:                                               ; preds = %21
  %26 = getelementptr inbounds %"class.std::__h::basic_filebuf", ptr %0, i32 0, i32 6, !dbg !7913
  %27 = load ptr, ptr %26, align 4, !dbg !7913
  %28 = icmp eq ptr %27, null, !dbg !7914
  br i1 %28, label %30, label %29, !dbg !7914

29:                                               ; preds = %25
  tail call void @_ZdaPv(ptr noundef nonnull %27) #19, !dbg !7914
  br label %30, !dbg !7914

30:                                               ; preds = %29, %25, %21
  %31 = tail call noundef ptr @_ZNSt3__h15basic_streambufIcNS_11char_traitsIcEEED2Ev(ptr noundef nonnull align 4 dereferenceable(32) %0) #18, !dbg !7915
  ret ptr %0, !dbg !7916
}

; Function Attrs: nounwind
declare noundef ptr @_ZNSt3__h13basic_ostreamIcNS_11char_traitsIcEEED2Ev(ptr noundef nonnull returned align 4 dereferenceable(4), ptr noundef) unnamed_addr #6

; Function Attrs: nounwind
declare noundef ptr @_ZNSt3__h9basic_iosIcNS_11char_traitsIcEEED2Ev(ptr noundef nonnull returned align 4 dereferenceable(80)) unnamed_addr #6

; Function Attrs: nounwind
declare noundef ptr @_ZNSt3__h13basic_istreamIcNS_11char_traitsIcEEED2Ev(ptr noundef nonnull returned align 4 dereferenceable(8), ptr noundef) unnamed_addr #6

; Function Attrs: nofree nounwind
declare noundef i32 @fclose(ptr nocapture noundef) local_unnamed_addr #5

; Function Attrs: mustprogress nounwind sspstrong uwtable(sync)
define linkonce_odr noundef i32 @_ZNSt3__h13basic_filebufIcNS_11char_traitsIcEEE4syncEv(ptr noundef nonnull align 4 dereferenceable(99) %0) unnamed_addr #7 comdat align 2 !dbg !7917 {
  %2 = alloca ptr, align 4
  %3 = alloca %struct.__mbstate_t, align 8
  call void @llvm.dbg.value(metadata ptr %0, metadata !7919, metadata !DIExpression()), !dbg !7939
  %4 = getelementptr inbounds %"class.std::__h::basic_filebuf", ptr %0, i32 0, i32 8, !dbg !7940
  %5 = load ptr, ptr %4, align 4, !dbg !7940
  %6 = icmp eq ptr %5, null, !dbg !7942
  br i1 %6, label %146, label %7, !dbg !7943

7:                                                ; preds = %1
  %8 = getelementptr inbounds %"class.std::__h::basic_filebuf", ptr %0, i32 0, i32 9, !dbg !7944
  %9 = load ptr, ptr %8, align 4, !dbg !7944
  %10 = icmp eq ptr %9, null, !dbg !7944
  br i1 %10, label %11, label %12, !dbg !7946

11:                                               ; preds = %7
  tail call void @_ZNSt3__h16__throw_bad_castB6v15004Ev() #20, !dbg !7947
  unreachable, !dbg !7947

12:                                               ; preds = %7
  %13 = getelementptr inbounds %"class.std::__h::basic_filebuf", ptr %0, i32 0, i32 13, !dbg !7948
  %14 = load i32, ptr %13, align 4, !dbg !7948
  %15 = and i32 %14, 16, !dbg !7949
  %16 = icmp eq i32 %15, 0, !dbg !7948
  br i1 %16, label %56, label %17, !dbg !7950

17:                                               ; preds = %12
  call void @llvm.dbg.value(metadata ptr %0, metadata !7951, metadata !DIExpression()), !dbg !7959
  %18 = getelementptr inbounds %"class.std::__h::basic_streambuf", ptr %0, i32 0, i32 6, !dbg !7962
  %19 = load ptr, ptr %18, align 4, !dbg !7962
  call void @llvm.dbg.value(metadata ptr %0, metadata !7963, metadata !DIExpression()), !dbg !7967
  %20 = getelementptr inbounds %"class.std::__h::basic_streambuf", ptr %0, i32 0, i32 5, !dbg !7969
  %21 = load ptr, ptr %20, align 4, !dbg !7969
  %22 = icmp eq ptr %19, %21, !dbg !7970
  br i1 %22, label %29, label %23, !dbg !7971

23:                                               ; preds = %17
  %24 = load ptr, ptr %0, align 4, !dbg !7972
  %25 = getelementptr inbounds ptr, ptr %24, i32 13, !dbg !7972
  %26 = load ptr, ptr %25, align 4, !dbg !7972
  %27 = tail call noundef i32 %26(ptr noundef nonnull align 4 dereferenceable(99) %0, i32 noundef -1) #18, !dbg !7972
  %28 = icmp eq i32 %27, -1, !dbg !7974
  br i1 %28, label %146, label %29, !dbg !7975

29:                                               ; preds = %23, %17
  call void @llvm.dbg.value(metadata i32 0, metadata !7920, metadata !DIExpression()), !dbg !7976
  %30 = getelementptr inbounds %"class.std::__h::basic_filebuf", ptr %0, i32 0, i32 10
  %31 = getelementptr inbounds %"class.std::__h::basic_filebuf", ptr %0, i32 0, i32 1
  %32 = getelementptr inbounds %"class.std::__h::basic_filebuf", ptr %0, i32 0, i32 5
  br label %33, !dbg !7977

33:                                               ; preds = %50, %29
  call void @llvm.lifetime.start.p0(i64 4, ptr nonnull %2) #18, !dbg !7978
  call void @llvm.dbg.declare(metadata ptr %2, metadata !7923, metadata !DIExpression()), !dbg !7979
  store ptr null, ptr %2, align 4, !dbg !7979, !annotation !7070
  %34 = load ptr, ptr %8, align 4, !dbg !7980
  %35 = load ptr, ptr %31, align 4, !dbg !7981
  %36 = load i32, ptr %32, align 4, !dbg !7982
  %37 = getelementptr inbounds i8, ptr %35, i32 %36, !dbg !7983
  call void @llvm.dbg.value(metadata ptr %34, metadata !7984, metadata !DIExpression()), !dbg !7999
  call void @llvm.dbg.value(metadata ptr %30, metadata !7995, metadata !DIExpression()), !dbg !7999
  call void @llvm.dbg.value(metadata ptr %35, metadata !7996, metadata !DIExpression()), !dbg !7999
  call void @llvm.dbg.value(metadata ptr %37, metadata !7997, metadata !DIExpression()), !dbg !7999
  call void @llvm.dbg.value(metadata ptr %2, metadata !7998, metadata !DIExpression()), !dbg !7999
  %38 = load ptr, ptr %34, align 4, !dbg !8001
  %39 = getelementptr inbounds ptr, ptr %38, i32 5, !dbg !8001
  %40 = load ptr, ptr %39, align 4, !dbg !8001
  %41 = call noundef i32 %40(ptr noundef nonnull align 4 dereferenceable(8) %34, ptr noundef nonnull align 4 dereferenceable(8) %30, ptr noundef %35, ptr noundef %37, ptr noundef nonnull align 4 dereferenceable(4) %2) #18, !dbg !8001
  call void @llvm.dbg.value(metadata i32 %41, metadata !7920, metadata !DIExpression()), !dbg !7976
  call void @llvm.dbg.value(metadata i32 0, metadata !7925, metadata !DIExpression()), !dbg !8002
  %42 = load ptr, ptr %2, align 4, !dbg !8003
  %43 = load ptr, ptr %31, align 4, !dbg !8004
  %44 = ptrtoint ptr %42 to i32, !dbg !8005
  %45 = ptrtoint ptr %43 to i32, !dbg !8005
  %46 = sub i32 %44, %45, !dbg !8005
  call void @llvm.dbg.value(metadata i32 %46, metadata !7925, metadata !DIExpression()), !dbg !8002
  %47 = load ptr, ptr %4, align 4, !dbg !8006
  %48 = call i32 @fwrite(ptr noundef %43, i32 noundef 1, i32 noundef %46, ptr noundef %47), !dbg !8008
  %49 = icmp eq i32 %48, %46, !dbg !8009
  call void @llvm.lifetime.end.p0(i64 4, ptr nonnull %2) #18, !dbg !8010
  br i1 %49, label %50, label %55

50:                                               ; preds = %33
  switch i32 %41, label %51 [
    i32 1, label %33
    i32 2, label %55
  ], !dbg !8011

51:                                               ; preds = %50
  %52 = load ptr, ptr %4, align 4, !dbg !8012
  %53 = call i32 @fflush(ptr noundef %52), !dbg !8014
  %54 = icmp eq i32 %53, 0, !dbg !8014
  br i1 %54, label %146, label %55, !dbg !8015

55:                                               ; preds = %51, %50, %33
  br label %146

56:                                               ; preds = %12
  %57 = and i32 %14, 8, !dbg !8016
  %58 = icmp eq i32 %57, 0, !dbg !8017
  br i1 %58, label %146, label %59, !dbg !8018

59:                                               ; preds = %56
  call void @llvm.dbg.value(metadata i64 0, metadata !7926, metadata !DIExpression()), !dbg !8019
  call void @llvm.lifetime.start.p0(i64 8, ptr nonnull %3) #18, !dbg !8020
  call void @llvm.dbg.declare(metadata ptr %3, metadata !7929, metadata !DIExpression()), !dbg !8021
  %60 = getelementptr inbounds %"class.std::__h::basic_filebuf", ptr %0, i32 0, i32 11, !dbg !8022
  %61 = load i64, ptr %60, align 4, !dbg !8022
  store i64 %61, ptr %3, align 8, !dbg !8022
  call void @llvm.dbg.value(metadata i8 0, metadata !7930, metadata !DIExpression()), !dbg !8019
  %62 = getelementptr inbounds %"class.std::__h::basic_filebuf", ptr %0, i32 0, i32 16, !dbg !8023
  %63 = load i8, ptr %62, align 2, !dbg !8023, !range !7643
  %64 = icmp eq i8 %63, 0, !dbg !8023
  br i1 %64, label %74, label %65, !dbg !8024

65:                                               ; preds = %59
  call void @llvm.dbg.value(metadata ptr %0, metadata !8025, metadata !DIExpression()), !dbg !8029
  %66 = getelementptr inbounds %"class.std::__h::basic_streambuf", ptr %0, i32 0, i32 4, !dbg !8031
  %67 = load ptr, ptr %66, align 4, !dbg !8031
  call void @llvm.dbg.value(metadata ptr %0, metadata !8032, metadata !DIExpression()), !dbg !8036
  %68 = getelementptr inbounds %"class.std::__h::basic_streambuf", ptr %0, i32 0, i32 3, !dbg !8038
  %69 = load ptr, ptr %68, align 4, !dbg !8038
  %70 = ptrtoint ptr %67 to i32, !dbg !8039
  %71 = ptrtoint ptr %69 to i32, !dbg !8039
  %72 = sub i32 %70, %71, !dbg !8039
  %73 = sext i32 %72 to i64, !dbg !8040
  call void @llvm.dbg.value(metadata i64 %73, metadata !7926, metadata !DIExpression()), !dbg !8019
  br label %126, !dbg !8041

74:                                               ; preds = %59
  call void @llvm.dbg.value(metadata i32 0, metadata !7931, metadata !DIExpression()), !dbg !8042
  call void @llvm.dbg.value(metadata ptr %9, metadata !8043, metadata !DIExpression()), !dbg !8049
  %75 = load ptr, ptr %9, align 4, !dbg !8051
  %76 = getelementptr inbounds ptr, ptr %75, i32 6, !dbg !8051
  %77 = load ptr, ptr %76, align 4, !dbg !8051
  %78 = tail call noundef i32 %77(ptr noundef nonnull align 4 dereferenceable(8) %9) #18, !dbg !8051
  call void @llvm.dbg.value(metadata i32 %78, metadata !7931, metadata !DIExpression()), !dbg !8042
  %79 = getelementptr inbounds %"class.std::__h::basic_filebuf", ptr %0, i32 0, i32 3, !dbg !8052
  %80 = load ptr, ptr %79, align 4, !dbg !8052
  %81 = getelementptr inbounds %"class.std::__h::basic_filebuf", ptr %0, i32 0, i32 2, !dbg !8053
  %82 = load ptr, ptr %81, align 4, !dbg !8053
  %83 = ptrtoint ptr %80 to i32, !dbg !8054
  %84 = ptrtoint ptr %82 to i32, !dbg !8054
  %85 = sub i32 %83, %84, !dbg !8054
  %86 = sext i32 %85 to i64, !dbg !8052
  call void @llvm.dbg.value(metadata i64 %86, metadata !7926, metadata !DIExpression()), !dbg !8019
  %87 = icmp sgt i32 %78, 0, !dbg !8055
  br i1 %87, label %88, label %99, !dbg !8056

88:                                               ; preds = %74
  call void @llvm.dbg.value(metadata ptr %0, metadata !8025, metadata !DIExpression()), !dbg !8057
  %89 = getelementptr inbounds %"class.std::__h::basic_streambuf", ptr %0, i32 0, i32 4, !dbg !8059
  %90 = load ptr, ptr %89, align 4, !dbg !8059
  call void @llvm.dbg.value(metadata ptr %0, metadata !8032, metadata !DIExpression()), !dbg !8060
  %91 = getelementptr inbounds %"class.std::__h::basic_streambuf", ptr %0, i32 0, i32 3, !dbg !8062
  %92 = load ptr, ptr %91, align 4, !dbg !8062
  %93 = ptrtoint ptr %90 to i32, !dbg !8063
  %94 = ptrtoint ptr %92 to i32, !dbg !8063
  %95 = sub i32 %93, %94, !dbg !8063
  %96 = mul nsw i32 %95, %78, !dbg !8064
  %97 = sext i32 %96 to i64, !dbg !8065
  %98 = add nsw i64 %97, %86, !dbg !8066
  call void @llvm.dbg.value(metadata i64 %98, metadata !7926, metadata !DIExpression()), !dbg !8019
  br label %126, !dbg !8067

99:                                               ; preds = %74
  call void @llvm.dbg.value(metadata ptr %0, metadata !8032, metadata !DIExpression()), !dbg !8068
  %100 = getelementptr inbounds %"class.std::__h::basic_streambuf", ptr %0, i32 0, i32 3, !dbg !8070
  %101 = load ptr, ptr %100, align 4, !dbg !8070
  call void @llvm.dbg.value(metadata ptr %0, metadata !8025, metadata !DIExpression()), !dbg !8071
  %102 = getelementptr inbounds %"class.std::__h::basic_streambuf", ptr %0, i32 0, i32 4, !dbg !8073
  %103 = load ptr, ptr %102, align 4, !dbg !8073
  %104 = icmp eq ptr %101, %103, !dbg !8074
  br i1 %104, label %126, label %105, !dbg !8075

105:                                              ; preds = %99
  call void @llvm.dbg.value(metadata i32 0, metadata !7934, metadata !DIExpression()), !dbg !8076
  %106 = load ptr, ptr %8, align 4, !dbg !8077
  %107 = getelementptr inbounds %"class.std::__h::basic_filebuf", ptr %0, i32 0, i32 1, !dbg !8078
  %108 = load ptr, ptr %107, align 4, !dbg !8078
  call void @llvm.dbg.value(metadata ptr %0, metadata !8032, metadata !DIExpression()), !dbg !8079
  call void @llvm.dbg.value(metadata ptr %0, metadata !8081, metadata !DIExpression()), !dbg !8085
  %109 = getelementptr inbounds %"class.std::__h::basic_streambuf", ptr %0, i32 0, i32 2, !dbg !8087
  %110 = load ptr, ptr %109, align 4, !dbg !8087
  %111 = ptrtoint ptr %101 to i32, !dbg !8088
  %112 = ptrtoint ptr %110 to i32, !dbg !8088
  %113 = sub i32 %111, %112, !dbg !8088
  call void @llvm.dbg.value(metadata ptr %106, metadata !8089, metadata !DIExpression()), !dbg !8101
  call void @llvm.dbg.value(metadata ptr %3, metadata !8097, metadata !DIExpression()), !dbg !8101
  call void @llvm.dbg.value(metadata ptr %108, metadata !8098, metadata !DIExpression()), !dbg !8101
  call void @llvm.dbg.value(metadata ptr %82, metadata !8099, metadata !DIExpression()), !dbg !8101
  call void @llvm.dbg.value(metadata i32 %113, metadata !8100, metadata !DIExpression()), !dbg !8101
  %114 = load ptr, ptr %106, align 4, !dbg !8103
  %115 = getelementptr inbounds ptr, ptr %114, i32 8, !dbg !8103
  %116 = load ptr, ptr %115, align 4, !dbg !8103
  %117 = call noundef i32 %116(ptr noundef nonnull align 4 dereferenceable(8) %106, ptr noundef nonnull align 4 dereferenceable(8) %3, ptr noundef %108, ptr noundef %82, i32 noundef %113) #18, !dbg !8103
  call void @llvm.dbg.value(metadata i32 %117, metadata !7934, metadata !DIExpression()), !dbg !8076
  %118 = load ptr, ptr %81, align 4, !dbg !8104
  %119 = load ptr, ptr %107, align 4, !dbg !8105
  %120 = ptrtoint ptr %118 to i32, !dbg !8106
  %121 = ptrtoint ptr %119 to i32, !dbg !8106
  %122 = add i32 %117, %121, !dbg !8107
  %123 = sub i32 %120, %122, !dbg !8107
  %124 = sext i32 %123 to i64, !dbg !8104
  %125 = add nsw i64 %124, %86, !dbg !8108
  call void @llvm.dbg.value(metadata i64 %125, metadata !7926, metadata !DIExpression()), !dbg !8019
  call void @llvm.dbg.value(metadata i8 1, metadata !7930, metadata !DIExpression()), !dbg !8019
  br label %126, !dbg !8109

126:                                              ; preds = %105, %99, %88, %65
  %127 = phi i64 [ %73, %65 ], [ %98, %88 ], [ %125, %105 ], [ %86, %99 ], !dbg !8110
  %128 = phi i1 [ false, %65 ], [ false, %88 ], [ true, %105 ], [ false, %99 ]
  call void @llvm.dbg.value(metadata i8 poison, metadata !7930, metadata !DIExpression()), !dbg !8019
  call void @llvm.dbg.value(metadata i64 %127, metadata !7926, metadata !DIExpression()), !dbg !8019
  %129 = load ptr, ptr %4, align 4, !dbg !8111
  %130 = sub nsw i64 0, %127, !dbg !8113
  %131 = call i32 @fseeko(ptr noundef %129, i64 noundef %130, i32 noundef 1), !dbg !8114
  %132 = icmp eq i32 %131, 0, !dbg !8114
  br i1 %132, label %133, label %145, !dbg !8115

133:                                              ; preds = %126
  br i1 %128, label %134, label %137, !dbg !8116

134:                                              ; preds = %133
  %135 = getelementptr inbounds %"class.std::__h::basic_filebuf", ptr %0, i32 0, i32 10, !dbg !8117
  %136 = load i64, ptr %3, align 8, !dbg !8119
  store i64 %136, ptr %135, align 4, !dbg !8119
  br label %137, !dbg !8117

137:                                              ; preds = %134, %133
  %138 = getelementptr inbounds %"class.std::__h::basic_filebuf", ptr %0, i32 0, i32 1, !dbg !8120
  %139 = load ptr, ptr %138, align 4, !dbg !8120
  %140 = getelementptr inbounds %"class.std::__h::basic_filebuf", ptr %0, i32 0, i32 3, !dbg !8121
  store ptr %139, ptr %140, align 4, !dbg !8122
  %141 = getelementptr inbounds %"class.std::__h::basic_filebuf", ptr %0, i32 0, i32 2, !dbg !8123
  store ptr %139, ptr %141, align 4, !dbg !8124
  call void @llvm.dbg.value(metadata ptr %0, metadata !8125, metadata !DIExpression()), !dbg !8134
  call void @llvm.dbg.value(metadata ptr null, metadata !8131, metadata !DIExpression()), !dbg !8134
  call void @llvm.dbg.value(metadata ptr null, metadata !8132, metadata !DIExpression()), !dbg !8134
  call void @llvm.dbg.value(metadata ptr null, metadata !8133, metadata !DIExpression()), !dbg !8134
  %142 = getelementptr inbounds %"class.std::__h::basic_streambuf", ptr %0, i32 0, i32 2, !dbg !8136
  store ptr null, ptr %142, align 4, !dbg !8137
  %143 = getelementptr inbounds %"class.std::__h::basic_streambuf", ptr %0, i32 0, i32 3, !dbg !8138
  store ptr null, ptr %143, align 4, !dbg !8139
  %144 = getelementptr inbounds %"class.std::__h::basic_streambuf", ptr %0, i32 0, i32 4, !dbg !8140
  store ptr null, ptr %144, align 4, !dbg !8141
  store i32 0, ptr %13, align 4, !dbg !8142
  call void @llvm.lifetime.end.p0(i64 8, ptr nonnull %3) #18, !dbg !8143
  br label %146

145:                                              ; preds = %126
  call void @llvm.lifetime.end.p0(i64 8, ptr nonnull %3) #18, !dbg !8143
  br label %146

146:                                              ; preds = %145, %137, %56, %55, %51, %23, %1
  %147 = phi i32 [ -1, %145 ], [ 0, %1 ], [ -1, %23 ], [ -1, %55 ], [ 0, %137 ], [ 0, %51 ], [ 0, %56 ], !dbg !7939
  ret i32 %147, !dbg !8144
}

; Function Attrs: nobuiltin nounwind
declare void @_ZdaPv(ptr noundef) local_unnamed_addr #8

; Function Attrs: nounwind
declare noundef ptr @_ZNSt3__h15basic_streambufIcNS_11char_traitsIcEEED2Ev(ptr noundef nonnull returned align 4 dereferenceable(32)) unnamed_addr #6

; Function Attrs: inlinehint mustprogress noreturn nounwind sspstrong uwtable(sync)
define linkonce_odr hidden void @_ZNSt3__h16__throw_bad_castB6v15004Ev() local_unnamed_addr #9 comdat !dbg !8145 {
  tail call void @abort() #21, !dbg !8147
  unreachable, !dbg !8147
}

; Function Attrs: nofree nounwind
declare noundef i32 @fwrite(ptr nocapture noundef, i32 noundef, i32 noundef, ptr nocapture noundef) local_unnamed_addr #5

; Function Attrs: nofree nounwind
declare noundef i32 @fflush(ptr nocapture noundef) local_unnamed_addr #5

; Function Attrs: nofree nounwind
declare noundef i32 @fseeko(ptr nocapture noundef, i64 noundef, i32 noundef) local_unnamed_addr #5

; Function Attrs: noreturn
declare void @abort() local_unnamed_addr #10

; Function Attrs: nounwind sspstrong uwtable(sync)
define linkonce_odr void @_ZNSt3__h13basic_filebufIcNS_11char_traitsIcEEED0Ev(ptr noundef nonnull align 4 dereferenceable(99) %0) unnamed_addr #0 comdat align 2 !dbg !8148 {
  call void @llvm.dbg.value(metadata ptr %0, metadata !8150, metadata !DIExpression()), !dbg !8151
  %2 = tail call noundef ptr @_ZNSt3__h13basic_filebufIcNS_11char_traitsIcEEED2Ev(ptr noundef nonnull align 4 dereferenceable(99) %0) #18, !dbg !8152
  tail call void @_ZdlPv(ptr noundef nonnull %0) #19, !dbg !8152
  ret void, !dbg !8153
}

; Function Attrs: mustprogress nounwind sspstrong uwtable(sync)
define linkonce_odr void @_ZNSt3__h13basic_filebufIcNS_11char_traitsIcEEE5imbueERKNS_6localeE(ptr noundef nonnull align 4 dereferenceable(99) %0, ptr noundef nonnull align 4 dereferenceable(4) %1) unnamed_addr #7 comdat align 2 !dbg !8154 {
  call void @llvm.dbg.value(metadata ptr %0, metadata !8156, metadata !DIExpression()), !dbg !8159
  call void @llvm.dbg.value(metadata ptr %1, metadata !8157, metadata !DIExpression()), !dbg !8159
  %3 = load ptr, ptr %0, align 4, !dbg !8160
  %4 = getelementptr inbounds ptr, ptr %3, i32 6, !dbg !8160
  %5 = load ptr, ptr %4, align 4, !dbg !8160
  %6 = tail call noundef i32 %5(ptr noundef nonnull align 4 dereferenceable(99) %0) #18, !dbg !8160
  call void @llvm.dbg.value(metadata ptr %1, metadata !7586, metadata !DIExpression()), !dbg !8161
  %7 = tail call noundef ptr @_ZNKSt3__h6locale9use_facetERNS0_2idE(ptr noundef nonnull align 4 dereferenceable(4) %1, ptr noundef nonnull align 4 dereferenceable(8) @_ZNSt3__h7codecvtIcc11__mbstate_tE2idE) #18, !dbg !8163
  %8 = getelementptr inbounds %"class.std::__h::basic_filebuf", ptr %0, i32 0, i32 9, !dbg !8164
  store ptr %7, ptr %8, align 4, !dbg !8165
  call void @llvm.dbg.value(metadata i8 0, metadata !8158, metadata !DIExpression()), !dbg !8159
  %9 = getelementptr inbounds %"class.std::__h::basic_filebuf", ptr %0, i32 0, i32 16, !dbg !8166
  %10 = load i8, ptr %9, align 2, !dbg !8166, !range !7643
  call void @llvm.dbg.value(metadata i1 undef, metadata !8158, metadata !DIExpression(DW_OP_LLVM_convert, 1, DW_ATE_unsigned, DW_OP_LLVM_convert, 8, DW_ATE_unsigned, DW_OP_stack_value)), !dbg !8159
  call void @llvm.dbg.value(metadata ptr %7, metadata !7598, metadata !DIExpression()), !dbg !8167
  %11 = load ptr, ptr %7, align 4, !dbg !8169
  %12 = getelementptr inbounds ptr, ptr %11, i32 7, !dbg !8169
  %13 = load ptr, ptr %12, align 4, !dbg !8169
  %14 = tail call noundef zeroext i1 %13(ptr noundef nonnull align 4 dereferenceable(8) %7) #18, !dbg !8169
  %15 = zext i1 %14 to i8, !dbg !8170
  store i8 %15, ptr %9, align 2, !dbg !8170
  %16 = icmp eq i8 %10, %15, !dbg !8171
  br i1 %16, label %57, label %17, !dbg !8173

17:                                               ; preds = %2
  call void @llvm.dbg.value(metadata ptr %0, metadata !8125, metadata !DIExpression()), !dbg !8174
  call void @llvm.dbg.value(metadata ptr null, metadata !8131, metadata !DIExpression()), !dbg !8174
  call void @llvm.dbg.value(metadata ptr null, metadata !8132, metadata !DIExpression()), !dbg !8174
  call void @llvm.dbg.value(metadata ptr null, metadata !8133, metadata !DIExpression()), !dbg !8174
  %18 = getelementptr inbounds %"class.std::__h::basic_streambuf", ptr %0, i32 0, i32 2, !dbg !8177
  call void @llvm.dbg.value(metadata ptr %0, metadata !8178, metadata !DIExpression()), !dbg !8186
  call void @llvm.dbg.value(metadata ptr null, metadata !8184, metadata !DIExpression()), !dbg !8186
  call void @llvm.dbg.value(metadata ptr null, metadata !8185, metadata !DIExpression()), !dbg !8186
  call void @llvm.memset.p0.i64(ptr noundef nonnull align 4 dereferenceable(24) %18, i8 0, i64 24, i1 false), !dbg !8188
  %19 = getelementptr inbounds %"class.std::__h::basic_filebuf", ptr %0, i32 0, i32 14, !dbg !8189
  %20 = load i8, ptr %19, align 4, !dbg !8189, !range !7643
  %21 = icmp eq i8 %20, 0, !dbg !8189
  br i1 %14, label %22, label %37, !dbg !8191

22:                                               ; preds = %17
  br i1 %21, label %28, label %23, !dbg !8192

23:                                               ; preds = %22
  %24 = getelementptr inbounds %"class.std::__h::basic_filebuf", ptr %0, i32 0, i32 1, !dbg !8194
  %25 = load ptr, ptr %24, align 4, !dbg !8194
  %26 = icmp eq ptr %25, null, !dbg !8196
  br i1 %26, label %28, label %27, !dbg !8196

27:                                               ; preds = %23
  tail call void @_ZdaPv(ptr noundef nonnull %25) #19, !dbg !8196
  br label %28, !dbg !8196

28:                                               ; preds = %27, %23, %22
  %29 = getelementptr inbounds %"class.std::__h::basic_filebuf", ptr %0, i32 0, i32 15, !dbg !8197
  %30 = load i8, ptr %29, align 1, !dbg !8197, !range !7643
  store i8 %30, ptr %19, align 4, !dbg !8198
  %31 = getelementptr inbounds %"class.std::__h::basic_filebuf", ptr %0, i32 0, i32 7, !dbg !8199
  %32 = load i32, ptr %31, align 4, !dbg !8199
  %33 = getelementptr inbounds %"class.std::__h::basic_filebuf", ptr %0, i32 0, i32 5, !dbg !8200
  store i32 %32, ptr %33, align 4, !dbg !8201
  %34 = getelementptr inbounds %"class.std::__h::basic_filebuf", ptr %0, i32 0, i32 6, !dbg !8202
  %35 = load ptr, ptr %34, align 4, !dbg !8202
  %36 = getelementptr inbounds %"class.std::__h::basic_filebuf", ptr %0, i32 0, i32 1, !dbg !8203
  store ptr %35, ptr %36, align 4, !dbg !8204
  store i32 0, ptr %31, align 4, !dbg !8205
  store ptr null, ptr %34, align 4, !dbg !8206
  store i8 0, ptr %29, align 1, !dbg !8207
  br label %57, !dbg !8208

37:                                               ; preds = %17
  br i1 %21, label %38, label %50, !dbg !8209

38:                                               ; preds = %37
  %39 = getelementptr inbounds %"class.std::__h::basic_filebuf", ptr %0, i32 0, i32 1, !dbg !8212
  %40 = load ptr, ptr %39, align 4, !dbg !8212
  %41 = getelementptr inbounds %"class.std::__h::basic_filebuf", ptr %0, i32 0, i32 4, !dbg !8213
  %42 = icmp eq ptr %40, %41, !dbg !8214
  br i1 %42, label %50, label %43, !dbg !8215

43:                                               ; preds = %38
  %44 = getelementptr inbounds %"class.std::__h::basic_filebuf", ptr %0, i32 0, i32 5, !dbg !8216
  %45 = load i32, ptr %44, align 4, !dbg !8216
  %46 = getelementptr inbounds %"class.std::__h::basic_filebuf", ptr %0, i32 0, i32 7, !dbg !8218
  store i32 %45, ptr %46, align 4, !dbg !8219
  %47 = getelementptr inbounds %"class.std::__h::basic_filebuf", ptr %0, i32 0, i32 6, !dbg !8220
  store ptr %40, ptr %47, align 4, !dbg !8221
  %48 = getelementptr inbounds %"class.std::__h::basic_filebuf", ptr %0, i32 0, i32 15, !dbg !8222
  store i8 0, ptr %48, align 1, !dbg !8223
  %49 = tail call noalias noundef nonnull ptr @_Znaj(i32 noundef %45) #22, !dbg !8224, !heapallocsite !5
  store ptr %49, ptr %39, align 4, !dbg !8225
  store i8 1, ptr %19, align 4, !dbg !8226
  br label %57, !dbg !8227

50:                                               ; preds = %38, %37
  %51 = getelementptr inbounds %"class.std::__h::basic_filebuf", ptr %0, i32 0, i32 5, !dbg !8228
  %52 = load i32, ptr %51, align 4, !dbg !8228
  %53 = getelementptr inbounds %"class.std::__h::basic_filebuf", ptr %0, i32 0, i32 7, !dbg !8230
  store i32 %52, ptr %53, align 4, !dbg !8231
  %54 = tail call noalias noundef nonnull ptr @_Znaj(i32 noundef %52) #22, !dbg !8232, !heapallocsite !1776
  %55 = getelementptr inbounds %"class.std::__h::basic_filebuf", ptr %0, i32 0, i32 6, !dbg !8233
  store ptr %54, ptr %55, align 4, !dbg !8234
  %56 = getelementptr inbounds %"class.std::__h::basic_filebuf", ptr %0, i32 0, i32 15, !dbg !8235
  store i8 1, ptr %56, align 1, !dbg !8236
  br label %57

57:                                               ; preds = %50, %43, %28, %2
  ret void, !dbg !8237
}

; Function Attrs: mustprogress nounwind sspstrong uwtable(sync)
define linkonce_odr noundef ptr @_ZNSt3__h13basic_filebufIcNS_11char_traitsIcEEE6setbufEPci(ptr noundef nonnull align 4 dereferenceable(99) %0, ptr noundef %1, i32 noundef %2) unnamed_addr #7 comdat align 2 !dbg !8238 {
  call void @llvm.dbg.value(metadata ptr %0, metadata !8240, metadata !DIExpression()), !dbg !8243
  call void @llvm.dbg.value(metadata ptr %1, metadata !8241, metadata !DIExpression()), !dbg !8243
  call void @llvm.dbg.value(metadata i32 %2, metadata !8242, metadata !DIExpression()), !dbg !8243
  call void @llvm.dbg.value(metadata ptr %0, metadata !8125, metadata !DIExpression()), !dbg !8244
  call void @llvm.dbg.value(metadata ptr null, metadata !8131, metadata !DIExpression()), !dbg !8244
  call void @llvm.dbg.value(metadata ptr null, metadata !8132, metadata !DIExpression()), !dbg !8244
  call void @llvm.dbg.value(metadata ptr null, metadata !8133, metadata !DIExpression()), !dbg !8244
  %4 = getelementptr inbounds %"class.std::__h::basic_streambuf", ptr %0, i32 0, i32 2, !dbg !8246
  call void @llvm.dbg.value(metadata ptr %0, metadata !8178, metadata !DIExpression()), !dbg !8247
  call void @llvm.dbg.value(metadata ptr null, metadata !8184, metadata !DIExpression()), !dbg !8247
  call void @llvm.dbg.value(metadata ptr null, metadata !8185, metadata !DIExpression()), !dbg !8247
  %5 = getelementptr inbounds %"class.std::__h::basic_filebuf", ptr %0, i32 0, i32 14, !dbg !8249
  call void @llvm.memset.p0.i64(ptr noundef nonnull align 4 dereferenceable(24) %4, i8 0, i64 24, i1 false), !dbg !8251
  %6 = load i8, ptr %5, align 4, !dbg !8249, !range !7643
  %7 = icmp eq i8 %6, 0, !dbg !8249
  br i1 %7, label %13, label %8, !dbg !8252

8:                                                ; preds = %3
  %9 = getelementptr inbounds %"class.std::__h::basic_filebuf", ptr %0, i32 0, i32 1, !dbg !8253
  %10 = load ptr, ptr %9, align 4, !dbg !8253
  %11 = icmp eq ptr %10, null, !dbg !8254
  br i1 %11, label %13, label %12, !dbg !8254

12:                                               ; preds = %8
  tail call void @_ZdaPv(ptr noundef nonnull %10) #19, !dbg !8254
  br label %13, !dbg !8254

13:                                               ; preds = %12, %8, %3
  %14 = getelementptr inbounds %"class.std::__h::basic_filebuf", ptr %0, i32 0, i32 15, !dbg !8255
  %15 = load i8, ptr %14, align 1, !dbg !8255, !range !7643
  %16 = icmp eq i8 %15, 0, !dbg !8255
  br i1 %16, label %22, label %17, !dbg !8257

17:                                               ; preds = %13
  %18 = getelementptr inbounds %"class.std::__h::basic_filebuf", ptr %0, i32 0, i32 6, !dbg !8258
  %19 = load ptr, ptr %18, align 4, !dbg !8258
  %20 = icmp eq ptr %19, null, !dbg !8259
  br i1 %20, label %22, label %21, !dbg !8259

21:                                               ; preds = %17
  tail call void @_ZdaPv(ptr noundef nonnull %19) #19, !dbg !8259
  br label %22, !dbg !8259

22:                                               ; preds = %21, %17, %13
  %23 = getelementptr inbounds %"class.std::__h::basic_filebuf", ptr %0, i32 0, i32 5, !dbg !8260
  store i32 %2, ptr %23, align 4, !dbg !8261
  %24 = icmp ugt i32 %2, 8, !dbg !8262
  br i1 %24, label %25, label %36, !dbg !8264

25:                                               ; preds = %22
  %26 = getelementptr inbounds %"class.std::__h::basic_filebuf", ptr %0, i32 0, i32 16, !dbg !8265
  %27 = load i8, ptr %26, align 2, !dbg !8265, !range !7643
  %28 = icmp ne i8 %27, 0, !dbg !8265
  %29 = icmp ne ptr %1, null
  %30 = and i1 %29, %28, !dbg !8268
  br i1 %30, label %31, label %33, !dbg !8268

31:                                               ; preds = %25
  %32 = getelementptr inbounds %"class.std::__h::basic_filebuf", ptr %0, i32 0, i32 1, !dbg !8269
  store ptr %1, ptr %32, align 4, !dbg !8271
  store i8 0, ptr %5, align 4, !dbg !8272
  br label %50, !dbg !8273

33:                                               ; preds = %25
  %34 = tail call noalias noundef nonnull ptr @_Znaj(i32 noundef %2) #22, !dbg !8274, !heapallocsite !5
  %35 = getelementptr inbounds %"class.std::__h::basic_filebuf", ptr %0, i32 0, i32 1, !dbg !8276
  store ptr %34, ptr %35, align 4, !dbg !8277
  store i8 1, ptr %5, align 4, !dbg !8278
  br label %41

36:                                               ; preds = %22
  %37 = getelementptr inbounds %"class.std::__h::basic_filebuf", ptr %0, i32 0, i32 4, !dbg !8279
  %38 = getelementptr inbounds %"class.std::__h::basic_filebuf", ptr %0, i32 0, i32 1, !dbg !8281
  store ptr %37, ptr %38, align 4, !dbg !8282
  store i32 8, ptr %23, align 4, !dbg !8283
  store i8 0, ptr %5, align 4, !dbg !8284
  %39 = getelementptr inbounds %"class.std::__h::basic_filebuf", ptr %0, i32 0, i32 16
  %40 = load i8, ptr %39, align 2, !dbg !8285, !range !7643
  br label %41

41:                                               ; preds = %36, %33
  %42 = phi i8 [ %27, %33 ], [ %40, %36 ], !dbg !8285
  %43 = icmp eq i8 %42, 0, !dbg !8285
  br i1 %43, label %44, label %50, !dbg !8273

44:                                               ; preds = %41
  %45 = tail call i32 @llvm.smax.i32(i32 %2, i32 8), !dbg !8287
  %46 = getelementptr inbounds %"class.std::__h::basic_filebuf", ptr %0, i32 0, i32 7, !dbg !8289
  store i32 %45, ptr %46, align 4, !dbg !8290
  %47 = icmp eq ptr %1, null, !dbg !8291
  br i1 %47, label %48, label %52, !dbg !8293

48:                                               ; preds = %44
  %49 = tail call noalias noundef nonnull ptr @_Znaj(i32 noundef %45) #22, !dbg !8294, !heapallocsite !1776
  br label %52

50:                                               ; preds = %41, %31
  %51 = getelementptr inbounds %"class.std::__h::basic_filebuf", ptr %0, i32 0, i32 7, !dbg !8296
  store i32 0, ptr %51, align 4, !dbg !8298
  br label %52

52:                                               ; preds = %50, %48, %44
  %53 = phi ptr [ %49, %48 ], [ null, %50 ], [ %1, %44 ]
  %54 = phi i8 [ 1, %48 ], [ 0, %50 ], [ 0, %44 ]
  %55 = getelementptr inbounds %"class.std::__h::basic_filebuf", ptr %0, i32 0, i32 6, !dbg !8299
  store ptr %53, ptr %55, align 4, !dbg !8299
  store i8 %54, ptr %14, align 1, !dbg !8299
  ret ptr %0, !dbg !8300
}

; Function Attrs: nounwind sspstrong uwtable(sync)
define linkonce_odr void @_ZNSt3__h13basic_filebufIcNS_11char_traitsIcEEE7seekoffExNS_8ios_base7seekdirEj(ptr noalias sret(%"class.std::__h::fpos") align 8 %0, ptr noundef nonnull align 4 dereferenceable(99) %1, i64 noundef %2, i32 noundef %3, i32 noundef %4) unnamed_addr #0 comdat align 2 !dbg !8301 {
  call void @llvm.dbg.value(metadata ptr %1, metadata !8303, metadata !DIExpression()), !dbg !8310
  call void @llvm.dbg.value(metadata i64 %2, metadata !8304, metadata !DIExpression()), !dbg !8310
  call void @llvm.dbg.value(metadata i32 %3, metadata !8305, metadata !DIExpression()), !dbg !8310
  call void @llvm.dbg.value(metadata i32 %4, metadata !8306, metadata !DIExpression()), !dbg !8310
  %6 = getelementptr inbounds %"class.std::__h::basic_filebuf", ptr %1, i32 0, i32 9, !dbg !8311
  %7 = load ptr, ptr %6, align 4, !dbg !8311
  %8 = icmp eq ptr %7, null, !dbg !8311
  br i1 %8, label %9, label %10, !dbg !8313

9:                                                ; preds = %5
  tail call void @_ZNSt3__h16__throw_bad_castB6v15004Ev() #20, !dbg !8314
  unreachable, !dbg !8314

10:                                               ; preds = %5
  call void @llvm.dbg.value(metadata i32 0, metadata !8307, metadata !DIExpression()), !dbg !8310
  call void @llvm.dbg.value(metadata ptr %7, metadata !8043, metadata !DIExpression()), !dbg !8315
  %11 = load ptr, ptr %7, align 4, !dbg !8317
  %12 = getelementptr inbounds ptr, ptr %11, i32 6, !dbg !8317
  %13 = load ptr, ptr %12, align 4, !dbg !8317
  %14 = tail call noundef i32 %13(ptr noundef nonnull align 4 dereferenceable(8) %7) #18, !dbg !8317
  call void @llvm.dbg.value(metadata i32 %14, metadata !8307, metadata !DIExpression()), !dbg !8310
  %15 = getelementptr inbounds %"class.std::__h::basic_filebuf", ptr %1, i32 0, i32 8, !dbg !8318
  %16 = load ptr, ptr %15, align 4, !dbg !8318
  %17 = icmp eq ptr %16, null, !dbg !8320
  br i1 %17, label %28, label %18, !dbg !8321

18:                                               ; preds = %10
  %19 = icmp slt i32 %14, 1, !dbg !8322
  %20 = icmp ne i64 %2, 0
  %21 = and i1 %20, %19, !dbg !8323
  br i1 %21, label %28, label %22, !dbg !8323

22:                                               ; preds = %18
  %23 = load ptr, ptr %1, align 4, !dbg !8324
  %24 = getelementptr inbounds ptr, ptr %23, i32 6, !dbg !8324
  %25 = load ptr, ptr %24, align 4, !dbg !8324
  %26 = tail call noundef i32 %25(ptr noundef nonnull align 4 dereferenceable(99) %1) #18, !dbg !8324
  %27 = icmp eq i32 %26, 0, !dbg !8324
  br i1 %27, label %30, label %28, !dbg !8325

28:                                               ; preds = %22, %18, %10
  call void @llvm.dbg.value(metadata ptr %0, metadata !8326, metadata !DIExpression()), !dbg !8331
  call void @llvm.dbg.value(metadata i64 -1, metadata !8329, metadata !DIExpression()), !dbg !8331
  store i64 0, ptr %0, align 8, !dbg !8333
  %29 = getelementptr inbounds %"class.std::__h::fpos", ptr %0, i32 0, i32 1, !dbg !8334
  store i64 -1, ptr %29, align 8, !dbg !8334
  br label %53, !dbg !8335

30:                                               ; preds = %22
  call void @llvm.dbg.value(metadata i32 0, metadata !8308, metadata !DIExpression()), !dbg !8310
  %31 = icmp ult i32 %3, 3, !dbg !8336
  br i1 %31, label %34, label %32, !dbg !8336

32:                                               ; preds = %30
  call void @llvm.dbg.value(metadata ptr %0, metadata !8326, metadata !DIExpression()), !dbg !8337
  call void @llvm.dbg.value(metadata i64 -1, metadata !8329, metadata !DIExpression()), !dbg !8337
  store i64 0, ptr %0, align 8, !dbg !8340
  %33 = getelementptr inbounds %"class.std::__h::fpos", ptr %0, i32 0, i32 1, !dbg !8341
  store i64 -1, ptr %33, align 8, !dbg !8341
  br label %53, !dbg !8342

34:                                               ; preds = %30
  call void @llvm.dbg.value(metadata i32 %3, metadata !8308, metadata !DIExpression()), !dbg !8310
  %35 = load ptr, ptr %15, align 4, !dbg !8343
  %36 = icmp sgt i32 %14, 0, !dbg !8345
  %37 = sext i32 %14 to i64, !dbg !8346
  %38 = mul nsw i64 %37, %2, !dbg !8346
  %39 = select i1 %36, i64 %38, i64 0, !dbg !8346
  %40 = tail call i32 @fseeko(ptr noundef %35, i64 noundef %39, i32 noundef %3), !dbg !8347
  %41 = icmp eq i32 %40, 0, !dbg !8347
  br i1 %41, label %44, label %42, !dbg !8348

42:                                               ; preds = %34
  call void @llvm.dbg.value(metadata ptr %0, metadata !8326, metadata !DIExpression()), !dbg !8349
  call void @llvm.dbg.value(metadata i64 -1, metadata !8329, metadata !DIExpression()), !dbg !8349
  store i64 0, ptr %0, align 8, !dbg !8351
  %43 = getelementptr inbounds %"class.std::__h::fpos", ptr %0, i32 0, i32 1, !dbg !8352
  store i64 -1, ptr %43, align 8, !dbg !8352
  br label %53, !dbg !8353

44:                                               ; preds = %34
  call void @llvm.dbg.declare(metadata ptr %0, metadata !8309, metadata !DIExpression()), !dbg !8354
  %45 = load ptr, ptr %15, align 4, !dbg !8355
  %46 = tail call i64 @ftello(ptr noundef %45), !dbg !8356
  call void @llvm.dbg.value(metadata ptr %0, metadata !8326, metadata !DIExpression()), !dbg !8357
  call void @llvm.dbg.value(metadata i64 %46, metadata !8329, metadata !DIExpression()), !dbg !8357
  %47 = getelementptr inbounds %"class.std::__h::fpos", ptr %0, i32 0, i32 1, !dbg !8359
  store i64 %46, ptr %47, align 8, !dbg !8359
  %48 = getelementptr inbounds %"class.std::__h::basic_filebuf", ptr %1, i32 0, i32 10, !dbg !8360
  %49 = load i32, ptr %48, align 4, !dbg !8360
  %50 = getelementptr inbounds %"class.std::__h::basic_filebuf", ptr %1, i32 0, i32 10, i32 1, !dbg !8360
  %51 = load i32, ptr %50, align 4, !dbg !8360
  call void @llvm.dbg.value(metadata i32 %49, metadata !8361, metadata !DIExpression(DW_OP_LLVM_fragment, 0, 32)), !dbg !8365
  call void @llvm.dbg.value(metadata i32 %51, metadata !8361, metadata !DIExpression(DW_OP_LLVM_fragment, 32, 32)), !dbg !8365
  call void @llvm.dbg.value(metadata ptr %0, metadata !8364, metadata !DIExpression()), !dbg !8365
  store i32 %49, ptr %0, align 8, !dbg !8367
  %52 = getelementptr inbounds i8, ptr %0, i32 4, !dbg !8367
  store i32 %51, ptr %52, align 4, !dbg !8367
  br label %53, !dbg !8368

53:                                               ; preds = %44, %42, %32, %28
  ret void, !dbg !8369
}

; Function Attrs: nounwind sspstrong uwtable(sync)
define linkonce_odr void @_ZNSt3__h13basic_filebufIcNS_11char_traitsIcEEE7seekposENS_4fposI11__mbstate_tEEj(ptr noalias sret(%"class.std::__h::fpos") align 8 %0, ptr noundef nonnull align 4 dereferenceable(99) %1, [2 x i64] %2, i32 noundef %3) unnamed_addr #0 comdat align 2 !dbg !8370 {
  %5 = extractvalue [2 x i64] %2, 0
  call void @llvm.dbg.value(metadata i64 %5, metadata !8373, metadata !DIExpression(DW_OP_LLVM_fragment, 0, 64)), !dbg !8375
  %6 = extractvalue [2 x i64] %2, 1
  call void @llvm.dbg.value(metadata i64 %6, metadata !8373, metadata !DIExpression(DW_OP_LLVM_fragment, 64, 64)), !dbg !8375
  call void @llvm.dbg.value(metadata ptr %1, metadata !8372, metadata !DIExpression()), !dbg !8375
  call void @llvm.dbg.value(metadata i32 %3, metadata !8374, metadata !DIExpression()), !dbg !8375
  %7 = getelementptr inbounds %"class.std::__h::basic_filebuf", ptr %1, i32 0, i32 8, !dbg !8376
  %8 = load ptr, ptr %7, align 4, !dbg !8376
  %9 = icmp eq ptr %8, null, !dbg !8378
  br i1 %9, label %16, label %10, !dbg !8379

10:                                               ; preds = %4
  %11 = load ptr, ptr %1, align 4, !dbg !8380
  %12 = getelementptr inbounds ptr, ptr %11, i32 6, !dbg !8380
  %13 = load ptr, ptr %12, align 4, !dbg !8380
  %14 = tail call noundef i32 %13(ptr noundef nonnull align 4 dereferenceable(99) %1) #18, !dbg !8380
  %15 = icmp eq i32 %14, 0, !dbg !8380
  br i1 %15, label %18, label %16, !dbg !8381

16:                                               ; preds = %10, %4
  call void @llvm.dbg.value(metadata ptr %0, metadata !8326, metadata !DIExpression()), !dbg !8382
  call void @llvm.dbg.value(metadata i64 -1, metadata !8329, metadata !DIExpression()), !dbg !8382
  store i64 0, ptr %0, align 8, !dbg !8384
  %17 = getelementptr inbounds %"class.std::__h::fpos", ptr %0, i32 0, i32 1, !dbg !8385
  store i64 -1, ptr %17, align 8, !dbg !8385
  br label %27, !dbg !8386

18:                                               ; preds = %10
  %19 = load ptr, ptr %7, align 4, !dbg !8387
  %20 = tail call i32 @fseeko(ptr noundef %19, i64 noundef %6, i32 noundef 0), !dbg !8389
  %21 = icmp eq i32 %20, 0, !dbg !8389
  br i1 %21, label %24, label %22, !dbg !8390

22:                                               ; preds = %18
  call void @llvm.dbg.value(metadata ptr %0, metadata !8326, metadata !DIExpression()), !dbg !8391
  call void @llvm.dbg.value(metadata i64 -1, metadata !8329, metadata !DIExpression()), !dbg !8391
  store i64 0, ptr %0, align 8, !dbg !8393
  %23 = getelementptr inbounds %"class.std::__h::fpos", ptr %0, i32 0, i32 1, !dbg !8394
  store i64 -1, ptr %23, align 8, !dbg !8394
  br label %27, !dbg !8395

24:                                               ; preds = %18
  %25 = getelementptr inbounds %"class.std::__h::basic_filebuf", ptr %1, i32 0, i32 10, !dbg !8396
  store i64 %5, ptr %25, align 4, !dbg !8397
  store i64 %5, ptr %0, align 8, !dbg !8398
  %26 = getelementptr inbounds i8, ptr %0, i32 8, !dbg !8398
  store i64 %6, ptr %26, align 8, !dbg !8398
  br label %27, !dbg !8399

27:                                               ; preds = %24, %22, %16
  ret void, !dbg !8400
}

declare noundef i32 @_ZNSt3__h15basic_streambufIcNS_11char_traitsIcEEE9showmanycEv(ptr noundef nonnull align 4 dereferenceable(32)) unnamed_addr #4

declare noundef i32 @_ZNSt3__h15basic_streambufIcNS_11char_traitsIcEEE6xsgetnEPci(ptr noundef nonnull align 4 dereferenceable(32), ptr noundef, i32 noundef) unnamed_addr #4

; Function Attrs: mustprogress nounwind sspstrong uwtable(sync)
define linkonce_odr noundef i32 @_ZNSt3__h13basic_filebufIcNS_11char_traitsIcEEE9underflowEv(ptr noundef nonnull align 4 dereferenceable(99) %0) unnamed_addr #7 comdat align 2 !dbg !8401 {
  %2 = alloca i8, align 1
  %3 = alloca ptr, align 4
  call void @llvm.dbg.value(metadata ptr %0, metadata !8403, metadata !DIExpression()), !dbg !8421
  %4 = getelementptr inbounds %"class.std::__h::basic_filebuf", ptr %0, i32 0, i32 8, !dbg !8422
  %5 = load ptr, ptr %4, align 4, !dbg !8422
  %6 = icmp eq ptr %5, null, !dbg !8424
  br i1 %6, label %173, label %7, !dbg !8425

7:                                                ; preds = %1
  call void @llvm.dbg.value(metadata i8 0, metadata !8404, metadata !DIExpression()), !dbg !8421
  call void @llvm.dbg.value(metadata ptr %0, metadata !8426, metadata !DIExpression()), !dbg !8429
  %8 = getelementptr inbounds %"class.std::__h::basic_filebuf", ptr %0, i32 0, i32 13, !dbg !8431
  %9 = load i32, ptr %8, align 4, !dbg !8431
  %10 = and i32 %9, 8, !dbg !8433
  %11 = icmp eq i32 %10, 0, !dbg !8434
  br i1 %11, label %15, label %12, !dbg !8435

12:                                               ; preds = %7
  %13 = getelementptr inbounds %"class.std::__h::basic_streambuf", ptr %0, i32 0, i32 3
  %14 = load ptr, ptr %13, align 4, !dbg !8436
  br label %36, !dbg !8435

15:                                               ; preds = %7
  call void @llvm.dbg.value(metadata ptr %0, metadata !8178, metadata !DIExpression()), !dbg !8439
  call void @llvm.dbg.value(metadata ptr null, metadata !8184, metadata !DIExpression()), !dbg !8439
  call void @llvm.dbg.value(metadata ptr null, metadata !8185, metadata !DIExpression()), !dbg !8439
  %16 = getelementptr inbounds %"class.std::__h::basic_streambuf", ptr %0, i32 0, i32 6, !dbg !8442
  store ptr null, ptr %16, align 4, !dbg !8443
  %17 = getelementptr inbounds %"class.std::__h::basic_streambuf", ptr %0, i32 0, i32 5, !dbg !8444
  store ptr null, ptr %17, align 4, !dbg !8445
  %18 = getelementptr inbounds %"class.std::__h::basic_streambuf", ptr %0, i32 0, i32 7, !dbg !8446
  store ptr null, ptr %18, align 4, !dbg !8447
  %19 = getelementptr inbounds %"class.std::__h::basic_filebuf", ptr %0, i32 0, i32 16, !dbg !8448
  %20 = load i8, ptr %19, align 2, !dbg !8448, !range !7643
  %21 = icmp eq i8 %20, 0, !dbg !8448
  %22 = getelementptr inbounds %"class.std::__h::basic_filebuf", ptr %0, i32 0, i32 6, !dbg !8450
  %23 = load ptr, ptr %22, align 4, !dbg !8450
  %24 = getelementptr inbounds %"class.std::__h::basic_filebuf", ptr %0, i32 0, i32 7, !dbg !8450
  %25 = getelementptr inbounds %"class.std::__h::basic_filebuf", ptr %0, i32 0, i32 1, !dbg !8450
  %26 = load ptr, ptr %25, align 4, !dbg !8450
  %27 = getelementptr inbounds %"class.std::__h::basic_filebuf", ptr %0, i32 0, i32 5, !dbg !8450
  %28 = select i1 %21, ptr %23, ptr %26, !dbg !8450
  %29 = load i32, ptr %24, align 4, !dbg !8451
  %30 = load i32, ptr %27, align 4, !dbg !8451
  %31 = select i1 %21, i32 %29, i32 %30, !dbg !8451
  %32 = getelementptr inbounds i8, ptr %28, i32 %31, !dbg !8451
  %33 = getelementptr inbounds %"class.std::__h::basic_streambuf", ptr %0, i32 0, i32 2, !dbg !8452
  store ptr %28, ptr %33, align 4, !dbg !8454
  %34 = getelementptr inbounds %"class.std::__h::basic_streambuf", ptr %0, i32 0, i32 3, !dbg !8455
  store ptr %32, ptr %34, align 4, !dbg !8456
  %35 = getelementptr inbounds %"class.std::__h::basic_streambuf", ptr %0, i32 0, i32 4, !dbg !8457
  store ptr %32, ptr %35, align 4, !dbg !8458
  store i32 8, ptr %8, align 4, !dbg !8459
  br label %36, !dbg !8460

36:                                               ; preds = %15, %12
  %37 = phi ptr [ %14, %12 ], [ %32, %15 ], !dbg !8436
  call void @llvm.dbg.value(metadata i1 %11, metadata !8404, metadata !DIExpression(DW_OP_LLVM_convert, 1, DW_ATE_unsigned, DW_OP_LLVM_convert, 8, DW_ATE_unsigned, DW_OP_stack_value)), !dbg !8421
  call void @llvm.lifetime.start.p0(i64 1, ptr nonnull %2) #18, !dbg !8461
  call void @llvm.dbg.declare(metadata ptr %2, metadata !8405, metadata !DIExpression()), !dbg !8462
  store i8 0, ptr %2, align 1, !dbg !8462, !annotation !7070
  call void @llvm.dbg.value(metadata ptr %0, metadata !8032, metadata !DIExpression()), !dbg !8463
  %38 = getelementptr inbounds %"class.std::__h::basic_streambuf", ptr %0, i32 0, i32 3, !dbg !8436
  %39 = icmp eq ptr %37, null, !dbg !8464
  br i1 %39, label %40, label %44, !dbg !8465

40:                                               ; preds = %36
  %41 = getelementptr inbounds i8, ptr %2, i32 1, !dbg !8466
  call void @llvm.dbg.value(metadata ptr %0, metadata !8125, metadata !DIExpression()), !dbg !8467
  call void @llvm.dbg.value(metadata ptr %2, metadata !8131, metadata !DIExpression()), !dbg !8467
  call void @llvm.dbg.value(metadata ptr %41, metadata !8132, metadata !DIExpression()), !dbg !8467
  call void @llvm.dbg.value(metadata ptr %41, metadata !8133, metadata !DIExpression()), !dbg !8467
  %42 = getelementptr inbounds %"class.std::__h::basic_streambuf", ptr %0, i32 0, i32 2, !dbg !8469
  store ptr %2, ptr %42, align 4, !dbg !8470
  store ptr %41, ptr %38, align 4, !dbg !8471
  %43 = getelementptr inbounds %"class.std::__h::basic_streambuf", ptr %0, i32 0, i32 4, !dbg !8472
  store ptr %41, ptr %43, align 4, !dbg !8473
  br label %44, !dbg !8474

44:                                               ; preds = %40, %36
  %45 = phi ptr [ %41, %40 ], [ %37, %36 ]
  call void @llvm.dbg.value(metadata i32 0, metadata !8406, metadata !DIExpression()), !dbg !8421
  %46 = getelementptr inbounds %"class.std::__h::basic_streambuf", ptr %0, i32 0, i32 4
  %47 = load ptr, ptr %46, align 4, !dbg !8421
  br i1 %11, label %56, label %48, !dbg !8475

48:                                               ; preds = %44
  call void @llvm.dbg.value(metadata ptr %0, metadata !8025, metadata !DIExpression()), !dbg !8476
  call void @llvm.dbg.value(metadata ptr %0, metadata !8081, metadata !DIExpression()), !dbg !8478
  %49 = getelementptr inbounds %"class.std::__h::basic_streambuf", ptr %0, i32 0, i32 2, !dbg !8480
  %50 = load ptr, ptr %49, align 4, !dbg !8480
  %51 = ptrtoint ptr %47 to i32, !dbg !8481
  %52 = ptrtoint ptr %50 to i32, !dbg !8481
  %53 = sub i32 %51, %52, !dbg !8481
  %54 = sdiv i32 %53, 2, !dbg !8482
  %55 = call i32 @llvm.umin.i32(i32 %54, i32 4), !dbg !8483
  br label %56, !dbg !8475

56:                                               ; preds = %48, %44
  %57 = phi i32 [ %55, %48 ], [ 0, %44 ], !dbg !8475
  call void @llvm.dbg.value(metadata i32 %57, metadata !8406, metadata !DIExpression()), !dbg !8421
  call void @llvm.dbg.value(metadata i32 -1, metadata !8408, metadata !DIExpression()), !dbg !8421
  call void @llvm.dbg.value(metadata ptr %0, metadata !8032, metadata !DIExpression()), !dbg !8484
  call void @llvm.dbg.value(metadata ptr %0, metadata !8025, metadata !DIExpression()), !dbg !8486
  %58 = getelementptr inbounds %"class.std::__h::basic_streambuf", ptr %0, i32 0, i32 4, !dbg !8488
  %59 = icmp eq ptr %45, %47, !dbg !8489
  br i1 %59, label %60, label %163, !dbg !8490

60:                                               ; preds = %56
  %61 = sub nsw i32 0, %57, !dbg !8491
  call void @llvm.dbg.value(metadata ptr %0, metadata !8081, metadata !DIExpression()), !dbg !8492
  %62 = getelementptr inbounds %"class.std::__h::basic_streambuf", ptr %0, i32 0, i32 2, !dbg !8494
  %63 = load ptr, ptr %62, align 4, !dbg !8494
  call void @llvm.dbg.value(metadata ptr %0, metadata !8025, metadata !DIExpression()), !dbg !8495
  %64 = getelementptr inbounds i8, ptr %45, i32 %61, !dbg !8491
  call void @llvm.memmove.p0.p0.i32(ptr align 1 %63, ptr align 1 %64, i32 %57, i1 false), !dbg !8497
  %65 = getelementptr inbounds %"class.std::__h::basic_filebuf", ptr %0, i32 0, i32 16, !dbg !8498
  %66 = load i8, ptr %65, align 2, !dbg !8498, !range !7643
  %67 = icmp eq i8 %66, 0, !dbg !8498
  br i1 %67, label %85, label %68, !dbg !8499

68:                                               ; preds = %60
  call void @llvm.dbg.value(metadata i32 0, metadata !8409, metadata !DIExpression()), !dbg !8500
  call void @llvm.dbg.value(metadata ptr %0, metadata !8025, metadata !DIExpression()), !dbg !8501
  %69 = load ptr, ptr %58, align 4, !dbg !8503
  call void @llvm.dbg.value(metadata ptr %0, metadata !8081, metadata !DIExpression()), !dbg !8504
  %70 = load ptr, ptr %62, align 4, !dbg !8506
  %71 = ptrtoint ptr %69 to i32, !dbg !8507
  %72 = ptrtoint ptr %70 to i32, !dbg !8507
  %73 = add i32 %57, %72, !dbg !8508
  %74 = sub i32 %71, %73, !dbg !8508
  call void @llvm.dbg.value(metadata i32 %74, metadata !8409, metadata !DIExpression()), !dbg !8500
  call void @llvm.dbg.value(metadata ptr %0, metadata !8081, metadata !DIExpression()), !dbg !8509
  %75 = getelementptr inbounds i8, ptr %70, i32 %57, !dbg !8511
  %76 = load ptr, ptr %4, align 4, !dbg !8512
  %77 = call i32 @fread(ptr noundef %75, i32 noundef 1, i32 noundef %74, ptr noundef %76), !dbg !8513
  call void @llvm.dbg.value(metadata i32 %77, metadata !8409, metadata !DIExpression()), !dbg !8500
  %78 = icmp eq i32 %77, 0, !dbg !8514
  br i1 %78, label %166, label %79, !dbg !8516

79:                                               ; preds = %68
  call void @llvm.dbg.value(metadata ptr %0, metadata !8081, metadata !DIExpression()), !dbg !8517
  %80 = load ptr, ptr %62, align 4, !dbg !8520
  call void @llvm.dbg.value(metadata ptr %0, metadata !8081, metadata !DIExpression()), !dbg !8521
  %81 = getelementptr inbounds i8, ptr %80, i32 %57, !dbg !8523
  call void @llvm.dbg.value(metadata ptr %0, metadata !8081, metadata !DIExpression()), !dbg !8524
  %82 = getelementptr inbounds i8, ptr %81, i32 %77, !dbg !8526
  call void @llvm.dbg.value(metadata ptr %0, metadata !8125, metadata !DIExpression()), !dbg !8527
  call void @llvm.dbg.value(metadata ptr %80, metadata !8131, metadata !DIExpression()), !dbg !8527
  call void @llvm.dbg.value(metadata ptr %81, metadata !8132, metadata !DIExpression()), !dbg !8527
  call void @llvm.dbg.value(metadata ptr %82, metadata !8133, metadata !DIExpression()), !dbg !8527
  store ptr %81, ptr %38, align 4, !dbg !8529
  store ptr %82, ptr %58, align 4, !dbg !8530
  call void @llvm.dbg.value(metadata ptr %0, metadata !8032, metadata !DIExpression()), !dbg !8531
  %83 = load i8, ptr %81, align 1, !dbg !8533
  call void @llvm.dbg.value(metadata i8 %83, metadata !7732, metadata !DIExpression()), !dbg !8534
  %84 = zext i8 %83 to i32, !dbg !8536
  call void @llvm.dbg.value(metadata i32 %84, metadata !8408, metadata !DIExpression()), !dbg !8421
  br label %166, !dbg !8537

85:                                               ; preds = %60
  %86 = getelementptr inbounds %"class.std::__h::basic_filebuf", ptr %0, i32 0, i32 2, !dbg !8538
  %87 = load ptr, ptr %86, align 4, !dbg !8538
  %88 = icmp ne ptr %87, null, !dbg !8538
  %89 = getelementptr inbounds %"class.std::__h::basic_filebuf", ptr %0, i32 0, i32 3, !dbg !8538
  %90 = load ptr, ptr %89, align 4, !dbg !8538
  %91 = icmp eq ptr %90, null, !dbg !8538
  %92 = select i1 %88, i1 true, i1 %91, !dbg !8538
  call void @llvm.assume(i1 %92), !dbg !8538
  %93 = icmp eq ptr %90, %87, !dbg !8539
  br i1 %93, label %102, label %94, !dbg !8541

94:                                               ; preds = %85
  %95 = getelementptr inbounds %"class.std::__h::basic_filebuf", ptr %0, i32 0, i32 1, !dbg !8542
  %96 = load ptr, ptr %95, align 4, !dbg !8542
  %97 = ptrtoint ptr %90 to i32, !dbg !8543
  %98 = ptrtoint ptr %87 to i32, !dbg !8543
  %99 = sub i32 %97, %98, !dbg !8543
  call void @llvm.memmove.p0.p0.i32(ptr align 1 %96, ptr align 1 %87, i32 %99, i1 false), !dbg !8544
  %100 = load ptr, ptr %89, align 4, !dbg !8545
  %101 = load ptr, ptr %86, align 4, !dbg !8546
  br label %102, !dbg !8544

102:                                              ; preds = %94, %85
  %103 = phi ptr [ %101, %94 ], [ %87, %85 ], !dbg !8546
  %104 = phi ptr [ %100, %94 ], [ %87, %85 ], !dbg !8545
  %105 = getelementptr inbounds %"class.std::__h::basic_filebuf", ptr %0, i32 0, i32 1, !dbg !8547
  %106 = load ptr, ptr %105, align 4, !dbg !8547
  %107 = ptrtoint ptr %104 to i32, !dbg !8548
  %108 = ptrtoint ptr %103 to i32, !dbg !8548
  %109 = sub i32 %107, %108, !dbg !8548
  %110 = getelementptr inbounds i8, ptr %106, i32 %109, !dbg !8549
  store ptr %110, ptr %86, align 4, !dbg !8550
  %111 = getelementptr inbounds %"class.std::__h::basic_filebuf", ptr %0, i32 0, i32 4, !dbg !8551
  %112 = icmp eq ptr %106, %111, !dbg !8552
  %113 = getelementptr inbounds %"class.std::__h::basic_filebuf", ptr %0, i32 0, i32 5, !dbg !8553
  %114 = load i32, ptr %113, align 4, !dbg !8553
  %115 = select i1 %112, i32 8, i32 %114, !dbg !8553
  %116 = getelementptr inbounds i8, ptr %106, i32 %115, !dbg !8554
  store ptr %116, ptr %89, align 4, !dbg !8555
  call void @llvm.dbg.value(metadata i32 0, metadata !8414, metadata !DIExpression()), !dbg !8556
  %117 = getelementptr inbounds %"class.std::__h::basic_filebuf", ptr %0, i32 0, i32 7, !dbg !8557
  %118 = load i32, ptr %117, align 4, !dbg !8557
  %119 = sub i32 %118, %57, !dbg !8558
  %120 = ptrtoint ptr %116 to i32, !dbg !8559
  %121 = ptrtoint ptr %110 to i32, !dbg !8559
  %122 = sub i32 %120, %121, !dbg !8559
  %123 = call i32 @llvm.umin.i32(i32 %122, i32 %119), !dbg !8560
  call void @llvm.dbg.value(metadata i32 %123, metadata !8414, metadata !DIExpression()), !dbg !8556
  call void @llvm.dbg.value(metadata i32 0, metadata !8416, metadata !DIExpression()), !dbg !8556
  %124 = getelementptr inbounds %"class.std::__h::basic_filebuf", ptr %0, i32 0, i32 10, !dbg !8561
  %125 = getelementptr inbounds %"class.std::__h::basic_filebuf", ptr %0, i32 0, i32 11, !dbg !8562
  %126 = load i64, ptr %124, align 4, !dbg !8563
  store i64 %126, ptr %125, align 4, !dbg !8563
  call void @llvm.dbg.value(metadata i32 0, metadata !8417, metadata !DIExpression()), !dbg !8556
  %127 = load ptr, ptr %4, align 4, !dbg !8564
  %128 = call i32 @fread(ptr noundef %110, i32 noundef 1, i32 noundef %123, ptr noundef %127), !dbg !8565
  call void @llvm.dbg.value(metadata i32 %128, metadata !8417, metadata !DIExpression()), !dbg !8556
  %129 = icmp eq i32 %128, 0, !dbg !8566
  br i1 %129, label %166, label %130, !dbg !8567

130:                                              ; preds = %102
  %131 = getelementptr inbounds %"class.std::__h::basic_filebuf", ptr %0, i32 0, i32 9, !dbg !8568
  %132 = load ptr, ptr %131, align 4, !dbg !8568
  %133 = icmp eq ptr %132, null, !dbg !8568
  br i1 %133, label %134, label %135, !dbg !8570

134:                                              ; preds = %130
  call void @_ZNSt3__h16__throw_bad_castB6v15004Ev() #20, !dbg !8571
  unreachable, !dbg !8571

135:                                              ; preds = %130
  %136 = load ptr, ptr %86, align 4, !dbg !8572
  %137 = getelementptr inbounds i8, ptr %136, i32 %128, !dbg !8573
  store ptr %137, ptr %89, align 4, !dbg !8574
  call void @llvm.lifetime.start.p0(i64 4, ptr nonnull %3) #18, !dbg !8575
  call void @llvm.dbg.declare(metadata ptr %3, metadata !8418, metadata !DIExpression()), !dbg !8576
  store ptr null, ptr %3, align 4, !dbg !8576, !annotation !7070
  %138 = load ptr, ptr %105, align 4, !dbg !8577
  call void @llvm.dbg.value(metadata ptr %0, metadata !8081, metadata !DIExpression()), !dbg !8578
  %139 = load ptr, ptr %62, align 4, !dbg !8580
  %140 = getelementptr inbounds i8, ptr %139, i32 %57, !dbg !8581
  call void @llvm.dbg.value(metadata ptr %0, metadata !8081, metadata !DIExpression()), !dbg !8582
  %141 = load i32, ptr %117, align 4, !dbg !8584
  %142 = getelementptr inbounds i8, ptr %139, i32 %141, !dbg !8585
  call void @llvm.dbg.value(metadata ptr %132, metadata !8586, metadata !DIExpression()), !dbg !8603
  call void @llvm.dbg.value(metadata ptr %124, metadata !8596, metadata !DIExpression()), !dbg !8603
  call void @llvm.dbg.value(metadata ptr %138, metadata !8597, metadata !DIExpression()), !dbg !8603
  call void @llvm.dbg.value(metadata ptr %137, metadata !8598, metadata !DIExpression()), !dbg !8603
  call void @llvm.dbg.value(metadata ptr %86, metadata !8599, metadata !DIExpression()), !dbg !8603
  call void @llvm.dbg.value(metadata ptr %140, metadata !8600, metadata !DIExpression()), !dbg !8603
  call void @llvm.dbg.value(metadata ptr %142, metadata !8601, metadata !DIExpression()), !dbg !8603
  call void @llvm.dbg.value(metadata ptr %3, metadata !8602, metadata !DIExpression()), !dbg !8603
  %143 = load ptr, ptr %132, align 4, !dbg !8605
  %144 = getelementptr inbounds ptr, ptr %143, i32 4, !dbg !8605
  %145 = load ptr, ptr %144, align 4, !dbg !8605
  %146 = call noundef i32 %145(ptr noundef nonnull align 4 dereferenceable(8) %132, ptr noundef nonnull align 4 dereferenceable(8) %124, ptr noundef %138, ptr noundef nonnull %137, ptr noundef nonnull align 4 dereferenceable(4) %86, ptr noundef %140, ptr noundef %142, ptr noundef nonnull align 4 dereferenceable(4) %3) #18, !dbg !8605
  call void @llvm.dbg.value(metadata i32 %146, metadata !8416, metadata !DIExpression()), !dbg !8556
  %147 = icmp eq i32 %146, 3, !dbg !8606
  br i1 %147, label %148, label %151, !dbg !8608

148:                                              ; preds = %135
  %149 = load ptr, ptr %105, align 4, !dbg !8609
  %150 = load ptr, ptr %89, align 4, !dbg !8611
  call void @llvm.dbg.value(metadata ptr %0, metadata !8125, metadata !DIExpression()), !dbg !8612
  call void @llvm.dbg.value(metadata ptr %149, metadata !8131, metadata !DIExpression()), !dbg !8612
  call void @llvm.dbg.value(metadata ptr %149, metadata !8132, metadata !DIExpression()), !dbg !8612
  call void @llvm.dbg.value(metadata ptr %150, metadata !8133, metadata !DIExpression()), !dbg !8612
  store ptr %149, ptr %62, align 4, !dbg !8614
  call void @llvm.dbg.value(metadata ptr %0, metadata !8032, metadata !DIExpression()), !dbg !8615
  call void @llvm.dbg.value(metadata i8 undef, metadata !7732, metadata !DIExpression()), !dbg !8617
  call void @llvm.dbg.value(metadata i32 undef, metadata !8408, metadata !DIExpression()), !dbg !8421
  br label %156, !dbg !8619

151:                                              ; preds = %135
  %152 = load ptr, ptr %3, align 4, !dbg !8620
  call void @llvm.dbg.value(metadata ptr %0, metadata !8081, metadata !DIExpression()), !dbg !8622
  %153 = load ptr, ptr %62, align 4, !dbg !8624
  %154 = getelementptr inbounds i8, ptr %153, i32 %57, !dbg !8625
  %155 = icmp eq ptr %152, %154, !dbg !8626
  br i1 %155, label %161, label %156, !dbg !8627

156:                                              ; preds = %151, %148
  %157 = phi ptr [ %149, %148 ], [ %154, %151 ]
  %158 = phi ptr [ %150, %148 ], [ %152, %151 ]
  store ptr %157, ptr %38, align 4, !dbg !8628
  store ptr %158, ptr %58, align 4, !dbg !8628
  %159 = load i8, ptr %157, align 1, !dbg !8628
  %160 = zext i8 %159 to i32, !dbg !8628
  br label %161, !dbg !8629

161:                                              ; preds = %156, %151
  %162 = phi i32 [ -1, %151 ], [ %160, %156 ], !dbg !8421
  call void @llvm.dbg.value(metadata i32 %162, metadata !8408, metadata !DIExpression()), !dbg !8421
  call void @llvm.lifetime.end.p0(i64 4, ptr nonnull %3) #18, !dbg !8629
  br label %166, !dbg !8630

163:                                              ; preds = %56
  call void @llvm.dbg.value(metadata ptr %0, metadata !8032, metadata !DIExpression()), !dbg !8631
  %164 = load i8, ptr %45, align 1, !dbg !8633
  call void @llvm.dbg.value(metadata i8 %164, metadata !7732, metadata !DIExpression()), !dbg !8634
  %165 = zext i8 %164 to i32, !dbg !8636
  call void @llvm.dbg.value(metadata i32 %165, metadata !8408, metadata !DIExpression()), !dbg !8421
  br label %166

166:                                              ; preds = %163, %161, %102, %79, %68
  %167 = phi i32 [ %165, %163 ], [ %84, %79 ], [ -1, %68 ], [ %162, %161 ], [ -1, %102 ], !dbg !8637
  call void @llvm.dbg.value(metadata i32 %167, metadata !8408, metadata !DIExpression()), !dbg !8421
  call void @llvm.dbg.value(metadata ptr %0, metadata !8081, metadata !DIExpression()), !dbg !8638
  %168 = getelementptr inbounds %"class.std::__h::basic_streambuf", ptr %0, i32 0, i32 2, !dbg !8641
  %169 = load ptr, ptr %168, align 4, !dbg !8641
  %170 = icmp eq ptr %169, %2, !dbg !8642
  br i1 %170, label %171, label %172, !dbg !8643

171:                                              ; preds = %166
  call void @llvm.dbg.value(metadata ptr %0, metadata !8125, metadata !DIExpression()), !dbg !8644
  call void @llvm.dbg.value(metadata ptr null, metadata !8131, metadata !DIExpression()), !dbg !8644
  call void @llvm.dbg.value(metadata ptr null, metadata !8132, metadata !DIExpression()), !dbg !8644
  call void @llvm.dbg.value(metadata ptr null, metadata !8133, metadata !DIExpression()), !dbg !8644
  store ptr null, ptr %168, align 4, !dbg !8646
  store ptr null, ptr %38, align 4, !dbg !8647
  store ptr null, ptr %58, align 4, !dbg !8648
  br label %172, !dbg !8649

172:                                              ; preds = %171, %166
  call void @llvm.lifetime.end.p0(i64 1, ptr nonnull %2) #18, !dbg !8650
  br label %173

173:                                              ; preds = %172, %1
  %174 = phi i32 [ %167, %172 ], [ -1, %1 ], !dbg !8421
  ret i32 %174, !dbg !8650
}

declare noundef i32 @_ZNSt3__h15basic_streambufIcNS_11char_traitsIcEEE5uflowEv(ptr noundef nonnull align 4 dereferenceable(32)) unnamed_addr #4

; Function Attrs: mustprogress nounwind sspstrong uwtable(sync)
define linkonce_odr noundef i32 @_ZNSt3__h13basic_filebufIcNS_11char_traitsIcEEE9pbackfailEi(ptr noundef nonnull align 4 dereferenceable(99) %0, i32 noundef %1) unnamed_addr #7 comdat align 2 !dbg !8651 {
  call void @llvm.dbg.value(metadata ptr %0, metadata !8653, metadata !DIExpression()), !dbg !8655
  call void @llvm.dbg.value(metadata i32 %1, metadata !8654, metadata !DIExpression()), !dbg !8655
  %3 = getelementptr inbounds %"class.std::__h::basic_filebuf", ptr %0, i32 0, i32 8, !dbg !8656
  %4 = load ptr, ptr %3, align 4, !dbg !8656
  %5 = icmp eq ptr %4, null, !dbg !8656
  br i1 %5, label %28, label %6, !dbg !8658

6:                                                ; preds = %2
  call void @llvm.dbg.value(metadata ptr %0, metadata !8081, metadata !DIExpression()), !dbg !8659
  %7 = getelementptr inbounds %"class.std::__h::basic_streambuf", ptr %0, i32 0, i32 2, !dbg !8661
  %8 = load ptr, ptr %7, align 4, !dbg !8661
  call void @llvm.dbg.value(metadata ptr %0, metadata !8032, metadata !DIExpression()), !dbg !8662
  %9 = getelementptr inbounds %"class.std::__h::basic_streambuf", ptr %0, i32 0, i32 3, !dbg !8664
  %10 = load ptr, ptr %9, align 4, !dbg !8664
  %11 = icmp ult ptr %8, %10, !dbg !8665
  br i1 %11, label %12, label %28, !dbg !8666

12:                                               ; preds = %6
  call void @llvm.dbg.value(metadata i32 %1, metadata !7738, metadata !DIExpression()), !dbg !8667
  call void @llvm.dbg.value(metadata i32 -1, metadata !7741, metadata !DIExpression()), !dbg !8667
  %13 = icmp eq i32 %1, -1, !dbg !8671
  br i1 %13, label %14, label %16, !dbg !8672

14:                                               ; preds = %12
  call void @llvm.dbg.value(metadata ptr %0, metadata !8673, metadata !DIExpression()), !dbg !8680
  call void @llvm.dbg.value(metadata i32 -1, metadata !8679, metadata !DIExpression()), !dbg !8680
  %15 = getelementptr inbounds i8, ptr %10, i32 -1, !dbg !8683
  store ptr %15, ptr %9, align 4, !dbg !8683
  call void @llvm.dbg.value(metadata i32 %1, metadata !7738, metadata !DIExpression()), !dbg !8684
  call void @llvm.dbg.value(metadata i32 -1, metadata !7741, metadata !DIExpression()), !dbg !8684
  br label %28, !dbg !8690

16:                                               ; preds = %12
  %17 = getelementptr inbounds %"class.std::__h::basic_filebuf", ptr %0, i32 0, i32 12, !dbg !8691
  %18 = load i32, ptr %17, align 4, !dbg !8691
  %19 = and i32 %18, 16, !dbg !8693
  %20 = icmp eq i32 %19, 0, !dbg !8694
  %21 = trunc i32 %1 to i8, !dbg !8695
  br i1 %20, label %22, label %26, !dbg !8696

22:                                               ; preds = %16
  call void @llvm.dbg.value(metadata i32 %1, metadata !7748, metadata !DIExpression()), !dbg !8697
  call void @llvm.dbg.value(metadata ptr %0, metadata !8032, metadata !DIExpression()), !dbg !8699
  %23 = getelementptr inbounds i8, ptr %10, i32 -1, !dbg !8701
  %24 = load i8, ptr %23, align 1, !dbg !8701
  call void @llvm.dbg.value(metadata i8 %21, metadata !7754, metadata !DIExpression()), !dbg !8702
  call void @llvm.dbg.value(metadata i8 %24, metadata !7757, metadata !DIExpression()), !dbg !8702
  %25 = icmp eq i8 %24, %21, !dbg !8704
  br i1 %25, label %26, label %28, !dbg !8705

26:                                               ; preds = %22, %16
  call void @llvm.dbg.value(metadata ptr %0, metadata !8673, metadata !DIExpression()), !dbg !8706
  call void @llvm.dbg.value(metadata i32 -1, metadata !8679, metadata !DIExpression()), !dbg !8706
  %27 = getelementptr inbounds i8, ptr %10, i32 -1, !dbg !8709
  store ptr %27, ptr %9, align 4, !dbg !8709
  call void @llvm.dbg.value(metadata i32 %1, metadata !7748, metadata !DIExpression()), !dbg !8710
  call void @llvm.dbg.value(metadata ptr %0, metadata !8032, metadata !DIExpression()), !dbg !8712
  store i8 %21, ptr %27, align 1, !dbg !8714
  br label %28, !dbg !8715

28:                                               ; preds = %26, %22, %14, %6, %2
  %29 = phi i32 [ 0, %14 ], [ %1, %26 ], [ -1, %22 ], [ -1, %6 ], [ -1, %2 ], !dbg !8655
  ret i32 %29, !dbg !8716
}

declare noundef i32 @_ZNSt3__h15basic_streambufIcNS_11char_traitsIcEEE6xsputnEPKci(ptr noundef nonnull align 4 dereferenceable(32), ptr noundef, i32 noundef) unnamed_addr #4

; Function Attrs: mustprogress nounwind sspstrong uwtable(sync)
define linkonce_odr noundef i32 @_ZNSt3__h13basic_filebufIcNS_11char_traitsIcEEE8overflowEi(ptr noundef nonnull align 4 dereferenceable(99) %0, i32 noundef %1) unnamed_addr #7 comdat align 2 !dbg !8717 {
  %3 = alloca i8, align 1
  %4 = alloca ptr, align 4
  %5 = alloca ptr, align 4
  call void @llvm.dbg.value(metadata ptr %0, metadata !8719, metadata !DIExpression()), !dbg !8742
  call void @llvm.dbg.value(metadata i32 %1, metadata !8720, metadata !DIExpression()), !dbg !8742
  %6 = getelementptr inbounds %"class.std::__h::basic_filebuf", ptr %0, i32 0, i32 8, !dbg !8743
  %7 = load ptr, ptr %6, align 4, !dbg !8743
  %8 = icmp eq ptr %7, null, !dbg !8745
  br i1 %8, label %147, label %9, !dbg !8746

9:                                                ; preds = %2
  call void @llvm.dbg.value(metadata ptr %0, metadata !8747, metadata !DIExpression()), !dbg !8750
  %10 = getelementptr inbounds %"class.std::__h::basic_filebuf", ptr %0, i32 0, i32 13, !dbg !8752
  %11 = load i32, ptr %10, align 4, !dbg !8752
  %12 = and i32 %11, 16, !dbg !8754
  %13 = icmp eq i32 %12, 0, !dbg !8755
  br i1 %13, label %19, label %14, !dbg !8756

14:                                               ; preds = %9
  %15 = getelementptr inbounds %"class.std::__h::basic_streambuf", ptr %0, i32 0, i32 5
  %16 = load ptr, ptr %15, align 4, !dbg !8757
  %17 = getelementptr inbounds %"class.std::__h::basic_streambuf", ptr %0, i32 0, i32 7
  %18 = load ptr, ptr %17, align 4, !dbg !8759
  br label %48, !dbg !8756

19:                                               ; preds = %9
  call void @llvm.dbg.value(metadata ptr %0, metadata !8125, metadata !DIExpression()), !dbg !8765
  call void @llvm.dbg.value(metadata ptr null, metadata !8131, metadata !DIExpression()), !dbg !8765
  call void @llvm.dbg.value(metadata ptr null, metadata !8132, metadata !DIExpression()), !dbg !8765
  call void @llvm.dbg.value(metadata ptr null, metadata !8133, metadata !DIExpression()), !dbg !8765
  %20 = getelementptr inbounds %"class.std::__h::basic_streambuf", ptr %0, i32 0, i32 2, !dbg !8768
  store ptr null, ptr %20, align 4, !dbg !8769
  %21 = getelementptr inbounds %"class.std::__h::basic_streambuf", ptr %0, i32 0, i32 3, !dbg !8770
  store ptr null, ptr %21, align 4, !dbg !8771
  %22 = getelementptr inbounds %"class.std::__h::basic_streambuf", ptr %0, i32 0, i32 4, !dbg !8772
  store ptr null, ptr %22, align 4, !dbg !8773
  %23 = getelementptr inbounds %"class.std::__h::basic_filebuf", ptr %0, i32 0, i32 5, !dbg !8774
  %24 = load i32, ptr %23, align 4, !dbg !8774
  %25 = icmp ugt i32 %24, 8, !dbg !8776
  br i1 %25, label %26, label %42, !dbg !8777

26:                                               ; preds = %19
  %27 = getelementptr inbounds %"class.std::__h::basic_filebuf", ptr %0, i32 0, i32 16, !dbg !8778
  %28 = load i8, ptr %27, align 2, !dbg !8778, !range !7643
  %29 = icmp eq i8 %28, 0, !dbg !8778
  br i1 %29, label %35, label %30, !dbg !8781

30:                                               ; preds = %26
  %31 = getelementptr inbounds %"class.std::__h::basic_filebuf", ptr %0, i32 0, i32 1, !dbg !8782
  %32 = load ptr, ptr %31, align 4, !dbg !8782
  %33 = add i32 %24, -1, !dbg !8783
  %34 = getelementptr inbounds i8, ptr %32, i32 %33, !dbg !8784
  call void @llvm.dbg.value(metadata ptr %0, metadata !8178, metadata !DIExpression()), !dbg !8785
  call void @llvm.dbg.value(metadata ptr %32, metadata !8184, metadata !DIExpression()), !dbg !8785
  call void @llvm.dbg.value(metadata ptr %34, metadata !8185, metadata !DIExpression()), !dbg !8785
  br label %42, !dbg !8787

35:                                               ; preds = %26
  %36 = getelementptr inbounds %"class.std::__h::basic_filebuf", ptr %0, i32 0, i32 6, !dbg !8788
  %37 = load ptr, ptr %36, align 4, !dbg !8788
  %38 = getelementptr inbounds %"class.std::__h::basic_filebuf", ptr %0, i32 0, i32 7, !dbg !8789
  %39 = load i32, ptr %38, align 4, !dbg !8789
  %40 = add i32 %39, -1, !dbg !8790
  %41 = getelementptr inbounds i8, ptr %37, i32 %40, !dbg !8791
  call void @llvm.dbg.value(metadata ptr %0, metadata !8178, metadata !DIExpression()), !dbg !8792
  call void @llvm.dbg.value(metadata ptr %37, metadata !8184, metadata !DIExpression()), !dbg !8792
  call void @llvm.dbg.value(metadata ptr %41, metadata !8185, metadata !DIExpression()), !dbg !8792
  br label %42

42:                                               ; preds = %35, %30, %19
  %43 = phi ptr [ %32, %30 ], [ %37, %35 ], [ null, %19 ]
  %44 = phi ptr [ %34, %30 ], [ %41, %35 ], [ null, %19 ]
  %45 = getelementptr inbounds %"class.std::__h::basic_streambuf", ptr %0, i32 0, i32 6, !dbg !8794
  store ptr %43, ptr %45, align 4, !dbg !8794
  %46 = getelementptr inbounds %"class.std::__h::basic_streambuf", ptr %0, i32 0, i32 5, !dbg !8794
  store ptr %43, ptr %46, align 4, !dbg !8794
  %47 = getelementptr inbounds %"class.std::__h::basic_streambuf", ptr %0, i32 0, i32 7, !dbg !8794
  store ptr %44, ptr %47, align 4, !dbg !8794
  store i32 16, ptr %10, align 4, !dbg !8795
  br label %48, !dbg !8796

48:                                               ; preds = %42, %14
  %49 = phi ptr [ %18, %14 ], [ %44, %42 ], !dbg !8759
  %50 = phi ptr [ %16, %14 ], [ %43, %42 ], !dbg !8757
  call void @llvm.lifetime.start.p0(i64 1, ptr nonnull %3) #18, !dbg !8797
  call void @llvm.dbg.declare(metadata ptr %3, metadata !8721, metadata !DIExpression()), !dbg !8798
  store i8 0, ptr %3, align 1, !dbg !8798, !annotation !7070
  call void @llvm.dbg.value(metadata ptr null, metadata !8722, metadata !DIExpression()), !dbg !8742
  call void @llvm.dbg.value(metadata ptr %0, metadata !7963, metadata !DIExpression()), !dbg !8799
  %51 = getelementptr inbounds %"class.std::__h::basic_streambuf", ptr %0, i32 0, i32 5, !dbg !8757
  call void @llvm.dbg.value(metadata ptr %50, metadata !8722, metadata !DIExpression()), !dbg !8742
  call void @llvm.dbg.value(metadata ptr null, metadata !8723, metadata !DIExpression()), !dbg !8742
  call void @llvm.dbg.value(metadata ptr %0, metadata !8763, metadata !DIExpression()), !dbg !8800
  %52 = getelementptr inbounds %"class.std::__h::basic_streambuf", ptr %0, i32 0, i32 7, !dbg !8759
  call void @llvm.dbg.value(metadata ptr %49, metadata !8723, metadata !DIExpression()), !dbg !8742
  call void @llvm.dbg.value(metadata i32 %1, metadata !7738, metadata !DIExpression()), !dbg !8801
  call void @llvm.dbg.value(metadata i32 -1, metadata !7741, metadata !DIExpression()), !dbg !8801
  %53 = icmp eq i32 %1, -1, !dbg !8804
  %54 = getelementptr inbounds %"class.std::__h::basic_streambuf", ptr %0, i32 0, i32 6
  %55 = load ptr, ptr %54, align 4, !dbg !8742
  br i1 %53, label %66, label %56, !dbg !8805

56:                                               ; preds = %48
  call void @llvm.dbg.value(metadata ptr %0, metadata !7951, metadata !DIExpression()), !dbg !8806
  %57 = icmp eq ptr %55, null, !dbg !8810
  br i1 %57, label %58, label %60, !dbg !8811

58:                                               ; preds = %56
  %59 = getelementptr inbounds i8, ptr %3, i32 1, !dbg !8812
  call void @llvm.dbg.value(metadata ptr %0, metadata !8178, metadata !DIExpression()), !dbg !8813
  call void @llvm.dbg.value(metadata ptr %3, metadata !8184, metadata !DIExpression()), !dbg !8813
  call void @llvm.dbg.value(metadata ptr %59, metadata !8185, metadata !DIExpression()), !dbg !8813
  store ptr %3, ptr %54, align 4, !dbg !8815
  store ptr %3, ptr %51, align 4, !dbg !8816
  store ptr %59, ptr %52, align 4, !dbg !8817
  br label %60, !dbg !8818

60:                                               ; preds = %58, %56
  %61 = phi ptr [ %3, %58 ], [ %55, %56 ], !dbg !8819
  call void @llvm.dbg.value(metadata i32 %1, metadata !7748, metadata !DIExpression()), !dbg !8821
  %62 = trunc i32 %1 to i8, !dbg !8823
  call void @llvm.dbg.value(metadata ptr %0, metadata !7951, metadata !DIExpression()), !dbg !8824
  store i8 %62, ptr %61, align 1, !dbg !8825
  call void @llvm.dbg.value(metadata ptr %0, metadata !8826, metadata !DIExpression()), !dbg !8831
  call void @llvm.dbg.value(metadata i32 1, metadata !8830, metadata !DIExpression()), !dbg !8831
  %63 = load ptr, ptr %54, align 4, !dbg !8833
  %64 = getelementptr inbounds i8, ptr %63, i32 1, !dbg !8833
  store ptr %64, ptr %54, align 4, !dbg !8833
  %65 = load ptr, ptr %51, align 4, !dbg !8834
  br label %66, !dbg !8836

66:                                               ; preds = %60, %48
  %67 = phi ptr [ %65, %60 ], [ %50, %48 ], !dbg !8834
  %68 = phi ptr [ %64, %60 ], [ %55, %48 ], !dbg !8837
  call void @llvm.dbg.value(metadata ptr %0, metadata !7951, metadata !DIExpression()), !dbg !8839
  %69 = getelementptr inbounds %"class.std::__h::basic_streambuf", ptr %0, i32 0, i32 6, !dbg !8837
  call void @llvm.dbg.value(metadata ptr %0, metadata !7963, metadata !DIExpression()), !dbg !8840
  %70 = icmp eq ptr %68, %67, !dbg !8841
  br i1 %70, label %142, label %71, !dbg !8842

71:                                               ; preds = %66
  %72 = getelementptr inbounds %"class.std::__h::basic_filebuf", ptr %0, i32 0, i32 16, !dbg !8843
  %73 = load i8, ptr %72, align 2, !dbg !8843, !range !7643
  %74 = icmp eq i8 %73, 0, !dbg !8843
  br i1 %74, label %82, label %75, !dbg !8844

75:                                               ; preds = %71
  call void @llvm.dbg.value(metadata i32 0, metadata !8724, metadata !DIExpression()), !dbg !8845
  call void @llvm.dbg.value(metadata ptr %0, metadata !7951, metadata !DIExpression()), !dbg !8846
  call void @llvm.dbg.value(metadata ptr %0, metadata !7963, metadata !DIExpression()), !dbg !8848
  %76 = ptrtoint ptr %68 to i32, !dbg !8850
  %77 = ptrtoint ptr %67 to i32, !dbg !8850
  %78 = sub i32 %76, %77, !dbg !8850
  call void @llvm.dbg.value(metadata i32 %78, metadata !8724, metadata !DIExpression()), !dbg !8845
  call void @llvm.dbg.value(metadata ptr %0, metadata !7963, metadata !DIExpression()), !dbg !8851
  %79 = load ptr, ptr %6, align 4, !dbg !8854
  %80 = call i32 @fwrite(ptr noundef %67, i32 noundef 1, i32 noundef %78, ptr noundef %79), !dbg !8855
  %81 = icmp eq i32 %80, %78, !dbg !8856
  br i1 %81, label %141, label %145

82:                                               ; preds = %71
  call void @llvm.lifetime.start.p0(i64 4, ptr nonnull %4) #18, !dbg !8857
  call void @llvm.dbg.declare(metadata ptr %4, metadata !8729, metadata !DIExpression()), !dbg !8858
  %83 = getelementptr inbounds %"class.std::__h::basic_filebuf", ptr %0, i32 0, i32 1, !dbg !8859
  %84 = load ptr, ptr %83, align 4, !dbg !8859
  store ptr %84, ptr %4, align 4, !dbg !8858
  call void @llvm.dbg.value(metadata i32 0, metadata !8731, metadata !DIExpression()), !dbg !8860
  %85 = getelementptr inbounds %"class.std::__h::basic_filebuf", ptr %0, i32 0, i32 9
  %86 = load ptr, ptr %85, align 4, !dbg !8861
  %87 = icmp eq ptr %86, null, !dbg !8861
  br i1 %87, label %91, label %88, !dbg !8863

88:                                               ; preds = %82
  %89 = getelementptr inbounds %"class.std::__h::basic_filebuf", ptr %0, i32 0, i32 10
  %90 = getelementptr inbounds %"class.std::__h::basic_filebuf", ptr %0, i32 0, i32 5
  br label %92, !dbg !8863

91:                                               ; preds = %131, %82
  call void @_ZNSt3__h16__throw_bad_castB6v15004Ev() #20, !dbg !8864
  unreachable, !dbg !8864

92:                                               ; preds = %131, %88
  %93 = phi ptr [ %68, %88 ], [ %137, %131 ], !dbg !8865
  %94 = phi ptr [ %67, %88 ], [ %132, %131 ], !dbg !8867
  %95 = phi ptr [ %86, %88 ], [ %138, %131 ]
  call void @llvm.lifetime.start.p0(i64 4, ptr nonnull %5) #18, !dbg !8869
  call void @llvm.dbg.declare(metadata ptr %5, metadata !8732, metadata !DIExpression()), !dbg !8870
  store ptr null, ptr %5, align 4, !dbg !8870, !annotation !7070
  call void @llvm.dbg.value(metadata ptr %0, metadata !7963, metadata !DIExpression()), !dbg !8871
  call void @llvm.dbg.value(metadata ptr %0, metadata !7951, metadata !DIExpression()), !dbg !8872
  %96 = load ptr, ptr %83, align 4, !dbg !8873
  %97 = load i32, ptr %90, align 4, !dbg !8874
  %98 = getelementptr inbounds i8, ptr %96, i32 %97, !dbg !8875
  call void @llvm.dbg.value(metadata ptr %95, metadata !8876, metadata !DIExpression()), !dbg !8892
  call void @llvm.dbg.value(metadata ptr %89, metadata !8885, metadata !DIExpression()), !dbg !8892
  call void @llvm.dbg.value(metadata ptr %94, metadata !8886, metadata !DIExpression()), !dbg !8892
  call void @llvm.dbg.value(metadata ptr %93, metadata !8887, metadata !DIExpression()), !dbg !8892
  call void @llvm.dbg.value(metadata ptr %5, metadata !8888, metadata !DIExpression()), !dbg !8892
  call void @llvm.dbg.value(metadata ptr %96, metadata !8889, metadata !DIExpression()), !dbg !8892
  call void @llvm.dbg.value(metadata ptr %98, metadata !8890, metadata !DIExpression()), !dbg !8892
  call void @llvm.dbg.value(metadata ptr %4, metadata !8891, metadata !DIExpression()), !dbg !8892
  %99 = load ptr, ptr %95, align 4, !dbg !8894
  %100 = getelementptr inbounds ptr, ptr %99, i32 3, !dbg !8894
  %101 = load ptr, ptr %100, align 4, !dbg !8894
  %102 = call noundef i32 %101(ptr noundef nonnull align 4 dereferenceable(8) %95, ptr noundef nonnull align 4 dereferenceable(8) %89, ptr noundef %94, ptr noundef %93, ptr noundef nonnull align 4 dereferenceable(4) %5, ptr noundef %96, ptr noundef %98, ptr noundef nonnull align 4 dereferenceable(4) %4) #18, !dbg !8894
  call void @llvm.dbg.value(metadata i32 %102, metadata !8731, metadata !DIExpression()), !dbg !8860
  %103 = load ptr, ptr %5, align 4, !dbg !8895
  call void @llvm.dbg.value(metadata ptr %0, metadata !7963, metadata !DIExpression()), !dbg !8897
  %104 = load ptr, ptr %51, align 4, !dbg !8899
  %105 = icmp eq ptr %103, %104, !dbg !8900
  br i1 %105, label %144, label %106, !dbg !8901

106:                                              ; preds = %92
  %107 = icmp eq i32 %102, 3, !dbg !8902
  br i1 %107, label %108, label %117, !dbg !8903

108:                                              ; preds = %106
  call void @llvm.dbg.value(metadata i32 0, metadata !8736, metadata !DIExpression()), !dbg !8904
  call void @llvm.dbg.value(metadata ptr %0, metadata !7951, metadata !DIExpression()), !dbg !8905
  %109 = load ptr, ptr %69, align 4, !dbg !8907
  call void @llvm.dbg.value(metadata ptr %0, metadata !7963, metadata !DIExpression()), !dbg !8908
  %110 = ptrtoint ptr %109 to i32, !dbg !8910
  %111 = ptrtoint ptr %104 to i32, !dbg !8910
  %112 = sub i32 %110, %111, !dbg !8910
  call void @llvm.dbg.value(metadata i32 %112, metadata !8736, metadata !DIExpression()), !dbg !8904
  call void @llvm.dbg.value(metadata ptr %0, metadata !7963, metadata !DIExpression()), !dbg !8911
  %113 = load ptr, ptr %6, align 4, !dbg !8914
  %114 = call i32 @fwrite(ptr noundef %104, i32 noundef 1, i32 noundef %112, ptr noundef %113), !dbg !8915
  %115 = icmp eq i32 %114, %112, !dbg !8916
  br i1 %115, label %116, label %144, !dbg !8917

116:                                              ; preds = %108
  call void @llvm.lifetime.end.p0(i64 4, ptr nonnull %5) #18, !dbg !8918
  br label %140, !dbg !8919

117:                                              ; preds = %106
  %118 = icmp eq i32 %102, 1
  %119 = icmp ult i32 %102, 2, !dbg !8920
  br i1 %119, label %120, label %144, !dbg !8920

120:                                              ; preds = %117
  call void @llvm.dbg.value(metadata i32 0, metadata !8739, metadata !DIExpression()), !dbg !8921
  %121 = load ptr, ptr %4, align 4, !dbg !8922
  %122 = load ptr, ptr %83, align 4, !dbg !8923
  %123 = ptrtoint ptr %121 to i32, !dbg !8924
  %124 = ptrtoint ptr %122 to i32, !dbg !8924
  %125 = sub i32 %123, %124, !dbg !8924
  call void @llvm.dbg.value(metadata i32 %125, metadata !8739, metadata !DIExpression()), !dbg !8921
  %126 = load ptr, ptr %6, align 4, !dbg !8925
  %127 = call i32 @fwrite(ptr noundef %122, i32 noundef 1, i32 noundef %125, ptr noundef %126), !dbg !8927
  %128 = icmp eq i32 %127, %125, !dbg !8928
  br i1 %128, label %129, label %144, !dbg !8929

129:                                              ; preds = %120
  br i1 %118, label %131, label %130, !dbg !8930

130:                                              ; preds = %129
  call void @llvm.lifetime.end.p0(i64 4, ptr nonnull %5) #18, !dbg !8918
  br label %140, !dbg !8919

131:                                              ; preds = %129
  %132 = load ptr, ptr %5, align 4, !dbg !8931
  call void @llvm.dbg.value(metadata ptr %0, metadata !7951, metadata !DIExpression()), !dbg !8934
  %133 = load ptr, ptr %69, align 4, !dbg !8936
  call void @llvm.dbg.value(metadata ptr %0, metadata !8178, metadata !DIExpression()), !dbg !8937
  call void @llvm.dbg.value(metadata ptr %132, metadata !8184, metadata !DIExpression()), !dbg !8937
  call void @llvm.dbg.value(metadata ptr %133, metadata !8185, metadata !DIExpression()), !dbg !8937
  store ptr %132, ptr %51, align 4, !dbg !8939
  store ptr %133, ptr %52, align 4, !dbg !8940
  call void @llvm.dbg.value(metadata ptr %0, metadata !8763, metadata !DIExpression()), !dbg !8941
  call void @llvm.dbg.value(metadata ptr %0, metadata !7963, metadata !DIExpression()), !dbg !8943
  %134 = ptrtoint ptr %133 to i32, !dbg !8945
  %135 = ptrtoint ptr %132 to i32, !dbg !8945
  %136 = sub i32 %134, %135, !dbg !8945
  call void @llvm.dbg.value(metadata ptr %0, metadata !8946, metadata !DIExpression()), !dbg !8953
  call void @llvm.dbg.value(metadata i32 %136, metadata !8952, metadata !DIExpression()), !dbg !8953
  %137 = getelementptr inbounds i8, ptr %132, i32 %136, !dbg !8955
  store ptr %137, ptr %69, align 4, !dbg !8955
  call void @llvm.lifetime.end.p0(i64 4, ptr nonnull %5) #18, !dbg !8918
  %138 = load ptr, ptr %85, align 4, !dbg !8861
  %139 = icmp eq ptr %138, null, !dbg !8861
  br i1 %139, label %91, label %92, !dbg !8863, !llvm.loop !8956

140:                                              ; preds = %130, %116
  call void @llvm.lifetime.end.p0(i64 4, ptr nonnull %4) #18, !dbg !8960
  br label %141

141:                                              ; preds = %140, %75
  call void @llvm.dbg.value(metadata ptr %0, metadata !8178, metadata !DIExpression()), !dbg !8961
  call void @llvm.dbg.value(metadata ptr %50, metadata !8184, metadata !DIExpression()), !dbg !8961
  call void @llvm.dbg.value(metadata ptr %49, metadata !8185, metadata !DIExpression()), !dbg !8961
  store ptr %50, ptr %69, align 4, !dbg !8963
  store ptr %50, ptr %51, align 4, !dbg !8964
  store ptr %49, ptr %52, align 4, !dbg !8965
  br label %142, !dbg !8966

142:                                              ; preds = %141, %66
  call void @llvm.dbg.value(metadata i32 %1, metadata !8688, metadata !DIExpression()), !dbg !8967
  call void @llvm.dbg.value(metadata i32 %1, metadata !7738, metadata !DIExpression()), !dbg !8969
  call void @llvm.dbg.value(metadata i32 -1, metadata !7741, metadata !DIExpression()), !dbg !8969
  %143 = select i1 %53, i32 0, i32 %1, !dbg !8971
  br label %145, !dbg !8972

144:                                              ; preds = %120, %117, %108, %92
  call void @llvm.lifetime.end.p0(i64 4, ptr nonnull %5) #18, !dbg !8918
  call void @llvm.lifetime.end.p0(i64 4, ptr nonnull %4) #18, !dbg !8960
  br label %145

145:                                              ; preds = %144, %142, %75
  %146 = phi i32 [ %143, %142 ], [ -1, %75 ], [ -1, %144 ], !dbg !8742
  call void @llvm.lifetime.end.p0(i64 1, ptr nonnull %3) #18, !dbg !8973
  br label %147

147:                                              ; preds = %145, %2
  %148 = phi i32 [ %146, %145 ], [ -1, %2 ], !dbg !8742
  ret i32 %148, !dbg !8973
}

; Function Attrs: nocallback nofree nosync nounwind readnone speculatable willreturn
declare i32 @llvm.umin.i32(i32, i32) #1

; Function Attrs: argmemonly nocallback nofree nounwind willreturn
declare void @llvm.memmove.p0.p0.i32(ptr nocapture writeonly, ptr nocapture readonly, i32, i1 immarg) #11

; Function Attrs: nofree nounwind
declare noundef i32 @fread(ptr nocapture noundef, i32 noundef, i32 noundef, ptr nocapture noundef) local_unnamed_addr #5

; Function Attrs: inaccessiblememonly nocallback nofree nosync nounwind willreturn
declare void @llvm.assume(i1 noundef) #12

; Function Attrs: nofree nounwind
declare noundef i64 @ftello(ptr nocapture noundef) local_unnamed_addr #5

; Function Attrs: nobuiltin allocsize(0)
declare noundef nonnull ptr @_Znaj(i32 noundef) local_unnamed_addr #13

; Function Attrs: nocallback nofree nosync nounwind readnone speculatable willreturn
declare i32 @llvm.smax.i32(i32, i32) #1

declare noundef ptr @_ZNSt3__h13basic_ostreamIcNS_11char_traitsIcEEE6sentryC1ERS3_(ptr noundef nonnull returned align 4 dereferenceable(8), ptr noundef nonnull align 4 dereferenceable(4)) unnamed_addr #4

; Function Attrs: nounwind sspstrong uwtable(sync)
define linkonce_odr hidden i32 @_ZNSt3__h16__pad_and_outputIcNS_11char_traitsIcEEEENS_19ostreambuf_iteratorIT_T0_EES6_PKS4_S8_S8_RNS_8ios_baseES4_([1 x i32] %0, ptr noundef %1, ptr noundef %2, ptr noundef %3, ptr noundef nonnull align 4 dereferenceable(72) %4, i8 noundef zeroext %5) local_unnamed_addr #0 comdat !dbg !8974 {
  %7 = alloca %"class.std::__h::basic_string", align 4
  %8 = extractvalue [1 x i32] %0, 0
  %9 = inttoptr i32 %8 to ptr
  call void @llvm.dbg.value(metadata ptr %9, metadata !8980, metadata !DIExpression()), !dbg !8992
  call void @llvm.dbg.value(metadata ptr %1, metadata !8981, metadata !DIExpression()), !dbg !8992
  call void @llvm.dbg.value(metadata ptr %2, metadata !8982, metadata !DIExpression()), !dbg !8992
  call void @llvm.dbg.value(metadata ptr %3, metadata !8983, metadata !DIExpression()), !dbg !8992
  call void @llvm.dbg.value(metadata ptr %4, metadata !8984, metadata !DIExpression()), !dbg !8992
  call void @llvm.dbg.value(metadata i8 %5, metadata !8985, metadata !DIExpression()), !dbg !8992
  %10 = icmp eq i32 %8, 0, !dbg !8993
  br i1 %10, label %75, label %11, !dbg !8995

11:                                               ; preds = %6
  call void @llvm.dbg.value(metadata i32 0, metadata !8986, metadata !DIExpression()), !dbg !8992
  %12 = ptrtoint ptr %3 to i32, !dbg !8996
  %13 = ptrtoint ptr %1 to i32, !dbg !8996
  %14 = sub i32 %12, %13, !dbg !8996
  call void @llvm.dbg.value(metadata i32 %14, metadata !8986, metadata !DIExpression()), !dbg !8992
  call void @llvm.dbg.value(metadata i32 0, metadata !8987, metadata !DIExpression()), !dbg !8992
  call void @llvm.dbg.value(metadata ptr %4, metadata !8997, metadata !DIExpression()), !dbg !9003
  %15 = getelementptr inbounds %"class.std::__h::ios_base", ptr %4, i32 0, i32 3, !dbg !9005
  %16 = load i32, ptr %15, align 4, !dbg !9005
  call void @llvm.dbg.value(metadata i32 %16, metadata !8987, metadata !DIExpression()), !dbg !8992
  %17 = icmp sgt i32 %16, %14, !dbg !9006
  %18 = sub nsw i32 %16, %14, !dbg !9008
  %19 = select i1 %17, i32 %18, i32 0, !dbg !9008
  call void @llvm.dbg.value(metadata i32 %19, metadata !8987, metadata !DIExpression()), !dbg !8992
  call void @llvm.dbg.value(metadata i32 0, metadata !8988, metadata !DIExpression()), !dbg !8992
  %20 = ptrtoint ptr %2 to i32, !dbg !9009
  %21 = sub i32 %20, %13, !dbg !9009
  call void @llvm.dbg.value(metadata i32 %21, metadata !8988, metadata !DIExpression()), !dbg !8992
  %22 = icmp sgt i32 %21, 0, !dbg !9010
  br i1 %22, label %23, label %29, !dbg !9012

23:                                               ; preds = %11
  call void @llvm.dbg.value(metadata ptr %9, metadata !9013, metadata !DIExpression()), !dbg !9023
  call void @llvm.dbg.value(metadata ptr %1, metadata !9021, metadata !DIExpression()), !dbg !9023
  call void @llvm.dbg.value(metadata i32 %21, metadata !9022, metadata !DIExpression()), !dbg !9023
  %24 = load ptr, ptr %9, align 4, !dbg !9027
  %25 = getelementptr inbounds ptr, ptr %24, i32 12, !dbg !9027
  %26 = load ptr, ptr %25, align 4, !dbg !9027
  %27 = tail call noundef i32 %26(ptr noundef nonnull align 4 dereferenceable(32) %9, ptr noundef %1, i32 noundef %21) #18, !dbg !9027
  %28 = icmp eq i32 %27, %21, !dbg !9028
  br i1 %28, label %29, label %75, !dbg !9029

29:                                               ; preds = %23, %11
  %30 = icmp sgt i32 %19, 0, !dbg !9030
  br i1 %30, label %31, label %65, !dbg !9031

31:                                               ; preds = %29
  call void @llvm.lifetime.start.p0(i64 12, ptr nonnull %7) #18, !dbg !9032
  call void @llvm.dbg.declare(metadata ptr %7, metadata !8989, metadata !DIExpression()), !dbg !9033
  call void @llvm.memset.p0.i32(ptr noundef nonnull align 4 dereferenceable(12) %7, i8 0, i32 12, i1 false), !dbg !9033, !annotation !7070
  call void @llvm.dbg.value(metadata ptr %7, metadata !9034, metadata !DIExpression()), !dbg !9039
  call void @llvm.dbg.value(metadata i32 %19, metadata !9037, metadata !DIExpression()), !dbg !9039
  call void @llvm.dbg.value(metadata i8 %5, metadata !9038, metadata !DIExpression()), !dbg !9039
  call void @llvm.dbg.value(metadata ptr %7, metadata !9041, metadata !DIExpression()), !dbg !9057
  call void @llvm.dbg.value(metadata i32 %19, metadata !9044, metadata !DIExpression()), !dbg !9057
  call void @llvm.dbg.value(metadata i8 %5, metadata !9045, metadata !DIExpression()), !dbg !9057
  call void @llvm.dbg.value(metadata ptr null, metadata !9046, metadata !DIExpression()), !dbg !9057
  call void @llvm.dbg.value(metadata i32 %19, metadata !9060, metadata !DIExpression()), !dbg !9063
  %32 = icmp ult i32 %19, 11, !dbg !9065
  br i1 %32, label %40, label %33, !dbg !9066

33:                                               ; preds = %31
  call void @llvm.dbg.value(metadata ptr null, metadata !9047, metadata !DIExpression(DW_OP_LLVM_fragment, 0, 32)), !dbg !9067
  call void @llvm.dbg.value(metadata i32 0, metadata !9047, metadata !DIExpression(DW_OP_LLVM_fragment, 32, 32)), !dbg !9067
  call void @llvm.dbg.value(metadata i32 %19, metadata !9068, metadata !DIExpression()), !dbg !9072
  %34 = add nuw i32 %19, 16, !dbg !9074
  %35 = and i32 %34, -16, !dbg !9074
  call void @llvm.dbg.value(metadata ptr %7, metadata !9075, metadata !DIExpression()), !dbg !9081
  call void @llvm.dbg.value(metadata i32 %35, metadata !9080, metadata !DIExpression()), !dbg !9081
  call void @llvm.dbg.value(metadata ptr %7, metadata !9083, metadata !DIExpression()), !dbg !9087
  call void @llvm.dbg.value(metadata i32 %35, metadata !9086, metadata !DIExpression()), !dbg !9087
  call void @llvm.dbg.value(metadata i32 %35, metadata !9089, metadata !DIExpression()), !dbg !9096
  call void @llvm.dbg.value(metadata i32 1, metadata !9092, metadata !DIExpression()), !dbg !9096
  call void @llvm.dbg.value(metadata i32 %35, metadata !9100, metadata !DIExpression()), !dbg !9109
