; ModuleID = 'i_sdemo_service.ll'
source_filename = "../../sdemoservice/src/i_sdemo_service.cpp"
target datalayout = "e-m:e-p:32:32-Fi8-i64:64-v128:64:128-a:0:32-n32-S64"
target triple = "thumbv7-unknown-linux-ohos"

%"class.std::__h::basic_ostream" = type { ptr, %"class.std::__h::basic_ios" }
%"class.std::__h::basic_ios" = type { %"class.std::__h::ios_base", ptr, i32 }
%"class.std::__h::ios_base" = type { ptr, i32, i32, i32, i32, i32, ptr, ptr, ptr, ptr, i32, i32, ptr, i32, i32, ptr, i32, i32 }
%"class.std::__h::locale::id" = type { %"struct.std::__h::once_flag", i32 }
%"struct.std::__h::once_flag" = type { i32 }
%"class.std::__h::basic_string" = type { %"class.std::__h::__compressed_pair" }
%"class.std::__h::__compressed_pair" = type { %"struct.std::__h::__compressed_pair_elem" }
%"struct.std::__h::__compressed_pair_elem" = type { %"struct.std::__h::basic_string<char>::__rep" }
%"struct.std::__h::basic_string<char>::__rep" = type { %union.anon }
%union.anon = type { %"struct.std::__h::basic_string<char>::__long" }
%"struct.std::__h::basic_string<char>::__long" = type { %struct.anon, i32, ptr }
%struct.anon = type { i32 }
%"class.std::__h::basic_ifstream" = type { %"class.std::__h::basic_istream.base", %"class.std::__h::basic_filebuf", %"class.std::__h::basic_ios" }
%"class.std::__h::basic_istream.base" = type { ptr, i32 }
%"class.std::__h::basic_filebuf" = type <{ %"class.std::__h::basic_streambuf", ptr, ptr, ptr, [8 x i8], i32, ptr, i32, ptr, ptr, %struct.__mbstate_t, %struct.__mbstate_t, i32, i32, i8, i8, i8, i8 }>
%"class.std::__h::basic_streambuf" = type { ptr, %"class.std::__h::locale", ptr, ptr, ptr, ptr, ptr, ptr }
%"class.std::__h::locale" = type { ptr }
%struct.__mbstate_t = type { i32, i32 }
%"class.std::__h::basic_ofstream" = type { %"class.std::__h::basic_ostream.base", %"class.std::__h::basic_filebuf", %"class.std::__h::basic_ios" }
%"class.std::__h::basic_ostream.base" = type { ptr }
%"struct.std::__h::__default_init_tag" = type { i8 }
%"struct.std::__h::__uninitialized_size_tag" = type { i8 }
%"class.std::__h::allocator" = type { i8 }
%"class.std::__h::unique_ptr" = type { %"class.std::__h::__compressed_pair.2" }
%"class.std::__h::__compressed_pair.2" = type { %"struct.std::__h::__compressed_pair_elem.3", %"struct.std::__h::__compressed_pair_elem.4" }
%"struct.std::__h::__compressed_pair_elem.3" = type { ptr }
%"struct.std::__h::__compressed_pair_elem.4" = type { ptr }
%"class.std::__h::fpos" = type { %struct.__mbstate_t, i64 }
%"struct.std::__h::__less" = type { i8 }
%"struct.std::__h::__less.5" = type { i8 }
%"struct.std::__h::basic_string<char>::__short" = type { %struct.anon.0, [0 x i8], [11 x i8] }
%struct.anon.0 = type { i8 }
%"struct.std::__h::pair" = type { ptr, ptr }
%"struct.std::__h::pair.6" = type { ptr, ptr }
%"class.std::__h::basic_istream" = type { ptr, i32, %"class.std::__h::basic_ios" }
%"class.std::__h::basic_istream<char>::sentry" = type { i8 }
%"class.std::__h::basic_ostream<char>::sentry" = type { i8, ptr }
%"class.std::__h::ostreambuf_iterator" = type { ptr }

$_ZNSt3__h12basic_stringIcNS_11char_traitsIcEENS_9allocatorIcEEEC2B6v15004IDnEEPKc = comdat any

$_ZNSt3__hplB6v15004IcNS_11char_traitsIcEENS_9allocatorIcEEEENS_12basic_stringIT_T0_T1_EEOS9_RKS9_ = comdat any

$_ZNSt3__hplIcNS_11char_traitsIcEENS_9allocatorIcEEEENS_12basic_stringIT_T0_T1_EERKS9_SB_ = comdat any

$_ZNSt3__h14basic_ifstreamIcNS_11char_traitsIcEEEC1ERKNS_12basic_stringIcS2_NS_9allocatorIcEEEEj = comdat any

$_ZNSt3__h14basic_ofstreamIcNS_11char_traitsIcEEEC1EPKcj = comdat any

$_ZNSt3__h12basic_stringIcNS_11char_traitsIcEENS_9allocatorIcEEEC2B6v15004Ev = comdat any

$_ZNKSt3__h14basic_ifstreamIcNS_11char_traitsIcEEE7is_openEv = comdat any

$_ZNKSt3__h14basic_ofstreamIcNS_11char_traitsIcEEE7is_openEv = comdat any

$_ZNSt3__h7getlineB6v15004IcNS_11char_traitsIcEENS_9allocatorIcEEEERNS_13basic_istreamIT_T0_EES9_RNS_12basic_stringIS6_S7_T1_EE = comdat any

$_ZNKSt3__h9basic_iosIcNS_11char_traitsIcEEEcvbB6v15004Ev = comdat any

$_ZNSt3__hlsIcNS_11char_traitsIcEENS_9allocatorIcEEEERNS_13basic_ostreamIT_T0_EES9_RKNS_12basic_stringIS6_S7_T1_EE = comdat any

$_ZNSt3__h13basic_ostreamIcNS_11char_traitsIcEEElsB6v15004EPFRS3_S4_E = comdat any

$_ZNSt3__h4endlIcNS_11char_traitsIcEEEERNS_13basic_ostreamIT_T0_EES7_ = comdat any

$_ZNSt3__h14basic_ofstreamIcNS_11char_traitsIcEEED1Ev = comdat any

$_ZNSt3__h14basic_ifstreamIcNS_11char_traitsIcEEED1Ev = comdat any

$_ZNSt3__h14basic_ifstreamIcNS_11char_traitsIcEEEC1EPKcj = comdat any

$_ZNSt3__hlsINS_11char_traitsIcEEEERNS_13basic_ostreamIcT_EES6_PKc = comdat any

$_ZNSt3__h14basic_ofstreamIcNS_11char_traitsIcEEED2Ev = comdat any

$_ZTv0_n12_NSt3__h14basic_ofstreamIcNS_11char_traitsIcEEED1Ev = comdat any

$_ZNSt3__h14basic_ofstreamIcNS_11char_traitsIcEEED0Ev = comdat any

$_ZTv0_n12_NSt3__h14basic_ofstreamIcNS_11char_traitsIcEEED0Ev = comdat any

$_ZNSt3__h13basic_filebufIcNS_11char_traitsIcEEED2Ev = comdat any

$_ZNSt3__h13basic_filebufIcNS_11char_traitsIcEEE5closeEv = comdat any

$_ZNSt3__h13basic_filebufIcNS_11char_traitsIcEEED0Ev = comdat any

$_ZNSt3__h13basic_filebufIcNS_11char_traitsIcEEE5imbueERKNS_6localeE = comdat any

$_ZNSt3__h13basic_filebufIcNS_11char_traitsIcEEE6setbufEPci = comdat any

$_ZNSt3__h13basic_filebufIcNS_11char_traitsIcEEE7seekoffExNS_8ios_base7seekdirEj = comdat any

$_ZNSt3__h13basic_filebufIcNS_11char_traitsIcEEE7seekposENS_4fposI11__mbstate_tEEj = comdat any

$_ZNSt3__h13basic_filebufIcNS_11char_traitsIcEEE4syncEv = comdat any

$_ZNSt3__h13basic_filebufIcNS_11char_traitsIcEEE9underflowEv = comdat any

$_ZNSt3__h13basic_filebufIcNS_11char_traitsIcEEE9pbackfailEi = comdat any

$_ZNSt3__h13basic_filebufIcNS_11char_traitsIcEEE8overflowEi = comdat any

$_ZNSt3__h10unique_ptrI8_IO_FILEPFiPS1_EEC2B6v15004ILb1EvEES2_NS_16__dependent_typeINS_27__unique_ptr_deleter_sfinaeIS4_EEXT_EE20__good_rval_ref_typeE = comdat any

$_ZNSt3__h10unique_ptrI8_IO_FILEPFiPS1_EE7releaseB6v15004Ev = comdat any

$_ZNSt3__h10unique_ptrI8_IO_FILEPFiPS1_EED2B6v15004Ev = comdat any

$_ZNSt3__h17__compressed_pairIP8_IO_FILEPFiS2_EEC2B6v15004IRS2_S4_EEOT_OT0_ = comdat any

$_ZNSt3__h22__compressed_pair_elemIP8_IO_FILELi0ELb0EEC2B6v15004IRS2_vEEOT_ = comdat any

$_ZNSt3__h22__compressed_pair_elemIPFiP8_IO_FILEELi1ELb0EEC2B6v15004IS4_vEEOT_ = comdat any

$_ZNSt3__h17__compressed_pairIP8_IO_FILEPFiS2_EE5firstB6v15004Ev = comdat any

$_ZNSt3__h22__compressed_pair_elemIP8_IO_FILELi0ELb0EE5__getB6v15004Ev = comdat any

$_ZNSt3__h10unique_ptrI8_IO_FILEPFiPS1_EE5resetB6v15004ES2_ = comdat any

$_ZNSt3__h17__compressed_pairIP8_IO_FILEPFiS2_EE6secondB6v15004Ev = comdat any

$_ZNSt3__h22__compressed_pair_elemIPFiP8_IO_FILEELi1ELb0EE5__getB6v15004Ev = comdat any

$_ZNSt3__h9use_facetB6v15004INS_7codecvtIcc11__mbstate_tEEEERKT_RKNS_6localeE = comdat any

$_ZNKSt3__h7codecvtIcc11__mbstate_tE13always_noconvB6v15004Ev = comdat any

$_ZNSt3__h15basic_streambufIcNS_11char_traitsIcEEE4setgB6v15004EPcS4_S4_ = comdat any

$_ZNSt3__h15basic_streambufIcNS_11char_traitsIcEEE4setpB6v15004EPcS4_ = comdat any

$_ZNSt3__h3maxB6v15004IiEERKT_S3_S3_ = comdat any

$_ZNSt3__h3maxB6v15004IiNS_6__lessIiiEEEERKT_S5_S5_T0_ = comdat any

$_ZNKSt3__h6__lessIiiEclB6v15004ERKiS3_ = comdat any

$_ZNSt3__h16__throw_bad_castB6v15004Ev = comdat any

$_ZNKSt3__h7codecvtIcc11__mbstate_tE8encodingB6v15004Ev = comdat any

$_ZNSt3__h4fposI11__mbstate_tEC2B6v15004Ex = comdat any

$_ZNSt3__h4fposI11__mbstate_tE5stateB6v15004ES1_ = comdat any

$_ZNKSt3__h4fposI11__mbstate_tEcvxB6v15004Ev = comdat any

$_ZNKSt3__h4fposI11__mbstate_tE5stateB6v15004Ev = comdat any

$_ZNKSt3__h15basic_streambufIcNS_11char_traitsIcEEE4pptrB6v15004Ev = comdat any

$_ZNKSt3__h15basic_streambufIcNS_11char_traitsIcEEE5pbaseB6v15004Ev = comdat any

$_ZNSt3__h11char_traitsIcE3eofEv = comdat any

$_ZNKSt3__h7codecvtIcc11__mbstate_tE7unshiftB6v15004ERS1_PcS4_RS4_ = comdat any

$_ZNKSt3__h15basic_streambufIcNS_11char_traitsIcEEE5egptrB6v15004Ev = comdat any

$_ZNKSt3__h15basic_streambufIcNS_11char_traitsIcEEE4gptrB6v15004Ev = comdat any

$_ZNKSt3__h7codecvtIcc11__mbstate_tE6lengthB6v15004ERS1_PKcS5_j = comdat any

$_ZNKSt3__h15basic_streambufIcNS_11char_traitsIcEEE5ebackB6v15004Ev = comdat any

$_ZNSt3__h13basic_filebufIcNS_11char_traitsIcEEE11__read_modeEv = comdat any

$_ZNSt3__h3minB6v15004IjEERKT_S3_S3_ = comdat any

$_ZNSt3__h11char_traitsIcE11to_int_typeEc = comdat any

$_ZNKSt3__h7codecvtIcc11__mbstate_tE2inB6v15004ERS1_PKcS5_RS5_PcS7_RS7_ = comdat any

$_ZNSt3__h3minB6v15004IjNS_6__lessIjjEEEERKT_S5_S5_T0_ = comdat any

$_ZNKSt3__h6__lessIjjEclB6v15004ERKjS3_ = comdat any

$_ZNSt3__h11char_traitsIcE11eq_int_typeEii = comdat any

$_ZNSt3__h15basic_streambufIcNS_11char_traitsIcEEE5gbumpB6v15004Ei = comdat any

$_ZNSt3__h11char_traitsIcE7not_eofEi = comdat any

$_ZNSt3__h11char_traitsIcE2eqEcc = comdat any

$_ZNSt3__h11char_traitsIcE12to_char_typeEi = comdat any

$_ZNSt3__h13basic_filebufIcNS_11char_traitsIcEEE12__write_modeEv = comdat any

$_ZNKSt3__h15basic_streambufIcNS_11char_traitsIcEEE5epptrB6v15004Ev = comdat any

$_ZNSt3__h15basic_streambufIcNS_11char_traitsIcEEE5pbumpB6v15004Ei = comdat any

$_ZNKSt3__h7codecvtIcc11__mbstate_tE3outB6v15004ERS1_PKcS5_RS5_PcS7_RS7_ = comdat any

$_ZNSt3__h15basic_streambufIcNS_11char_traitsIcEEE7__pbumpB6v15004Ei = comdat any

$_ZNSt3__h14basic_ifstreamIcNS_11char_traitsIcEEED2Ev = comdat any

$_ZTv0_n12_NSt3__h14basic_ifstreamIcNS_11char_traitsIcEEED1Ev = comdat any

$_ZNSt3__h14basic_ifstreamIcNS_11char_traitsIcEEED0Ev = comdat any

$_ZTv0_n12_NSt3__h14basic_ifstreamIcNS_11char_traitsIcEEED0Ev = comdat any

$_ZNSt3__h17__compressed_pairINS_12basic_stringIcNS_11char_traitsIcEENS_9allocatorIcEEE5__repES5_EC2B6v15004INS_18__default_init_tagESA_EEOT_OT0_ = comdat any

$_ZNSt3__h19__debug_db_insert_cB6v15004INS_12basic_stringIcNS_11char_traitsIcEENS_9allocatorIcEEEEEEvPT_ = comdat any

$_ZNSt3__h12basic_stringIcNS_11char_traitsIcEENS_9allocatorIcEEE14__default_initB6v15004Ev = comdat any

$_ZNSt3__h22__compressed_pair_elemINS_12basic_stringIcNS_11char_traitsIcEENS_9allocatorIcEEE5__repELi0ELb0EEC2B6v15004ENS_18__default_init_tagE = comdat any

$_ZNSt3__h22__compressed_pair_elemINS_9allocatorIcEELi1ELb1EEC2B6v15004ENS_18__default_init_tagE = comdat any

$_ZNSt3__h9allocatorIcEC2B6v15004Ev = comdat any

$_ZNSt3__h16__non_trivial_ifILb1ENS_9allocatorIcEEEC2B6v15004Ev = comdat any

$_ZNSt3__h12basic_stringIcNS_11char_traitsIcEENS_9allocatorIcEEE6__zeroB6v15004Ev = comdat any

$_ZNSt3__h17__compressed_pairINS_12basic_stringIcNS_11char_traitsIcEENS_9allocatorIcEEE5__repES5_E5firstB6v15004Ev = comdat any

$_ZNSt3__h22__compressed_pair_elemINS_12basic_stringIcNS_11char_traitsIcEENS_9allocatorIcEEE5__repELi0ELb0EE5__getB6v15004Ev = comdat any

$_ZNSt3__h11char_traitsIcE6lengthEPKc = comdat any

$_ZNKSt3__h12basic_stringIcNS_11char_traitsIcEENS_9allocatorIcEEE4sizeB6v15004Ev = comdat any

$_ZNSt3__h16allocator_traitsINS_9allocatorIcEEE37select_on_container_copy_constructionB6v15004IS2_vvEES2_RKS2_ = comdat any

$_ZNKSt3__h12basic_stringIcNS_11char_traitsIcEENS_9allocatorIcEEE13get_allocatorB6v15004Ev = comdat any

$_ZNSt3__h12basic_stringIcNS_11char_traitsIcEENS_9allocatorIcEEEC2B6v15004ENS_24__uninitialized_size_tagEjRKS4_ = comdat any

$_ZNSt3__h12__to_addressB6v15004IcEEPT_S2_ = comdat any

$_ZNSt3__h12basic_stringIcNS_11char_traitsIcEENS_9allocatorIcEEE13__get_pointerB6v15004Ev = comdat any

$_ZNSt3__h11char_traitsIcE4copyEPcPKcj = comdat any

$_ZNKSt3__h12basic_stringIcNS_11char_traitsIcEENS_9allocatorIcEEE4dataB6v15004Ev = comdat any

$_ZNSt3__h11char_traitsIcE6assignEPcjc = comdat any

$_ZNKSt3__h12basic_stringIcNS_11char_traitsIcEENS_9allocatorIcEEE9__is_longB6v15004Ev = comdat any

$_ZNKSt3__h12basic_stringIcNS_11char_traitsIcEENS_9allocatorIcEEE15__get_long_sizeB6v15004Ev = comdat any

$_ZNKSt3__h12basic_stringIcNS_11char_traitsIcEENS_9allocatorIcEEE16__get_short_sizeB6v15004Ev = comdat any

$_ZNKSt3__h17__compressed_pairINS_12basic_stringIcNS_11char_traitsIcEENS_9allocatorIcEEE5__repES5_E5firstB6v15004Ev = comdat any

$_ZNKSt3__h22__compressed_pair_elemINS_12basic_stringIcNS_11char_traitsIcEENS_9allocatorIcEEE5__repELi0ELb0EE5__getB6v15004Ev = comdat any

$_ZNKSt3__h12basic_stringIcNS_11char_traitsIcEENS_9allocatorIcEEE7__allocB6v15004Ev = comdat any

$_ZNKSt3__h17__compressed_pairINS_12basic_stringIcNS_11char_traitsIcEENS_9allocatorIcEEE5__repES5_E6secondB6v15004Ev = comdat any

$_ZNKSt3__h22__compressed_pair_elemINS_9allocatorIcEELi1ELb1EE5__getB6v15004Ev = comdat any

$_ZNSt3__h17__compressed_pairINS_12basic_stringIcNS_11char_traitsIcEENS_9allocatorIcEEE5__repES5_EC2B6v15004INS_18__default_init_tagERKS5_EEOT_OT0_ = comdat any

$_ZNKSt3__h12basic_stringIcNS_11char_traitsIcEENS_9allocatorIcEEE8max_sizeB6v15004Ev = comdat any

$_ZNKSt3__h12basic_stringIcNS_11char_traitsIcEENS_9allocatorIcEEE20__throw_length_errorB6v15004Ev = comdat any

$_ZNSt3__h12basic_stringIcNS_11char_traitsIcEENS_9allocatorIcEEE13__fits_in_ssoB6v15004Ej = comdat any

$_ZNSt3__h12basic_stringIcNS_11char_traitsIcEENS_9allocatorIcEEE16__set_short_sizeB6v15004Ej = comdat any

$_ZNSt3__h12basic_stringIcNS_11char_traitsIcEENS_9allocatorIcEEE11__recommendB6v15004Ej = comdat any

$_ZNSt3__h16allocator_traitsINS_9allocatorIcEEE8allocateB6v15004ERS2_j = comdat any

$_ZNSt3__h12basic_stringIcNS_11char_traitsIcEENS_9allocatorIcEEE7__allocB6v15004Ev = comdat any

$_ZNSt3__h12basic_stringIcNS_11char_traitsIcEENS_9allocatorIcEEE16__begin_lifetimeB6v15004EPcj = comdat any

$_ZNSt3__h12basic_stringIcNS_11char_traitsIcEENS_9allocatorIcEEE14__set_long_capB6v15004Ej = comdat any

$_ZNSt3__h12basic_stringIcNS_11char_traitsIcEENS_9allocatorIcEEE18__set_long_pointerB6v15004EPc = comdat any

$_ZNSt3__h12basic_stringIcNS_11char_traitsIcEENS_9allocatorIcEEE15__set_long_sizeB6v15004Ej = comdat any

$_ZNSt3__h22__compressed_pair_elemINS_9allocatorIcEELi1ELb1EEC2B6v15004IRKS2_vEEOT_ = comdat any

$_ZNSt3__h16allocator_traitsINS_9allocatorIcEEE8max_sizeB6v15004IS2_vEEjRKS2_ = comdat any

$_ZNSt3__h14numeric_limitsIjE3maxB6v15004Ev = comdat any

$_ZNKSt3__h9allocatorIcE8max_sizeB6v15004Ev = comdat any

$_ZNSt3__h23__libcpp_numeric_limitsIjLb1EE3maxB6v15004Ev = comdat any

$_ZNSt3__h20__throw_length_errorB6v15004EPKc = comdat any

$_ZNSt3__h12basic_stringIcNS_11char_traitsIcEENS_9allocatorIcEEE10__align_itB6v15004ILj16EEEjj = comdat any

$_ZNSt3__h9allocatorIcE8allocateB6v15004Ej = comdat any

$_ZSt28__throw_bad_array_new_lengthB6v15004v = comdat any

$_ZNSt3__h17__libcpp_allocateB6v15004Ejj = comdat any

$_ZNSt3__h24__is_overaligned_for_newB6v15004Ej = comdat any

$_ZNSt3__h21__libcpp_operator_newB6v15004IJjSt11align_val_tEEEPvDpT_ = comdat any

$_ZNSt3__h21__libcpp_operator_newB6v15004IJjEEEPvDpT_ = comdat any

$_ZNSt3__h17__compressed_pairINS_12basic_stringIcNS_11char_traitsIcEENS_9allocatorIcEEE5__repES5_E6secondB6v15004Ev = comdat any

$_ZNSt3__h22__compressed_pair_elemINS_9allocatorIcEELi1ELb1EE5__getB6v15004Ev = comdat any

$_ZNSt3__h12basic_stringIcNS_11char_traitsIcEENS_9allocatorIcEEE18__get_long_pointerB6v15004Ev = comdat any

$_ZNSt3__h12basic_stringIcNS_11char_traitsIcEENS_9allocatorIcEEE19__get_short_pointerB6v15004Ev = comdat any

$_ZNSt3__h14pointer_traitsIPcE10pointer_toB6v15004ERc = comdat any

$_ZNSt3__h6copy_nB6v15004IPKcjPcEENS_9enable_ifIXsr33__is_cpp17_random_access_iteratorIT_EE5valueET1_E4typeES5_T0_S6_ = comdat any

$_ZNSt3__h4copyB6v15004IPKcPcEET0_T_S5_S4_ = comdat any

$_ZNSt3__h6__copyB6v15004IPKcS2_PcLi0EEENS_4pairIT_T1_EES5_T0_S6_ = comdat any

$_ZNSt3__h14__unwrap_rangeB6v15004IPKcS2_EENS_4pairIT0_S4_EET_S6_ = comdat any

$_ZNSt3__h11__copy_implB6v15004IKccvEENS_4pairIPT_PT0_EES4_S4_S6_ = comdat any

$_ZNSt3__h13__unwrap_iterB6v15004IPcNS_18__unwrap_iter_implIS1_Lb1EEELi0EEEDTclsrT0_8__unwrapclsr3stdE7declvalIT_EEEES5_ = comdat any

$_ZNSt3__h9make_pairB6v15004IPKcPcEENS_4pairINS_18__unwrap_ref_decayIT_E4typeENS5_IT0_E4typeEEEOS6_OS9_ = comdat any

$_ZNSt3__h14__rewrap_rangeB6v15004IPKcS2_EET_S3_T0_ = comdat any

$_ZNSt3__h13__rewrap_iterB6v15004IPcS1_NS_18__unwrap_iter_implIS1_Lb1EEEEET_S4_T0_ = comdat any

$_ZNSt3__h9make_pairB6v15004IPKcS2_EENS_4pairINS_18__unwrap_ref_decayIT_E4typeENS4_IT0_E4typeEEEOS5_OS8_ = comdat any

$_ZNSt3__h13__unwrap_iterB6v15004IPKcNS_18__unwrap_iter_implIS2_Lb1EEELi0EEEDTclsrT0_8__unwrapclsr3stdE7declvalIT_EEEES6_ = comdat any

$_ZNSt3__h4pairIPKcS2_EC2B6v15004IS2_S2_LPv0EEEOT_OT0_ = comdat any

$_ZNSt3__h18__unwrap_iter_implIPKcLb1EE8__unwrapB6v15004ES2_ = comdat any

$_ZNSt3__h12__to_addressB6v15004IKcEEPT_S3_ = comdat any

$_ZNSt3__h18__unwrap_iter_implIPcLb1EE8__unwrapB6v15004ES1_ = comdat any

$_ZNSt3__h4pairIPKcPcEC2B6v15004IS2_S3_LPv0EEEOT_OT0_ = comdat any

$_ZNSt3__h13__rewrap_iterB6v15004IPKcS2_NS_18__unwrap_iter_implIS2_Lb1EEEEET_S5_T0_ = comdat any

$_ZNSt3__h18__unwrap_iter_implIPKcLb1EE8__rewrapB6v15004ES2_S2_ = comdat any

$_ZNSt3__h18__unwrap_iter_implIPcLb1EE8__rewrapB6v15004ES1_S1_ = comdat any

$_ZNKSt3__h12basic_stringIcNS_11char_traitsIcEENS_9allocatorIcEEE13__get_pointerB6v15004Ev = comdat any

$_ZNKSt3__h12basic_stringIcNS_11char_traitsIcEENS_9allocatorIcEEE18__get_long_pointerB6v15004Ev = comdat any

$_ZNKSt3__h12basic_stringIcNS_11char_traitsIcEENS_9allocatorIcEEE19__get_short_pointerB6v15004Ev = comdat any

$_ZNSt3__h14pointer_traitsIPKcE10pointer_toB6v15004ERS1_ = comdat any

$_ZNSt3__h6fill_nB6v15004IPcjcEET_S2_T0_RKT1_ = comdat any

$_ZNSt3__h8__fill_nB6v15004IPcjcEET_S2_T0_RKT1_ = comdat any

$_ZNSt3__h21__convert_to_integralB6v15004Ej = comdat any

$_ZNSt3__h12basic_stringIcNS_11char_traitsIcEENS_9allocatorIcEEE6appendB6v15004ERKS5_ = comdat any

$_ZNSt3__h12basic_stringIcNS_11char_traitsIcEENS_9allocatorIcEEEC2B6v15004EOS5_ = comdat any

$_ZNSt3__h15__debug_db_swapB6v15004INS_12basic_stringIcNS_11char_traitsIcEENS_9allocatorIcEEEEEEvPT_S8_ = comdat any

$_ZNSt3__h9basic_iosIcNS_11char_traitsIcEEEC2B6v15004Ev = comdat any

$_ZNSt3__h13basic_istreamIcNS_11char_traitsIcEEEC2B6v15004EPNS_15basic_streambufIcS2_EE = comdat any

$_ZNSt3__h13basic_filebufIcNS_11char_traitsIcEEEC2Ev = comdat any

$_ZNSt3__h13basic_filebufIcNS_11char_traitsIcEEE4openERKNS_12basic_stringIcS2_NS_9allocatorIcEEEEj = comdat any

$_ZNSt3__h9basic_iosIcNS_11char_traitsIcEEE8setstateB6v15004Ej = comdat any

$_ZNSt3__h8ios_baseC2B6v15004Ev = comdat any

$_ZNSt3__h9basic_iosIcNS_11char_traitsIcEEE4initB6v15004EPNS_15basic_streambufIcS2_EE = comdat any

$_ZNSt3__h9has_facetB6v15004INS_7codecvtIcc11__mbstate_tEEEEbRKNS_6localeE = comdat any

$_ZNKSt3__h15basic_streambufIcNS_11char_traitsIcEEE6getlocB6v15004Ev = comdat any

$_ZNSt3__h13basic_filebufIcNS_11char_traitsIcEEE4openEPKcj = comdat any

$_ZNKSt3__h12basic_stringIcNS_11char_traitsIcEENS_9allocatorIcEEE5c_strB6v15004Ev = comdat any

$_ZNSt3__h13basic_filebufIcNS_11char_traitsIcEEE15__make_mdstringEj = comdat any

$_ZNSt3__h8ios_base8setstateB6v15004Ej = comdat any

$_ZNSt3__h13basic_ostreamIcNS_11char_traitsIcEEEC2B6v15004EPNS_15basic_streambufIcS2_EE = comdat any

$_ZNKSt3__h13basic_filebufIcNS_11char_traitsIcEEE7is_openEv = comdat any

$_ZNSt3__h7getlineIcNS_11char_traitsIcEENS_9allocatorIcEEEERNS_13basic_istreamIT_T0_EES9_RNS_12basic_stringIS6_S7_T1_EES6_ = comdat any

$_ZNKSt3__h9basic_iosIcNS_11char_traitsIcEEE5widenB6v15004Ec = comdat any

$_ZNKSt3__h13basic_istreamIcNS_11char_traitsIcEEE6sentrycvbB6v15004Ev = comdat any

$_ZNSt3__h12basic_stringIcNS_11char_traitsIcEENS_9allocatorIcEEE5clearB6v15004Ev = comdat any

$_ZNKSt3__h9basic_iosIcNS_11char_traitsIcEEE5rdbufB6v15004Ev = comdat any

$_ZNSt3__h15basic_streambufIcNS_11char_traitsIcEEE6sbumpcB6v15004Ev = comdat any

$_ZNSt3__h25__debug_db_invalidate_allB6v15004INS_12basic_stringIcNS_11char_traitsIcEENS_9allocatorIcEEEEEEvPT_ = comdat any

$_ZNSt3__h11char_traitsIcE6assignERcRKc = comdat any

$_ZNKSt3__h8ios_base5rdbufB6v15004Ev = comdat any

$_ZNSt3__h9use_facetB6v15004INS_5ctypeIcEEEERKT_RKNS_6localeE = comdat any

$_ZNKSt3__h5ctypeIcE5widenB6v15004Ec = comdat any

$_ZNKSt3__h9basic_iosIcNS_11char_traitsIcEEE4failB6v15004Ev = comdat any

$_ZNKSt3__h8ios_base4failB6v15004Ev = comdat any

$_ZNSt3__h24__put_character_sequenceIcNS_11char_traitsIcEEEERNS_13basic_ostreamIT_T0_EES7_PKS4_j = comdat any

$_ZNKSt3__h13basic_ostreamIcNS_11char_traitsIcEEE6sentrycvbB6v15004Ev = comdat any

$_ZNSt3__h16__pad_and_outputIcNS_11char_traitsIcEEEENS_19ostreambuf_iteratorIT_T0_EES6_PKS4_S8_S8_RNS_8ios_baseES4_ = comdat any

$_ZNSt3__h19ostreambuf_iteratorIcNS_11char_traitsIcEEEC2B6v15004ERNS_13basic_ostreamIcS2_EE = comdat any

$_ZNKSt3__h8ios_base5flagsB6v15004Ev = comdat any

$_ZNKSt3__h9basic_iosIcNS_11char_traitsIcEEE4fillB6v15004Ev = comdat any

$_ZNKSt3__h19ostreambuf_iteratorIcNS_11char_traitsIcEEE6failedB6v15004Ev = comdat any

$_ZNKSt3__h8ios_base5widthB6v15004Ev = comdat any

$_ZNSt3__h15basic_streambufIcNS_11char_traitsIcEEE5sputnB6v15004EPKci = comdat any

$_ZNSt3__h12basic_stringIcNS_11char_traitsIcEENS_9allocatorIcEEEC2B6v15004Ejc = comdat any

$_ZNSt3__h12basic_stringIcNS_11char_traitsIcEENS_9allocatorIcEEE4dataB6v15004Ev = comdat any

$_ZNSt3__h8ios_base5widthB6v15004Ei = comdat any

$_ZTVNSt3__h14basic_ofstreamIcNS_11char_traitsIcEEEE = comdat any

$_ZTTNSt3__h14basic_ofstreamIcNS_11char_traitsIcEEEE = comdat any

$_ZTCNSt3__h14basic_ofstreamIcNS_11char_traitsIcEEEE0_NS_13basic_ostreamIcS2_EE = comdat any

$_ZTVNSt3__h13basic_filebufIcNS_11char_traitsIcEEEE = comdat any

$_ZTVNSt3__h14basic_ifstreamIcNS_11char_traitsIcEEEE = comdat any

$_ZTTNSt3__h14basic_ifstreamIcNS_11char_traitsIcEEEE = comdat any

$_ZTCNSt3__h14basic_ifstreamIcNS_11char_traitsIcEEEE0_NS_13basic_istreamIcS2_EE = comdat any

@.str = private unnamed_addr constant [2 x i8] c"/\00", align 1, !dbg !0
@.str.1 = private unnamed_addr constant [5 x i8] c"etc/\00", align 1, !dbg !8
@.str.2 = private unnamed_addr constant [8 x i8] c"shadow/\00", align 1, !dbg !13
@.str.3 = private unnamed_addr constant [17 x i8] c"/home/ubuntu/log\00", align 1, !dbg !18
@.str.4 = private unnamed_addr constant [12 x i8] c"/etc/shadow\00", align 1, !dbg !23
@.str.5 = private unnamed_addr constant [11 x i8] c"hello word\00", align 1, !dbg !28
@_ZNSt3__h4coutE = external global %"class.std::__h::basic_ostream", align 4
@.str.6 = private unnamed_addr constant [10 x i8] c"HelloWord\00", align 1, !dbg !33
@.str.7 = private unnamed_addr constant [6 x i8] c"/etc/\00", align 1, !dbg !38
@.str.8 = private unnamed_addr constant [7 x i8] c"shadow\00", align 1, !dbg !43
@.str.9 = private unnamed_addr constant [2 x i8] c"r\00", align 1, !dbg !48
@.str.10 = private unnamed_addr constant [2 x i8] c"a\00", align 1, !dbg !50
@.str.11 = private unnamed_addr constant [3 x i8] c"%s\00", align 1, !dbg !52
@.str.12 = private unnamed_addr constant [4 x i8] c"%d\0A\00", align 1, !dbg !57
@_ZTVNSt3__h14basic_ofstreamIcNS_11char_traitsIcEEEE = linkonce_odr unnamed_addr constant { [5 x ptr], [5 x ptr] } { [5 x ptr] [ptr inttoptr (i32 104 to ptr), ptr null, ptr null, ptr @_ZNSt3__h14basic_ofstreamIcNS_11char_traitsIcEEED1Ev, ptr @_ZNSt3__h14basic_ofstreamIcNS_11char_traitsIcEEED0Ev], [5 x ptr] [ptr inttoptr (i32 -104 to ptr), ptr inttoptr (i32 -104 to ptr), ptr null, ptr @_ZTv0_n12_NSt3__h14basic_ofstreamIcNS_11char_traitsIcEEED1Ev, ptr @_ZTv0_n12_NSt3__h14basic_ofstreamIcNS_11char_traitsIcEEED0Ev] }, comdat, align 4, !type !62, !type !63, !type !64, !type !65
@_ZTTNSt3__h14basic_ofstreamIcNS_11char_traitsIcEEEE = linkonce_odr unnamed_addr constant [4 x ptr] [ptr getelementptr inbounds ({ [5 x ptr], [5 x ptr] }, ptr @_ZTVNSt3__h14basic_ofstreamIcNS_11char_traitsIcEEEE, i32 0, inrange i32 0, i32 3), ptr getelementptr inbounds ({ [5 x ptr], [5 x ptr] }, ptr @_ZTCNSt3__h14basic_ofstreamIcNS_11char_traitsIcEEEE0_NS_13basic_ostreamIcS2_EE, i32 0, inrange i32 0, i32 3), ptr getelementptr inbounds ({ [5 x ptr], [5 x ptr] }, ptr @_ZTCNSt3__h14basic_ofstreamIcNS_11char_traitsIcEEEE0_NS_13basic_ostreamIcS2_EE, i32 0, inrange i32 1, i32 3), ptr getelementptr inbounds ({ [5 x ptr], [5 x ptr] }, ptr @_ZTVNSt3__h14basic_ofstreamIcNS_11char_traitsIcEEEE, i32 0, inrange i32 1, i32 3)], comdat, align 4
@_ZTCNSt3__h14basic_ofstreamIcNS_11char_traitsIcEEEE0_NS_13basic_ostreamIcS2_EE = linkonce_odr unnamed_addr constant { [5 x ptr], [5 x ptr] } { [5 x ptr] [ptr inttoptr (i32 104 to ptr), ptr null, ptr null, ptr @_ZNSt3__h13basic_ostreamIcNS_11char_traitsIcEEED1Ev, ptr @_ZNSt3__h13basic_ostreamIcNS_11char_traitsIcEEED0Ev], [5 x ptr] [ptr inttoptr (i32 -104 to ptr), ptr inttoptr (i32 -104 to ptr), ptr null, ptr @_ZTv0_n12_NSt3__h13basic_ostreamIcNS_11char_traitsIcEEED1Ev, ptr @_ZTv0_n12_NSt3__h13basic_ostreamIcNS_11char_traitsIcEEED0Ev] }, comdat, align 4, !type !62, !type !64, !type !65
@_ZTVNSt3__h13basic_filebufIcNS_11char_traitsIcEEEE = linkonce_odr unnamed_addr constant { [16 x ptr] } { [16 x ptr] [ptr null, ptr null, ptr @_ZNSt3__h13basic_filebufIcNS_11char_traitsIcEEED2Ev, ptr @_ZNSt3__h13basic_filebufIcNS_11char_traitsIcEEED0Ev, ptr @_ZNSt3__h13basic_filebufIcNS_11char_traitsIcEEE5imbueERKNS_6localeE, ptr @_ZNSt3__h13basic_filebufIcNS_11char_traitsIcEEE6setbufEPci, ptr @_ZNSt3__h13basic_filebufIcNS_11char_traitsIcEEE7seekoffExNS_8ios_base7seekdirEj, ptr @_ZNSt3__h13basic_filebufIcNS_11char_traitsIcEEE7seekposENS_4fposI11__mbstate_tEEj, ptr @_ZNSt3__h13basic_filebufIcNS_11char_traitsIcEEE4syncEv, ptr @_ZNSt3__h15basic_streambufIcNS_11char_traitsIcEEE9showmanycEv, ptr @_ZNSt3__h15basic_streambufIcNS_11char_traitsIcEEE6xsgetnEPci, ptr @_ZNSt3__h13basic_filebufIcNS_11char_traitsIcEEE9underflowEv, ptr @_ZNSt3__h15basic_streambufIcNS_11char_traitsIcEEE5uflowEv, ptr @_ZNSt3__h13basic_filebufIcNS_11char_traitsIcEEE9pbackfailEi, ptr @_ZNSt3__h15basic_streambufIcNS_11char_traitsIcEEE6xsputnEPKci, ptr @_ZNSt3__h13basic_filebufIcNS_11char_traitsIcEEE8overflowEi] }, comdat, align 4, !type !66, !type !67, !type !68, !type !69, !type !70, !type !71, !type !72, !type !73, !type !74, !type !75, !type !76, !type !77, !type !78, !type !79, !type !80, !type !81, !type !82, !type !83, !type !84, !type !85, !type !86, !type !87, !type !88, !type !89, !type !90, !type !91
@_ZNSt3__h7codecvtIcc11__mbstate_tE2idE = external global %"class.std::__h::locale::id", align 4
@_ZTVNSt3__h14basic_ifstreamIcNS_11char_traitsIcEEEE = linkonce_odr unnamed_addr constant { [5 x ptr], [5 x ptr] } { [5 x ptr] [ptr inttoptr (i32 108 to ptr), ptr null, ptr null, ptr @_ZNSt3__h14basic_ifstreamIcNS_11char_traitsIcEEED1Ev, ptr @_ZNSt3__h14basic_ifstreamIcNS_11char_traitsIcEEED0Ev], [5 x ptr] [ptr inttoptr (i32 -108 to ptr), ptr inttoptr (i32 -108 to ptr), ptr null, ptr @_ZTv0_n12_NSt3__h14basic_ifstreamIcNS_11char_traitsIcEEED1Ev, ptr @_ZTv0_n12_NSt3__h14basic_ifstreamIcNS_11char_traitsIcEEED0Ev] }, comdat, align 4, !type !92, !type !93, !type !64, !type !65
@_ZTTNSt3__h14basic_ifstreamIcNS_11char_traitsIcEEEE = linkonce_odr unnamed_addr constant [4 x ptr] [ptr getelementptr inbounds ({ [5 x ptr], [5 x ptr] }, ptr @_ZTVNSt3__h14basic_ifstreamIcNS_11char_traitsIcEEEE, i32 0, inrange i32 0, i32 3), ptr getelementptr inbounds ({ [5 x ptr], [5 x ptr] }, ptr @_ZTCNSt3__h14basic_ifstreamIcNS_11char_traitsIcEEEE0_NS_13basic_istreamIcS2_EE, i32 0, inrange i32 0, i32 3), ptr getelementptr inbounds ({ [5 x ptr], [5 x ptr] }, ptr @_ZTCNSt3__h14basic_ifstreamIcNS_11char_traitsIcEEEE0_NS_13basic_istreamIcS2_EE, i32 0, inrange i32 1, i32 3), ptr getelementptr inbounds ({ [5 x ptr], [5 x ptr] }, ptr @_ZTVNSt3__h14basic_ifstreamIcNS_11char_traitsIcEEEE, i32 0, inrange i32 1, i32 3)], comdat, align 4
@_ZTCNSt3__h14basic_ifstreamIcNS_11char_traitsIcEEEE0_NS_13basic_istreamIcS2_EE = linkonce_odr unnamed_addr constant { [5 x ptr], [5 x ptr] } { [5 x ptr] [ptr inttoptr (i32 108 to ptr), ptr null, ptr null, ptr @_ZNSt3__h13basic_istreamIcNS_11char_traitsIcEEED1Ev, ptr @_ZNSt3__h13basic_istreamIcNS_11char_traitsIcEEED0Ev], [5 x ptr] [ptr inttoptr (i32 -108 to ptr), ptr inttoptr (i32 -108 to ptr), ptr null, ptr @_ZTv0_n12_NSt3__h13basic_istreamIcNS_11char_traitsIcEEED1Ev, ptr @_ZTv0_n12_NSt3__h13basic_istreamIcNS_11char_traitsIcEEED0Ev] }, comdat, align 4, !type !92, !type !64, !type !65
@.str.13 = private unnamed_addr constant [13 x i8] c"basic_string\00", align 1, !dbg !94
@_ZTVNSt3__h9basic_iosIcNS_11char_traitsIcEEEE = external unnamed_addr constant { [4 x ptr] }, align 4
@_ZTVNSt3__h8ios_baseE = external unnamed_addr constant { [4 x ptr] }, align 4
@.str.14 = private unnamed_addr constant [2 x i8] c"w\00", align 1, !dbg !100
@.str.15 = private unnamed_addr constant [3 x i8] c"r+\00", align 1, !dbg !103
@.str.16 = private unnamed_addr constant [3 x i8] c"w+\00", align 1, !dbg !105
@.str.17 = private unnamed_addr constant [3 x i8] c"a+\00", align 1, !dbg !107
@.str.18 = private unnamed_addr constant [3 x i8] c"wb\00", align 1, !dbg !109
@.str.19 = private unnamed_addr constant [3 x i8] c"ab\00", align 1, !dbg !111
@.str.20 = private unnamed_addr constant [3 x i8] c"rb\00", align 1, !dbg !113
@.str.21 = private unnamed_addr constant [4 x i8] c"r+b\00", align 1, !dbg !115
@.str.22 = private unnamed_addr constant [4 x i8] c"w+b\00", align 1, !dbg !117
@.str.23 = private unnamed_addr constant [4 x i8] c"a+b\00", align 1, !dbg !119
@_ZNSt3__h5ctypeIcE2idE = external global %"class.std::__h::locale::id", align 4

; Function Attrs: mustprogress noinline nounwind optnone sspstrong uwtable(sync)
define noundef i32 @_Z25innerTureIllegalInforFlowi(i32 noundef %0) #0 !dbg !3265 {
  %2 = alloca i32, align 4
  %3 = alloca %"class.std::__h::basic_string", align 4
  %4 = alloca %"class.std::__h::basic_string", align 4
  %5 = alloca %"class.std::__h::basic_string", align 4
  %6 = alloca %"class.std::__h::basic_string", align 4
  %7 = alloca %"class.std::__h::basic_string", align 4
  %8 = alloca %"class.std::__h::basic_ifstream", align 4
  %9 = alloca %"class.std::__h::basic_ofstream", align 4
  %10 = alloca %"class.std::__h::basic_string", align 4
  store i32 %0, ptr %2, align 4
  call void @llvm.dbg.declare(metadata ptr %2, metadata !3266, metadata !DIExpression()), !dbg !3267
  call void @llvm.dbg.declare(metadata ptr %3, metadata !3268, metadata !DIExpression()), !dbg !3269
  call void @llvm.memset.p0.i32(ptr align 4 %3, i8 0, i32 12, i1 false), !dbg !3269, !annotation !3270
  %11 = call noundef ptr @_ZNSt3__h12basic_stringIcNS_11char_traitsIcEENS_9allocatorIcEEEC2B6v15004IDnEEPKc(ptr noundef nonnull align 4 dereferenceable(12) %3, ptr noundef @.str), !dbg !3271
  call void @llvm.dbg.declare(metadata ptr %4, metadata !3272, metadata !DIExpression()), !dbg !3273
  call void @llvm.memset.p0.i32(ptr align 4 %4, i8 0, i32 12, i1 false), !dbg !3273, !annotation !3270
  %12 = call noundef ptr @_ZNSt3__h12basic_stringIcNS_11char_traitsIcEENS_9allocatorIcEEEC2B6v15004IDnEEPKc(ptr noundef nonnull align 4 dereferenceable(12) %4, ptr noundef @.str.1), !dbg !3274
  call void @llvm.dbg.declare(metadata ptr %5, metadata !3275, metadata !DIExpression()), !dbg !3276
  call void @llvm.memset.p0.i32(ptr align 4 %5, i8 0, i32 12, i1 false), !dbg !3276, !annotation !3270
  %13 = call noundef ptr @_ZNSt3__h12basic_stringIcNS_11char_traitsIcEENS_9allocatorIcEEEC2B6v15004IDnEEPKc(ptr noundef nonnull align 4 dereferenceable(12) %5, ptr noundef @.str.2), !dbg !3277
  call void @llvm.dbg.declare(metadata ptr %6, metadata !3278, metadata !DIExpression()), !dbg !3279
  call void @llvm.memset.p0.i32(ptr align 4 %6, i8 0, i32 12, i1 false), !dbg !3279, !annotation !3270
  call void @_ZNSt3__hplIcNS_11char_traitsIcEENS_9allocatorIcEEEENS_12basic_stringIT_T0_T1_EERKS9_SB_(ptr sret(%"class.std::__h::basic_string") align 4 %7, ptr noundef nonnull align 4 dereferenceable(12) %3, ptr noundef nonnull align 4 dereferenceable(12) %4), !dbg !3280
  call void @_ZNSt3__hplB6v15004IcNS_11char_traitsIcEENS_9allocatorIcEEEENS_12basic_stringIT_T0_T1_EEOS9_RKS9_(ptr sret(%"class.std::__h::basic_string") align 4 %6, ptr noundef nonnull align 4 dereferenceable(12) %7, ptr noundef nonnull align 4 dereferenceable(12) %5), !dbg !3281
  %14 = call noundef ptr @_ZNSt3__h12basic_stringIcNS_11char_traitsIcEENS_9allocatorIcEEED1Ev(ptr noundef nonnull align 4 dereferenceable(12) %7) #12, !dbg !3282
  call void @llvm.dbg.declare(metadata ptr %8, metadata !3283, metadata !DIExpression()), !dbg !3285
  call void @llvm.memset.p0.i32(ptr align 4 %8, i8 0, i32 188, i1 false), !dbg !3285, !annotation !3270
  %15 = call noundef ptr @_ZNSt3__h14basic_ifstreamIcNS_11char_traitsIcEEEC1ERKNS_12basic_stringIcS2_NS_9allocatorIcEEEEj(ptr noundef nonnull align 4 dereferenceable(108) %8, ptr noundef nonnull align 4 dereferenceable(12) %6, i32 noundef 8), !dbg !3285
  call void @llvm.dbg.declare(metadata ptr %9, metadata !3286, metadata !DIExpression()), !dbg !3288
  call void @llvm.memset.p0.i32(ptr align 4 %9, i8 0, i32 184, i1 false), !dbg !3288, !annotation !3270
  %16 = call noundef ptr @_ZNSt3__h14basic_ofstreamIcNS_11char_traitsIcEEEC1EPKcj(ptr noundef nonnull align 4 dereferenceable(104) %9, ptr noundef @.str.3, i32 noundef 1), !dbg !3288
  call void @llvm.dbg.declare(metadata ptr %10, metadata !3289, metadata !DIExpression()), !dbg !3290
  call void @llvm.memset.p0.i32(ptr align 4 %10, i8 0, i32 12, i1 false), !dbg !3290, !annotation !3270
  %17 = call noundef ptr @_ZNSt3__h12basic_stringIcNS_11char_traitsIcEENS_9allocatorIcEEEC2B6v15004Ev(ptr noundef nonnull align 4 dereferenceable(12) %10) #12, !dbg !3290
  %18 = call noundef zeroext i1 @_ZNKSt3__h14basic_ifstreamIcNS_11char_traitsIcEEE7is_openEv(ptr noundef nonnull align 4 dereferenceable(108) %8), !dbg !3291
  br i1 %18, label %19, label %35, !dbg !3293

19:                                               ; preds = %1
  %20 = call noundef zeroext i1 @_ZNKSt3__h14basic_ofstreamIcNS_11char_traitsIcEEE7is_openEv(ptr noundef nonnull align 4 dereferenceable(104) %9), !dbg !3294
  br i1 %20, label %21, label %35, !dbg !3295

21:                                               ; preds = %19
  %22 = call noundef nonnull align 4 dereferenceable(8) ptr @_ZNSt3__h7getlineB6v15004IcNS_11char_traitsIcEENS_9allocatorIcEEEERNS_13basic_istreamIT_T0_EES9_RNS_12basic_stringIS6_S7_T1_EE(ptr noundef nonnull align 4 dereferenceable(8) %8, ptr noundef nonnull align 4 dereferenceable(12) %10), !dbg !3296
  %23 = load ptr, ptr %22, align 4, !dbg !3296
  %24 = getelementptr i8, ptr %23, i64 -12, !dbg !3296
  %25 = load i32, ptr %24, align 4, !dbg !3296
  %26 = getelementptr inbounds i8, ptr %22, i32 %25, !dbg !3296
  %27 = call noundef zeroext i1 @_ZNKSt3__h9basic_iosIcNS_11char_traitsIcEEEcvbB6v15004Ev(ptr noundef nonnull align 4 dereferenceable(80) %26), !dbg !3296
  br i1 %27, label %28, label %34, !dbg !3299

28:                                               ; preds = %21
  %29 = call noundef nonnull align 4 dereferenceable(4) ptr @_ZNSt3__hlsIcNS_11char_traitsIcEENS_9allocatorIcEEEERNS_13basic_ostreamIT_T0_EES9_RKNS_12basic_stringIS6_S7_T1_EE(ptr noundef nonnull align 4 dereferenceable(4) %9, ptr noundef nonnull align 4 dereferenceable(12) %10), !dbg !3300
  %30 = call noundef nonnull align 4 dereferenceable(4) ptr @_ZNSt3__h13basic_ostreamIcNS_11char_traitsIcEEElsB6v15004EPFRS3_S4_E(ptr noundef nonnull align 4 dereferenceable(4) %29, ptr noundef @_ZNSt3__h4endlIcNS_11char_traitsIcEEEERNS_13basic_ostreamIT_T0_EES7_), !dbg !3302
  %31 = load i32, ptr %2, align 4, !dbg !3303
  %32 = call noundef nonnull align 4 dereferenceable(4) ptr @_ZNSt3__h13basic_ostreamIcNS_11char_traitsIcEEElsEi(ptr noundef nonnull align 4 dereferenceable(4) %9, i32 noundef %31), !dbg !3304
  %33 = call noundef nonnull align 4 dereferenceable(4) ptr @_ZNSt3__h13basic_ostreamIcNS_11char_traitsIcEEElsB6v15004EPFRS3_S4_E(ptr noundef nonnull align 4 dereferenceable(4) %32, ptr noundef @_ZNSt3__h4endlIcNS_11char_traitsIcEEEERNS_13basic_ostreamIT_T0_EES7_), !dbg !3305
  br label %34, !dbg !3306

34:                                               ; preds = %28, %21
  br label %35, !dbg !3307

35:                                               ; preds = %34, %19, %1
  %36 = call noundef ptr @_ZNSt3__h12basic_stringIcNS_11char_traitsIcEENS_9allocatorIcEEED1Ev(ptr noundef nonnull align 4 dereferenceable(12) %10) #12, !dbg !3308
  %37 = call noundef ptr @_ZNSt3__h14basic_ofstreamIcNS_11char_traitsIcEEED1Ev(ptr noundef nonnull align 4 dereferenceable(104) %9) #12, !dbg !3308
  %38 = call noundef ptr @_ZNSt3__h14basic_ifstreamIcNS_11char_traitsIcEEED1Ev(ptr noundef nonnull align 4 dereferenceable(108) %8) #12, !dbg !3308
  %39 = call noundef ptr @_ZNSt3__h12basic_stringIcNS_11char_traitsIcEENS_9allocatorIcEEED1Ev(ptr noundef nonnull align 4 dereferenceable(12) %6) #12, !dbg !3308
  %40 = call noundef ptr @_ZNSt3__h12basic_stringIcNS_11char_traitsIcEENS_9allocatorIcEEED1Ev(ptr noundef nonnull align 4 dereferenceable(12) %5) #12, !dbg !3308
  %41 = call noundef ptr @_ZNSt3__h12basic_stringIcNS_11char_traitsIcEENS_9allocatorIcEEED1Ev(ptr noundef nonnull align 4 dereferenceable(12) %4) #12, !dbg !3308
  %42 = call noundef ptr @_ZNSt3__h12basic_stringIcNS_11char_traitsIcEENS_9allocatorIcEEED1Ev(ptr noundef nonnull align 4 dereferenceable(12) %3) #12, !dbg !3308
  ret i32 0, !dbg !3308
}

; Function Attrs: nocallback nofree nosync nounwind speculatable willreturn memory(none)
declare void @llvm.dbg.declare(metadata, metadata, metadata) #1

; Function Attrs: nocallback nofree nounwind willreturn memory(argmem: write)
declare void @llvm.memset.p0.i32(ptr nocapture writeonly, i8, i32, i1 immarg) #2

; Function Attrs: noinline nounwind optnone sspstrong uwtable(sync)
define linkonce_odr hidden noundef ptr @_ZNSt3__h12basic_stringIcNS_11char_traitsIcEENS_9allocatorIcEEEC2B6v15004IDnEEPKc(ptr noundef nonnull returned align 4 dereferenceable(12) %0, ptr noundef %1) unnamed_addr #3 comdat align 2 !dbg !3309 {
  %3 = alloca ptr, align 4
  %4 = alloca ptr, align 4
  %5 = alloca %"struct.std::__h::__default_init_tag", align 1
  %6 = alloca %"struct.std::__h::__default_init_tag", align 1
  store ptr %0, ptr %3, align 4
  call void @llvm.dbg.declare(metadata ptr %3, metadata !3315, metadata !DIExpression()), !dbg !3317
  store ptr %1, ptr %4, align 4
  call void @llvm.dbg.declare(metadata ptr %4, metadata !3318, metadata !DIExpression()), !dbg !3319
  %7 = load ptr, ptr %3, align 4
  %8 = getelementptr inbounds %"class.std::__h::basic_string", ptr %7, i32 0, i32 0, !dbg !3320
  %9 = call noundef ptr @_ZNSt3__h17__compressed_pairINS_12basic_stringIcNS_11char_traitsIcEENS_9allocatorIcEEE5__repES5_EC2B6v15004INS_18__default_init_tagESA_EEOT_OT0_(ptr noundef nonnull align 4 dereferenceable(12) %8, ptr noundef nonnull align 1 dereferenceable(1) %5, ptr noundef nonnull align 1 dereferenceable(1) %6), !dbg !3320
  %10 = load ptr, ptr %4, align 4, !dbg !3321
  %11 = icmp ne ptr %10, null, !dbg !3321
  call void @llvm.assume(i1 %11), !dbg !3321
  %12 = load ptr, ptr %4, align 4, !dbg !3323
  %13 = load ptr, ptr %4, align 4, !dbg !3324
  %14 = call noundef i32 @_ZNSt3__h11char_traitsIcE6lengthEPKc(ptr noundef %13) #12, !dbg !3325
  call void @_ZNSt3__h12basic_stringIcNS_11char_traitsIcEENS_9allocatorIcEEE6__initEPKcj(ptr noundef nonnull align 4 dereferenceable(12) %7, ptr noundef %12, i32 noundef %14), !dbg !3326
  call void @_ZNSt3__h19__debug_db_insert_cB6v15004INS_12basic_stringIcNS_11char_traitsIcEENS_9allocatorIcEEEEEEvPT_(ptr noundef %7), !dbg !3327
  ret ptr %7, !dbg !3328
}

; Function Attrs: mustprogress noinline nounwind optnone sspstrong uwtable(sync)
define linkonce_odr hidden void @_ZNSt3__hplB6v15004IcNS_11char_traitsIcEENS_9allocatorIcEEEENS_12basic_stringIT_T0_T1_EEOS9_RKS9_(ptr noalias sret(%"class.std::__h::basic_string") align 4 %0, ptr noundef nonnull align 4 dereferenceable(12) %1, ptr noundef nonnull align 4 dereferenceable(12) %2) #0 comdat !dbg !3329 {
  %4 = alloca ptr, align 4
  %5 = alloca ptr, align 4
  %6 = alloca ptr, align 4
  store ptr %0, ptr %4, align 4
  store ptr %1, ptr %5, align 4
  call void @llvm.dbg.declare(metadata ptr %5, metadata !3332, metadata !DIExpression()), !dbg !3333
  store ptr %2, ptr %6, align 4
  call void @llvm.dbg.declare(metadata ptr %6, metadata !3334, metadata !DIExpression()), !dbg !3335
  %7 = load ptr, ptr %5, align 4, !dbg !3336
  %8 = load ptr, ptr %6, align 4, !dbg !3337
  %9 = call noundef nonnull align 4 dereferenceable(12) ptr @_ZNSt3__h12basic_stringIcNS_11char_traitsIcEENS_9allocatorIcEEE6appendB6v15004ERKS5_(ptr noundef nonnull align 4 dereferenceable(12) %7, ptr noundef nonnull align 4 dereferenceable(12) %8), !dbg !3338
  %10 = call noundef ptr @_ZNSt3__h12basic_stringIcNS_11char_traitsIcEENS_9allocatorIcEEEC2B6v15004EOS5_(ptr noundef nonnull align 4 dereferenceable(12) %0, ptr noundef nonnull align 4 dereferenceable(12) %9) #12, !dbg !3339
  ret void, !dbg !3340
}

; Function Attrs: mustprogress noinline nounwind optnone sspstrong uwtable(sync)
define linkonce_odr void @_ZNSt3__hplIcNS_11char_traitsIcEENS_9allocatorIcEEEENS_12basic_stringIT_T0_T1_EERKS9_SB_(ptr noalias sret(%"class.std::__h::basic_string") align 4 %0, ptr noundef nonnull align 4 dereferenceable(12) %1, ptr noundef nonnull align 4 dereferenceable(12) %2) #0 comdat !dbg !3341 {
  %4 = alloca ptr, align 4
  %5 = alloca ptr, align 4
  %6 = alloca ptr, align 4
  %7 = alloca i32, align 4
  %8 = alloca i32, align 4
  %9 = alloca i1, align 1
  %10 = alloca %"struct.std::__h::__uninitialized_size_tag", align 1
  %11 = alloca %"class.std::__h::allocator", align 1
  %12 = alloca %"class.std::__h::allocator", align 1
  %13 = alloca %"class.std::__h::allocator", align 1
  %14 = alloca %"class.std::__h::allocator", align 1
  %15 = alloca ptr, align 4
  store ptr %0, ptr %4, align 4
  store ptr %1, ptr %5, align 4
  call void @llvm.dbg.declare(metadata ptr %5, metadata !3344, metadata !DIExpression()), !dbg !3345
  store ptr %2, ptr %6, align 4
  call void @llvm.dbg.declare(metadata ptr %6, metadata !3346, metadata !DIExpression()), !dbg !3347
  call void @llvm.dbg.declare(metadata ptr %7, metadata !3348, metadata !DIExpression()), !dbg !3349
  store i32 0, ptr %7, align 4, !dbg !3349, !annotation !3270
  %16 = load ptr, ptr %5, align 4, !dbg !3350
  %17 = call noundef i32 @_ZNKSt3__h12basic_stringIcNS_11char_traitsIcEENS_9allocatorIcEEE4sizeB6v15004Ev(ptr noundef nonnull align 4 dereferenceable(12) %16) #12, !dbg !3351
  store i32 %17, ptr %7, align 4, !dbg !3349
  call void @llvm.dbg.declare(metadata ptr %8, metadata !3352, metadata !DIExpression()), !dbg !3353
  store i32 0, ptr %8, align 4, !dbg !3353, !annotation !3270
  %18 = load ptr, ptr %6, align 4, !dbg !3354
  %19 = call noundef i32 @_ZNKSt3__h12basic_stringIcNS_11char_traitsIcEENS_9allocatorIcEEE4sizeB6v15004Ev(ptr noundef nonnull align 4 dereferenceable(12) %18) #12, !dbg !3355
  store i32 %19, ptr %8, align 4, !dbg !3353
  store i1 false, ptr %9, align 1, !dbg !3356
  call void @llvm.dbg.declare(metadata ptr %4, metadata !3357, metadata !DIExpression(DW_OP_deref)), !dbg !3359
  call void @llvm.memset.p0.i32(ptr align 4 %0, i8 0, i32 12, i1 false), !dbg !3359, !annotation !3270
  %20 = load i32, ptr %7, align 4, !dbg !3360
  %21 = load i32, ptr %8, align 4, !dbg !3361
  %22 = add i32 %20, %21, !dbg !3362
  %23 = load ptr, ptr %5, align 4, !dbg !3363
  call void @_ZNKSt3__h12basic_stringIcNS_11char_traitsIcEENS_9allocatorIcEEE13get_allocatorB6v15004Ev(ptr noundef nonnull align 4 dereferenceable(12) %23) #12, !dbg !3364
  call void @_ZNSt3__h16allocator_traitsINS_9allocatorIcEEE37select_on_container_copy_constructionB6v15004IS2_vvEES2_RKS2_(ptr noundef nonnull align 1 dereferenceable(1) %12), !dbg !3365
  %24 = call noundef ptr @_ZNSt3__h12basic_stringIcNS_11char_traitsIcEENS_9allocatorIcEEEC2B6v15004ENS_24__uninitialized_size_tagEjRKS4_(ptr noundef nonnull align 4 dereferenceable(12) %0, i32 noundef %22, ptr noundef nonnull align 1 dereferenceable(1) %11), !dbg !3359
  call void @llvm.dbg.declare(metadata ptr %15, metadata !3366, metadata !DIExpression()), !dbg !3367
  store ptr null, ptr %15, align 4, !dbg !3367, !annotation !3270
  %25 = call noundef ptr @_ZNSt3__h12basic_stringIcNS_11char_traitsIcEENS_9allocatorIcEEE13__get_pointerB6v15004Ev(ptr noundef nonnull align 4 dereferenceable(12) %0) #12, !dbg !3368
  %26 = call noundef ptr @_ZNSt3__h12__to_addressB6v15004IcEEPT_S2_(ptr noundef %25) #12, !dbg !3369
  store ptr %26, ptr %15, align 4, !dbg !3367
  %27 = load ptr, ptr %15, align 4, !dbg !3370
  %28 = load ptr, ptr %5, align 4, !dbg !3371
  %29 = call noundef ptr @_ZNKSt3__h12basic_stringIcNS_11char_traitsIcEENS_9allocatorIcEEE4dataB6v15004Ev(ptr noundef nonnull align 4 dereferenceable(12) %28) #12, !dbg !3372
  %30 = load i32, ptr %7, align 4, !dbg !3373
  %31 = call noundef ptr @_ZNSt3__h11char_traitsIcE4copyEPcPKcj(ptr noundef %27, ptr noundef %29, i32 noundef %30) #12, !dbg !3374
  %32 = load ptr, ptr %15, align 4, !dbg !3375
  %33 = load i32, ptr %7, align 4, !dbg !3376
  %34 = getelementptr inbounds i8, ptr %32, i32 %33, !dbg !3377
  %35 = load ptr, ptr %6, align 4, !dbg !3378
  %36 = call noundef ptr @_ZNKSt3__h12basic_stringIcNS_11char_traitsIcEENS_9allocatorIcEEE4dataB6v15004Ev(ptr noundef nonnull align 4 dereferenceable(12) %35) #12, !dbg !3379
  %37 = load i32, ptr %8, align 4, !dbg !3380
  %38 = call noundef ptr @_ZNSt3__h11char_traitsIcE4copyEPcPKcj(ptr noundef %34, ptr noundef %36, i32 noundef %37) #12, !dbg !3381
  %39 = load ptr, ptr %15, align 4, !dbg !3382
  %40 = load i32, ptr %7, align 4, !dbg !3383
  %41 = getelementptr inbounds i8, ptr %39, i32 %40, !dbg !3384
  %42 = load i32, ptr %8, align 4, !dbg !3385
  %43 = getelementptr inbounds i8, ptr %41, i32 %42, !dbg !3386
  %44 = call noundef ptr @_ZNSt3__h11char_traitsIcE6assignEPcjc(ptr noundef %43, i32 noundef 1, i8 noundef zeroext 0) #12, !dbg !3387
  store i1 true, ptr %9, align 1, !dbg !3388
  %45 = load i1, ptr %9, align 1, !dbg !3389
  br i1 %45, label %48, label %46, !dbg !3389

46:                                               ; preds = %3
  %47 = call noundef ptr @_ZNSt3__h12basic_stringIcNS_11char_traitsIcEENS_9allocatorIcEEED1Ev(ptr noundef nonnull align 4 dereferenceable(12) %0) #12, !dbg !3389
  br label %48, !dbg !3389

48:                                               ; preds = %46, %3
  ret void, !dbg !3389
}

; Function Attrs: nounwind
declare noundef ptr @_ZNSt3__h12basic_stringIcNS_11char_traitsIcEENS_9allocatorIcEEED1Ev(ptr noundef nonnull returned align 4 dereferenceable(12)) unnamed_addr #4

; Function Attrs: noinline nounwind optnone sspstrong uwtable(sync)
define linkonce_odr hidden noundef ptr @_ZNSt3__h14basic_ifstreamIcNS_11char_traitsIcEEEC1ERKNS_12basic_stringIcS2_NS_9allocatorIcEEEEj(ptr noundef nonnull returned align 4 dereferenceable(108) %0, ptr noundef nonnull align 4 dereferenceable(12) %1, i32 noundef %2) unnamed_addr #3 comdat align 2 !dbg !3390 {
  %4 = alloca ptr, align 4
  %5 = alloca ptr, align 4
  %6 = alloca ptr, align 4
  %7 = alloca i32, align 4
  store ptr %0, ptr %5, align 4
  call void @llvm.dbg.declare(metadata ptr %5, metadata !3391, metadata !DIExpression()), !dbg !3393
  store ptr %1, ptr %6, align 4
  call void @llvm.dbg.declare(metadata ptr %6, metadata !3394, metadata !DIExpression()), !dbg !3395
  store i32 %2, ptr %7, align 4
  call void @llvm.dbg.declare(metadata ptr %7, metadata !3396, metadata !DIExpression()), !dbg !3397
  %8 = load ptr, ptr %5, align 4
  store ptr %8, ptr %4, align 4
  %9 = getelementptr inbounds i8, ptr %8, i32 108, !dbg !3398
  %10 = call noundef ptr @_ZNSt3__h9basic_iosIcNS_11char_traitsIcEEEC2B6v15004Ev(ptr noundef nonnull align 4 dereferenceable(80) %9), !dbg !3399
  store ptr getelementptr inbounds ({ [5 x ptr], [5 x ptr] }, ptr @_ZTVNSt3__h14basic_ifstreamIcNS_11char_traitsIcEEEE, i32 0, inrange i32 0, i32 3), ptr %8, align 4, !dbg !3398
  %11 = getelementptr inbounds i8, ptr %8, i32 108, !dbg !3398
  store ptr getelementptr inbounds ({ [5 x ptr], [5 x ptr] }, ptr @_ZTVNSt3__h14basic_ifstreamIcNS_11char_traitsIcEEEE, i32 0, inrange i32 1, i32 3), ptr %11, align 4, !dbg !3398
  %12 = getelementptr inbounds %"class.std::__h::basic_ifstream", ptr %8, i32 0, i32 1, !dbg !3400
  %13 = call noundef ptr @_ZNSt3__h13basic_istreamIcNS_11char_traitsIcEEEC2B6v15004EPNS_15basic_streambufIcS2_EE(ptr noundef nonnull align 4 dereferenceable(8) %8, ptr noundef getelementptr inbounds ([4 x ptr], ptr @_ZTTNSt3__h14basic_ifstreamIcNS_11char_traitsIcEEEE, i64 0, i64 1), ptr noundef %12), !dbg !3401
  store ptr getelementptr inbounds ({ [5 x ptr], [5 x ptr] }, ptr @_ZTVNSt3__h14basic_ifstreamIcNS_11char_traitsIcEEEE, i32 0, inrange i32 0, i32 3), ptr %8, align 4, !dbg !3398
  %14 = getelementptr inbounds i8, ptr %8, i32 108, !dbg !3398
  store ptr getelementptr inbounds ({ [5 x ptr], [5 x ptr] }, ptr @_ZTVNSt3__h14basic_ifstreamIcNS_11char_traitsIcEEEE, i32 0, inrange i32 1, i32 3), ptr %14, align 4, !dbg !3398
  %15 = getelementptr inbounds %"class.std::__h::basic_ifstream", ptr %8, i32 0, i32 1, !dbg !3399
  %16 = call noundef ptr @_ZNSt3__h13basic_filebufIcNS_11char_traitsIcEEEC2Ev(ptr noundef nonnull align 4 dereferenceable(99) %15), !dbg !3399
  %17 = getelementptr inbounds %"class.std::__h::basic_ifstream", ptr %8, i32 0, i32 1, !dbg !3402
  %18 = load ptr, ptr %6, align 4, !dbg !3405
  %19 = load i32, ptr %7, align 4, !dbg !3406
  %20 = or i32 %19, 8, !dbg !3407
  %21 = call noundef ptr @_ZNSt3__h13basic_filebufIcNS_11char_traitsIcEEE4openERKNS_12basic_stringIcS2_NS_9allocatorIcEEEEj(ptr noundef nonnull align 4 dereferenceable(99) %17, ptr noundef nonnull align 4 dereferenceable(12) %18, i32 noundef %20), !dbg !3408
  %22 = icmp eq ptr %21, null, !dbg !3409
  br i1 %22, label %23, label %28, !dbg !3410

23:                                               ; preds = %3
  %24 = load ptr, ptr %8, align 4, !dbg !3411
  %25 = getelementptr i8, ptr %24, i64 -12, !dbg !3411
  %26 = load i32, ptr %25, align 4, !dbg !3411
  %27 = getelementptr inbounds i8, ptr %8, i32 %26, !dbg !3411
  call void @_ZNSt3__h9basic_iosIcNS_11char_traitsIcEEE8setstateB6v15004Ej(ptr noundef nonnull align 4 dereferenceable(80) %27, i32 noundef 4), !dbg !3411
  br label %28, !dbg !3412

28:                                               ; preds = %23, %3
  %29 = load ptr, ptr %4, align 4, !dbg !3413
  ret ptr %29, !dbg !3413
}

; Function Attrs: noinline nounwind optnone sspstrong uwtable(sync)
define linkonce_odr hidden noundef ptr @_ZNSt3__h14basic_ofstreamIcNS_11char_traitsIcEEEC1EPKcj(ptr noundef nonnull returned align 4 dereferenceable(104) %0, ptr noundef %1, i32 noundef %2) unnamed_addr #3 comdat align 2 !dbg !3414 {
  %4 = alloca ptr, align 4
  %5 = alloca ptr, align 4
  %6 = alloca ptr, align 4
  %7 = alloca i32, align 4
  store ptr %0, ptr %5, align 4
  call void @llvm.dbg.declare(metadata ptr %5, metadata !3415, metadata !DIExpression()), !dbg !3417
  store ptr %1, ptr %6, align 4
  call void @llvm.dbg.declare(metadata ptr %6, metadata !3418, metadata !DIExpression()), !dbg !3419
  store i32 %2, ptr %7, align 4
  call void @llvm.dbg.declare(metadata ptr %7, metadata !3420, metadata !DIExpression()), !dbg !3421
  %8 = load ptr, ptr %5, align 4
  store ptr %8, ptr %4, align 4
  %9 = getelementptr inbounds i8, ptr %8, i32 104, !dbg !3422
  %10 = call noundef ptr @_ZNSt3__h9basic_iosIcNS_11char_traitsIcEEEC2B6v15004Ev(ptr noundef nonnull align 4 dereferenceable(80) %9), !dbg !3423
  store ptr getelementptr inbounds ({ [5 x ptr], [5 x ptr] }, ptr @_ZTVNSt3__h14basic_ofstreamIcNS_11char_traitsIcEEEE, i32 0, inrange i32 0, i32 3), ptr %8, align 4, !dbg !3422
  %11 = getelementptr inbounds i8, ptr %8, i32 104, !dbg !3422
  store ptr getelementptr inbounds ({ [5 x ptr], [5 x ptr] }, ptr @_ZTVNSt3__h14basic_ofstreamIcNS_11char_traitsIcEEEE, i32 0, inrange i32 1, i32 3), ptr %11, align 4, !dbg !3422
  %12 = getelementptr inbounds %"class.std::__h::basic_ofstream", ptr %8, i32 0, i32 1, !dbg !3424
  %13 = call noundef ptr @_ZNSt3__h13basic_ostreamIcNS_11char_traitsIcEEEC2B6v15004EPNS_15basic_streambufIcS2_EE(ptr noundef nonnull align 4 dereferenceable(4) %8, ptr noundef getelementptr inbounds ([4 x ptr], ptr @_ZTTNSt3__h14basic_ofstreamIcNS_11char_traitsIcEEEE, i64 0, i64 1), ptr noundef %12), !dbg !3425
  store ptr getelementptr inbounds ({ [5 x ptr], [5 x ptr] }, ptr @_ZTVNSt3__h14basic_ofstreamIcNS_11char_traitsIcEEEE, i32 0, inrange i32 0, i32 3), ptr %8, align 4, !dbg !3422
  %14 = getelementptr inbounds i8, ptr %8, i32 104, !dbg !3422
  store ptr getelementptr inbounds ({ [5 x ptr], [5 x ptr] }, ptr @_ZTVNSt3__h14basic_ofstreamIcNS_11char_traitsIcEEEE, i32 0, inrange i32 1, i32 3), ptr %14, align 4, !dbg !3422
  %15 = getelementptr inbounds %"class.std::__h::basic_ofstream", ptr %8, i32 0, i32 1, !dbg !3423
  %16 = call noundef ptr @_ZNSt3__h13basic_filebufIcNS_11char_traitsIcEEEC2Ev(ptr noundef nonnull align 4 dereferenceable(99) %15), !dbg !3423
  %17 = getelementptr inbounds %"class.std::__h::basic_ofstream", ptr %8, i32 0, i32 1, !dbg !3426
  %18 = load ptr, ptr %6, align 4, !dbg !3429
  %19 = load i32, ptr %7, align 4, !dbg !3430
  %20 = or i32 %19, 16, !dbg !3431
  %21 = call noundef ptr @_ZNSt3__h13basic_filebufIcNS_11char_traitsIcEEE4openEPKcj(ptr noundef nonnull align 4 dereferenceable(99) %17, ptr noundef %18, i32 noundef %20), !dbg !3432
  %22 = icmp eq ptr %21, null, !dbg !3433
  br i1 %22, label %23, label %28, !dbg !3434

23:                                               ; preds = %3
  %24 = load ptr, ptr %8, align 4, !dbg !3435
  %25 = getelementptr i8, ptr %24, i64 -12, !dbg !3435
  %26 = load i32, ptr %25, align 4, !dbg !3435
  %27 = getelementptr inbounds i8, ptr %8, i32 %26, !dbg !3435
  call void @_ZNSt3__h9basic_iosIcNS_11char_traitsIcEEE8setstateB6v15004Ej(ptr noundef nonnull align 4 dereferenceable(80) %27, i32 noundef 4), !dbg !3435
  br label %28, !dbg !3436

28:                                               ; preds = %23, %3
  %29 = load ptr, ptr %4, align 4, !dbg !3437
  ret ptr %29, !dbg !3437
}

; Function Attrs: noinline nounwind optnone sspstrong uwtable(sync)
define linkonce_odr hidden noundef ptr @_ZNSt3__h12basic_stringIcNS_11char_traitsIcEENS_9allocatorIcEEEC2B6v15004Ev(ptr noundef nonnull returned align 4 dereferenceable(12) %0) unnamed_addr #3 comdat align 2 !dbg !3438 {
  %2 = alloca ptr, align 4
  %3 = alloca %"struct.std::__h::__default_init_tag", align 1
  %4 = alloca %"struct.std::__h::__default_init_tag", align 1
  store ptr %0, ptr %2, align 4
  call void @llvm.dbg.declare(metadata ptr %2, metadata !3439, metadata !DIExpression()), !dbg !3440
  %5 = load ptr, ptr %2, align 4
  %6 = getelementptr inbounds %"class.std::__h::basic_string", ptr %5, i32 0, i32 0, !dbg !3441
  %7 = call noundef ptr @_ZNSt3__h17__compressed_pairINS_12basic_stringIcNS_11char_traitsIcEENS_9allocatorIcEEE5__repES5_EC2B6v15004INS_18__default_init_tagESA_EEOT_OT0_(ptr noundef nonnull align 4 dereferenceable(12) %6, ptr noundef nonnull align 1 dereferenceable(1) %3, ptr noundef nonnull align 1 dereferenceable(1) %4), !dbg !3441
  call void @_ZNSt3__h19__debug_db_insert_cB6v15004INS_12basic_stringIcNS_11char_traitsIcEENS_9allocatorIcEEEEEEvPT_(ptr noundef %5), !dbg !3442
  call void @_ZNSt3__h12basic_stringIcNS_11char_traitsIcEENS_9allocatorIcEEE14__default_initB6v15004Ev(ptr noundef nonnull align 4 dereferenceable(12) %5), !dbg !3444
  ret ptr %5, !dbg !3445
}

; Function Attrs: mustprogress noinline nounwind optnone sspstrong uwtable(sync)
define linkonce_odr hidden noundef zeroext i1 @_ZNKSt3__h14basic_ifstreamIcNS_11char_traitsIcEEE7is_openEv(ptr noundef nonnull align 4 dereferenceable(108) %0) #0 comdat align 2 !dbg !3446 {
  %2 = alloca ptr, align 4
  store ptr %0, ptr %2, align 4
  call void @llvm.dbg.declare(metadata ptr %2, metadata !3447, metadata !DIExpression()), !dbg !3449
  %3 = load ptr, ptr %2, align 4
  %4 = getelementptr inbounds %"class.std::__h::basic_ifstream", ptr %3, i32 0, i32 1, !dbg !3450
  %5 = call noundef zeroext i1 @_ZNKSt3__h13basic_filebufIcNS_11char_traitsIcEEE7is_openEv(ptr noundef nonnull align 4 dereferenceable(99) %4), !dbg !3451
  ret i1 %5, !dbg !3452
}

; Function Attrs: mustprogress noinline nounwind optnone sspstrong uwtable(sync)
define linkonce_odr hidden noundef zeroext i1 @_ZNKSt3__h14basic_ofstreamIcNS_11char_traitsIcEEE7is_openEv(ptr noundef nonnull align 4 dereferenceable(104) %0) #0 comdat align 2 !dbg !3453 {
  %2 = alloca ptr, align 4
  store ptr %0, ptr %2, align 4
  call void @llvm.dbg.declare(metadata ptr %2, metadata !3454, metadata !DIExpression()), !dbg !3456
  %3 = load ptr, ptr %2, align 4
  %4 = getelementptr inbounds %"class.std::__h::basic_ofstream", ptr %3, i32 0, i32 1, !dbg !3457
  %5 = call noundef zeroext i1 @_ZNKSt3__h13basic_filebufIcNS_11char_traitsIcEEE7is_openEv(ptr noundef nonnull align 4 dereferenceable(99) %4), !dbg !3458
  ret i1 %5, !dbg !3459
}

; Function Attrs: mustprogress noinline nounwind optnone sspstrong uwtable(sync)
define linkonce_odr hidden noundef nonnull align 4 dereferenceable(8) ptr @_ZNSt3__h7getlineB6v15004IcNS_11char_traitsIcEENS_9allocatorIcEEEERNS_13basic_istreamIT_T0_EES9_RNS_12basic_stringIS6_S7_T1_EE(ptr noundef nonnull align 4 dereferenceable(8) %0, ptr noundef nonnull align 4 dereferenceable(12) %1) #0 comdat !dbg !3460 {
  %3 = alloca ptr, align 4
  %4 = alloca ptr, align 4
  store ptr %0, ptr %3, align 4
  call void @llvm.dbg.declare(metadata ptr %3, metadata !3463, metadata !DIExpression()), !dbg !3464
  store ptr %1, ptr %4, align 4
  call void @llvm.dbg.declare(metadata ptr %4, metadata !3465, metadata !DIExpression()), !dbg !3466
  %5 = load ptr, ptr %3, align 4, !dbg !3467
  %6 = load ptr, ptr %4, align 4, !dbg !3468
  %7 = load ptr, ptr %3, align 4, !dbg !3469
  %8 = load ptr, ptr %7, align 4, !dbg !3469
  %9 = getelementptr i8, ptr %8, i64 -12, !dbg !3469
  %10 = load i32, ptr %9, align 4, !dbg !3469
  %11 = getelementptr inbounds i8, ptr %7, i32 %10, !dbg !3469
  %12 = call noundef zeroext i8 @_ZNKSt3__h9basic_iosIcNS_11char_traitsIcEEE5widenB6v15004Ec(ptr noundef nonnull align 4 dereferenceable(80) %11, i8 noundef zeroext 10), !dbg !3470
  %13 = call noundef nonnull align 4 dereferenceable(8) ptr @_ZNSt3__h7getlineIcNS_11char_traitsIcEENS_9allocatorIcEEEERNS_13basic_istreamIT_T0_EES9_RNS_12basic_stringIS6_S7_T1_EES6_(ptr noundef nonnull align 4 dereferenceable(8) %5, ptr noundef nonnull align 4 dereferenceable(12) %6, i8 noundef zeroext %12), !dbg !3471
  ret ptr %13, !dbg !3472
}

; Function Attrs: mustprogress noinline nounwind optnone sspstrong uwtable(sync)
define linkonce_odr hidden noundef zeroext i1 @_ZNKSt3__h9basic_iosIcNS_11char_traitsIcEEEcvbB6v15004Ev(ptr noundef nonnull align 4 dereferenceable(80) %0) #0 comdat align 2 !dbg !3473 {
  %2 = alloca ptr, align 4
  store ptr %0, ptr %2, align 4
  call void @llvm.dbg.declare(metadata ptr %2, metadata !3474, metadata !DIExpression()), !dbg !3476
  %3 = load ptr, ptr %2, align 4
  %4 = call noundef zeroext i1 @_ZNKSt3__h9basic_iosIcNS_11char_traitsIcEEE4failB6v15004Ev(ptr noundef nonnull align 4 dereferenceable(80) %3), !dbg !3477
  %5 = xor i1 %4, true, !dbg !3478
  ret i1 %5, !dbg !3479
}

; Function Attrs: mustprogress noinline nounwind optnone sspstrong uwtable(sync)
define linkonce_odr noundef nonnull align 4 dereferenceable(4) ptr @_ZNSt3__hlsIcNS_11char_traitsIcEENS_9allocatorIcEEEERNS_13basic_ostreamIT_T0_EES9_RKNS_12basic_stringIS6_S7_T1_EE(ptr noundef nonnull align 4 dereferenceable(4) %0, ptr noundef nonnull align 4 dereferenceable(12) %1) #0 comdat !dbg !3480 {
  %3 = alloca ptr, align 4
  %4 = alloca ptr, align 4
  store ptr %0, ptr %3, align 4
  call void @llvm.dbg.declare(metadata ptr %3, metadata !3483, metadata !DIExpression()), !dbg !3484
  store ptr %1, ptr %4, align 4
  call void @llvm.dbg.declare(metadata ptr %4, metadata !3485, metadata !DIExpression()), !dbg !3486
  %5 = load ptr, ptr %3, align 4, !dbg !3487
  %6 = load ptr, ptr %4, align 4, !dbg !3488
  %7 = call noundef ptr @_ZNKSt3__h12basic_stringIcNS_11char_traitsIcEENS_9allocatorIcEEE4dataB6v15004Ev(ptr noundef nonnull align 4 dereferenceable(12) %6) #12, !dbg !3489
  %8 = load ptr, ptr %4, align 4, !dbg !3490
  %9 = call noundef i32 @_ZNKSt3__h12basic_stringIcNS_11char_traitsIcEENS_9allocatorIcEEE4sizeB6v15004Ev(ptr noundef nonnull align 4 dereferenceable(12) %8) #12, !dbg !3491
  %10 = call noundef nonnull align 4 dereferenceable(4) ptr @_ZNSt3__h24__put_character_sequenceIcNS_11char_traitsIcEEEERNS_13basic_ostreamIT_T0_EES7_PKS4_j(ptr noundef nonnull align 4 dereferenceable(4) %5, ptr noundef %7, i32 noundef %9), !dbg !3492
  ret ptr %10, !dbg !3493
}

; Function Attrs: mustprogress noinline nounwind optnone sspstrong uwtable(sync)
define linkonce_odr hidden noundef nonnull align 4 dereferenceable(4) ptr @_ZNSt3__h13basic_ostreamIcNS_11char_traitsIcEEElsB6v15004EPFRS3_S4_E(ptr noundef nonnull align 4 dereferenceable(4) %0, ptr noundef %1) #0 comdat align 2 !dbg !3494 {
  %3 = alloca ptr, align 4
  %4 = alloca ptr, align 4
  store ptr %0, ptr %3, align 4
  call void @llvm.dbg.declare(metadata ptr %3, metadata !3495, metadata !DIExpression()), !dbg !3496
  store ptr %1, ptr %4, align 4
  call void @llvm.dbg.declare(metadata ptr %4, metadata !3497, metadata !DIExpression()), !dbg !3498
  %5 = load ptr, ptr %3, align 4
  %6 = load ptr, ptr %4, align 4, !dbg !3499
  %7 = call noundef nonnull align 4 dereferenceable(4) ptr %6(ptr noundef nonnull align 4 dereferenceable(4) %5), !dbg !3499
  ret ptr %7, !dbg !3500
}

; Function Attrs: mustprogress noinline nounwind optnone sspstrong uwtable(sync)
define linkonce_odr hidden noundef nonnull align 4 dereferenceable(4) ptr @_ZNSt3__h4endlIcNS_11char_traitsIcEEEERNS_13basic_ostreamIT_T0_EES7_(ptr noundef nonnull align 4 dereferenceable(4) %0) #0 comdat !dbg !3501 {
  %2 = alloca ptr, align 4
  store ptr %0, ptr %2, align 4
  call void @llvm.dbg.declare(metadata ptr %2, metadata !3502, metadata !DIExpression()), !dbg !3503
  %3 = load ptr, ptr %2, align 4, !dbg !3504
  %4 = load ptr, ptr %2, align 4, !dbg !3505
  %5 = load ptr, ptr %4, align 4, !dbg !3505
  %6 = getelementptr i8, ptr %5, i64 -12, !dbg !3505
  %7 = load i32, ptr %6, align 4, !dbg !3505
  %8 = getelementptr inbounds i8, ptr %4, i32 %7, !dbg !3505
  %9 = call noundef zeroext i8 @_ZNKSt3__h9basic_iosIcNS_11char_traitsIcEEE5widenB6v15004Ec(ptr noundef nonnull align 4 dereferenceable(80) %8, i8 noundef zeroext 10), !dbg !3506
  %10 = call noundef nonnull align 4 dereferenceable(4) ptr @_ZNSt3__h13basic_ostreamIcNS_11char_traitsIcEEE3putEc(ptr noundef nonnull align 4 dereferenceable(4) %3, i8 noundef zeroext %9), !dbg !3507
  %11 = load ptr, ptr %2, align 4, !dbg !3508
  %12 = call noundef nonnull align 4 dereferenceable(4) ptr @_ZNSt3__h13basic_ostreamIcNS_11char_traitsIcEEE5flushEv(ptr noundef nonnull align 4 dereferenceable(4) %11), !dbg !3509
  %13 = load ptr, ptr %2, align 4, !dbg !3510
  ret ptr %13, !dbg !3511
}

declare noundef nonnull align 4 dereferenceable(4) ptr @_ZNSt3__h13basic_ostreamIcNS_11char_traitsIcEEElsEi(ptr noundef nonnull align 4 dereferenceable(4), i32 noundef) #5

; Function Attrs: noinline nounwind optnone sspstrong uwtable(sync)
define linkonce_odr hidden noundef ptr @_ZNSt3__h14basic_ofstreamIcNS_11char_traitsIcEEED1Ev(ptr noundef nonnull returned align 4 dereferenceable(104) %0) unnamed_addr #3 comdat align 2 !dbg !3512 {
  %2 = alloca ptr, align 4
  store ptr %0, ptr %2, align 4
  call void @llvm.dbg.declare(metadata ptr %2, metadata !3514, metadata !DIExpression()), !dbg !3515
  %3 = load ptr, ptr %2, align 4
  %4 = call noundef ptr @_ZNSt3__h14basic_ofstreamIcNS_11char_traitsIcEEED2Ev(ptr noundef nonnull align 4 dereferenceable(104) %3, ptr noundef @_ZTTNSt3__h14basic_ofstreamIcNS_11char_traitsIcEEEE) #12, !dbg !3516
  %5 = getelementptr inbounds i8, ptr %3, i32 104, !dbg !3516
  %6 = call noundef ptr @_ZNSt3__h9basic_iosIcNS_11char_traitsIcEEED2Ev(ptr noundef nonnull align 4 dereferenceable(80) %5) #12, !dbg !3516
  ret ptr %3, !dbg !3516
}

; Function Attrs: noinline nounwind optnone sspstrong uwtable(sync)
define linkonce_odr hidden noundef ptr @_ZNSt3__h14basic_ifstreamIcNS_11char_traitsIcEEED1Ev(ptr noundef nonnull returned align 4 dereferenceable(108) %0) unnamed_addr #3 comdat align 2 !dbg !3517 {
  %2 = alloca ptr, align 4
  store ptr %0, ptr %2, align 4
  call void @llvm.dbg.declare(metadata ptr %2, metadata !3519, metadata !DIExpression()), !dbg !3520
  %3 = load ptr, ptr %2, align 4
  %4 = call noundef ptr @_ZNSt3__h14basic_ifstreamIcNS_11char_traitsIcEEED2Ev(ptr noundef nonnull align 4 dereferenceable(108) %3, ptr noundef @_ZTTNSt3__h14basic_ifstreamIcNS_11char_traitsIcEEEE) #12, !dbg !3521
  %5 = getelementptr inbounds i8, ptr %3, i32 108, !dbg !3521
  %6 = call noundef ptr @_ZNSt3__h9basic_iosIcNS_11char_traitsIcEEED2Ev(ptr noundef nonnull align 4 dereferenceable(80) %5) #12, !dbg !3521
  ret ptr %3, !dbg !3521
}

; Function Attrs: mustprogress noinline nounwind optnone sspstrong uwtable(sync)
define noundef i32 @_Z24innerMayIllegalInforFlowi(i32 noundef %0) #0 !dbg !3522 {
  %2 = alloca i32, align 4
  %3 = alloca %"class.std::__h::basic_ifstream", align 4
  %4 = alloca %"class.std::__h::basic_ofstream", align 4
  %5 = alloca %"class.std::__h::basic_string", align 4
  store i32 %0, ptr %2, align 4
  call void @llvm.dbg.declare(metadata ptr %2, metadata !3523, metadata !DIExpression()), !dbg !3524
  call void @llvm.dbg.declare(metadata ptr %3, metadata !3525, metadata !DIExpression()), !dbg !3526
  call void @llvm.memset.p0.i32(ptr align 4 %3, i8 0, i32 188, i1 false), !dbg !3526, !annotation !3270
  %6 = call noundef ptr @_ZNSt3__h14basic_ifstreamIcNS_11char_traitsIcEEEC1EPKcj(ptr noundef nonnull align 4 dereferenceable(108) %3, ptr noundef @.str.4, i32 noundef 8), !dbg !3526
  call void @llvm.dbg.declare(metadata ptr %4, metadata !3527, metadata !DIExpression()), !dbg !3528
  call void @llvm.memset.p0.i32(ptr align 4 %4, i8 0, i32 184, i1 false), !dbg !3528, !annotation !3270
  %7 = call noundef ptr @_ZNSt3__h14basic_ofstreamIcNS_11char_traitsIcEEEC1EPKcj(ptr noundef nonnull align 4 dereferenceable(104) %4, ptr noundef @.str.3, i32 noundef 1), !dbg !3528
  call void @llvm.dbg.declare(metadata ptr %5, metadata !3529, metadata !DIExpression()), !dbg !3530
  call void @llvm.memset.p0.i32(ptr align 4 %5, i8 0, i32 12, i1 false), !dbg !3530, !annotation !3270
  %8 = call noundef ptr @_ZNSt3__h12basic_stringIcNS_11char_traitsIcEENS_9allocatorIcEEEC2B6v15004Ev(ptr noundef nonnull align 4 dereferenceable(12) %5) #12, !dbg !3530
  %9 = call noundef zeroext i1 @_ZNKSt3__h14basic_ifstreamIcNS_11char_traitsIcEEE7is_openEv(ptr noundef nonnull align 4 dereferenceable(108) %3), !dbg !3531
  br i1 %9, label %10, label %26, !dbg !3533

10:                                               ; preds = %1
  %11 = call noundef zeroext i1 @_ZNKSt3__h14basic_ofstreamIcNS_11char_traitsIcEEE7is_openEv(ptr noundef nonnull align 4 dereferenceable(104) %4), !dbg !3534
  br i1 %11, label %12, label %26, !dbg !3535

12:                                               ; preds = %10
  %13 = call noundef nonnull align 4 dereferenceable(8) ptr @_ZNSt3__h7getlineB6v15004IcNS_11char_traitsIcEENS_9allocatorIcEEEERNS_13basic_istreamIT_T0_EES9_RNS_12basic_stringIS6_S7_T1_EE(ptr noundef nonnull align 4 dereferenceable(8) %3, ptr noundef nonnull align 4 dereferenceable(12) %5), !dbg !3536
  %14 = load ptr, ptr %13, align 4, !dbg !3536
  %15 = getelementptr i8, ptr %14, i64 -12, !dbg !3536
  %16 = load i32, ptr %15, align 4, !dbg !3536
  %17 = getelementptr inbounds i8, ptr %13, i32 %16, !dbg !3536
  %18 = call noundef zeroext i1 @_ZNKSt3__h9basic_iosIcNS_11char_traitsIcEEEcvbB6v15004Ev(ptr noundef nonnull align 4 dereferenceable(80) %17), !dbg !3536
  br i1 %18, label %19, label %25, !dbg !3539

19:                                               ; preds = %12
  %20 = call noundef nonnull align 4 dereferenceable(4) ptr @_ZNSt3__hlsINS_11char_traitsIcEEEERNS_13basic_ostreamIcT_EES6_PKc(ptr noundef nonnull align 4 dereferenceable(4) %4, ptr noundef @.str.5), !dbg !3540
  %21 = call noundef nonnull align 4 dereferenceable(4) ptr @_ZNSt3__h13basic_ostreamIcNS_11char_traitsIcEEElsB6v15004EPFRS3_S4_E(ptr noundef nonnull align 4 dereferenceable(4) %20, ptr noundef @_ZNSt3__h4endlIcNS_11char_traitsIcEEEERNS_13basic_ostreamIT_T0_EES7_), !dbg !3542
  %22 = load i32, ptr %2, align 4, !dbg !3543
  %23 = call noundef nonnull align 4 dereferenceable(4) ptr @_ZNSt3__h13basic_ostreamIcNS_11char_traitsIcEEElsEi(ptr noundef nonnull align 4 dereferenceable(4) %4, i32 noundef %22), !dbg !3544
  %24 = call noundef nonnull align 4 dereferenceable(4) ptr @_ZNSt3__h13basic_ostreamIcNS_11char_traitsIcEEElsB6v15004EPFRS3_S4_E(ptr noundef nonnull align 4 dereferenceable(4) %23, ptr noundef @_ZNSt3__h4endlIcNS_11char_traitsIcEEEERNS_13basic_ostreamIT_T0_EES7_), !dbg !3545
  br label %25, !dbg !3546

25:                                               ; preds = %19, %12
  br label %26, !dbg !3547

26:                                               ; preds = %25, %10, %1
  %27 = call noundef ptr @_ZNSt3__h12basic_stringIcNS_11char_traitsIcEENS_9allocatorIcEEED1Ev(ptr noundef nonnull align 4 dereferenceable(12) %5) #12, !dbg !3548
  %28 = call noundef ptr @_ZNSt3__h14basic_ofstreamIcNS_11char_traitsIcEEED1Ev(ptr noundef nonnull align 4 dereferenceable(104) %4) #12, !dbg !3548
  %29 = call noundef ptr @_ZNSt3__h14basic_ifstreamIcNS_11char_traitsIcEEED1Ev(ptr noundef nonnull align 4 dereferenceable(108) %3) #12, !dbg !3548
  ret i32 0, !dbg !3548
}

; Function Attrs: noinline nounwind optnone sspstrong uwtable(sync)
define linkonce_odr hidden noundef ptr @_ZNSt3__h14basic_ifstreamIcNS_11char_traitsIcEEEC1EPKcj(ptr noundef nonnull returned align 4 dereferenceable(108) %0, ptr noundef %1, i32 noundef %2) unnamed_addr #3 comdat align 2 !dbg !3549 {
  %4 = alloca ptr, align 4
  %5 = alloca ptr, align 4
  %6 = alloca ptr, align 4
  %7 = alloca i32, align 4
  store ptr %0, ptr %5, align 4
  call void @llvm.dbg.declare(metadata ptr %5, metadata !3550, metadata !DIExpression()), !dbg !3551
  store ptr %1, ptr %6, align 4
  call void @llvm.dbg.declare(metadata ptr %6, metadata !3552, metadata !DIExpression()), !dbg !3553
  store i32 %2, ptr %7, align 4
  call void @llvm.dbg.declare(metadata ptr %7, metadata !3554, metadata !DIExpression()), !dbg !3555
  %8 = load ptr, ptr %5, align 4
  store ptr %8, ptr %4, align 4
  %9 = getelementptr inbounds i8, ptr %8, i32 108, !dbg !3556
  %10 = call noundef ptr @_ZNSt3__h9basic_iosIcNS_11char_traitsIcEEEC2B6v15004Ev(ptr noundef nonnull align 4 dereferenceable(80) %9), !dbg !3557
  store ptr getelementptr inbounds ({ [5 x ptr], [5 x ptr] }, ptr @_ZTVNSt3__h14basic_ifstreamIcNS_11char_traitsIcEEEE, i32 0, inrange i32 0, i32 3), ptr %8, align 4, !dbg !3556
  %11 = getelementptr inbounds i8, ptr %8, i32 108, !dbg !3556
  store ptr getelementptr inbounds ({ [5 x ptr], [5 x ptr] }, ptr @_ZTVNSt3__h14basic_ifstreamIcNS_11char_traitsIcEEEE, i32 0, inrange i32 1, i32 3), ptr %11, align 4, !dbg !3556
  %12 = getelementptr inbounds %"class.std::__h::basic_ifstream", ptr %8, i32 0, i32 1, !dbg !3558
  %13 = call noundef ptr @_ZNSt3__h13basic_istreamIcNS_11char_traitsIcEEEC2B6v15004EPNS_15basic_streambufIcS2_EE(ptr noundef nonnull align 4 dereferenceable(8) %8, ptr noundef getelementptr inbounds ([4 x ptr], ptr @_ZTTNSt3__h14basic_ifstreamIcNS_11char_traitsIcEEEE, i64 0, i64 1), ptr noundef %12), !dbg !3559
  store ptr getelementptr inbounds ({ [5 x ptr], [5 x ptr] }, ptr @_ZTVNSt3__h14basic_ifstreamIcNS_11char_traitsIcEEEE, i32 0, inrange i32 0, i32 3), ptr %8, align 4, !dbg !3556
  %14 = getelementptr inbounds i8, ptr %8, i32 108, !dbg !3556
  store ptr getelementptr inbounds ({ [5 x ptr], [5 x ptr] }, ptr @_ZTVNSt3__h14basic_ifstreamIcNS_11char_traitsIcEEEE, i32 0, inrange i32 1, i32 3), ptr %14, align 4, !dbg !3556
  %15 = getelementptr inbounds %"class.std::__h::basic_ifstream", ptr %8, i32 0, i32 1, !dbg !3557
  %16 = call noundef ptr @_ZNSt3__h13basic_filebufIcNS_11char_traitsIcEEEC2Ev(ptr noundef nonnull align 4 dereferenceable(99) %15), !dbg !3557
  %17 = getelementptr inbounds %"class.std::__h::basic_ifstream", ptr %8, i32 0, i32 1, !dbg !3560
  %18 = load ptr, ptr %6, align 4, !dbg !3563
  %19 = load i32, ptr %7, align 4, !dbg !3564
  %20 = or i32 %19, 8, !dbg !3565
  %21 = call noundef ptr @_ZNSt3__h13basic_filebufIcNS_11char_traitsIcEEE4openEPKcj(ptr noundef nonnull align 4 dereferenceable(99) %17, ptr noundef %18, i32 noundef %20), !dbg !3566
  %22 = icmp eq ptr %21, null, !dbg !3567
  br i1 %22, label %23, label %28, !dbg !3568

23:                                               ; preds = %3
  %24 = load ptr, ptr %8, align 4, !dbg !3569
  %25 = getelementptr i8, ptr %24, i64 -12, !dbg !3569
  %26 = load i32, ptr %25, align 4, !dbg !3569
  %27 = getelementptr inbounds i8, ptr %8, i32 %26, !dbg !3569
  call void @_ZNSt3__h9basic_iosIcNS_11char_traitsIcEEE8setstateB6v15004Ej(ptr noundef nonnull align 4 dereferenceable(80) %27, i32 noundef 4), !dbg !3569
  br label %28, !dbg !3570

28:                                               ; preds = %23, %3
  %29 = load ptr, ptr %4, align 4, !dbg !3571
  ret ptr %29, !dbg !3571
}

; Function Attrs: mustprogress noinline nounwind optnone sspstrong uwtable(sync)
define linkonce_odr noundef nonnull align 4 dereferenceable(4) ptr @_ZNSt3__hlsINS_11char_traitsIcEEEERNS_13basic_ostreamIcT_EES6_PKc(ptr noundef nonnull align 4 dereferenceable(4) %0, ptr noundef %1) #0 comdat !dbg !3572 {
  %3 = alloca ptr, align 4
  %4 = alloca ptr, align 4
  store ptr %0, ptr %3, align 4
  call void @llvm.dbg.declare(metadata ptr %3, metadata !3576, metadata !DIExpression()), !dbg !3577
  store ptr %1, ptr %4, align 4
  call void @llvm.dbg.declare(metadata ptr %4, metadata !3578, metadata !DIExpression()), !dbg !3579
  %5 = load ptr, ptr %3, align 4, !dbg !3580
  %6 = load ptr, ptr %4, align 4, !dbg !3581
  %7 = load ptr, ptr %4, align 4, !dbg !3582
  %8 = call noundef i32 @_ZNSt3__h11char_traitsIcE6lengthEPKc(ptr noundef %7) #12, !dbg !3583
  %9 = call noundef nonnull align 4 dereferenceable(4) ptr @_ZNSt3__h24__put_character_sequenceIcNS_11char_traitsIcEEEERNS_13basic_ostreamIT_T0_EES7_PKS4_j(ptr noundef nonnull align 4 dereferenceable(4) %5, ptr noundef %6, i32 noundef %8), !dbg !3584
  ret ptr %9, !dbg !3585
}

; Function Attrs: mustprogress noinline nounwind optnone sspstrong uwtable(sync)
define noundef i32 @_Z26innerFalseIllegalInforFlowi(i32 noundef %0) #0 !dbg !3586 {
  %2 = alloca i32, align 4
  %3 = alloca %"class.std::__h::basic_ifstream", align 4
  %4 = alloca %"class.std::__h::basic_string", align 4
  store i32 %0, ptr %2, align 4
  call void @llvm.dbg.declare(metadata ptr %2, metadata !3587, metadata !DIExpression()), !dbg !3588
  call void @llvm.dbg.declare(metadata ptr %3, metadata !3589, metadata !DIExpression()), !dbg !3590
  call void @llvm.memset.p0.i32(ptr align 4 %3, i8 0, i32 188, i1 false), !dbg !3590, !annotation !3270
  %5 = call noundef ptr @_ZNSt3__h14basic_ifstreamIcNS_11char_traitsIcEEEC1EPKcj(ptr noundef nonnull align 4 dereferenceable(108) %3, ptr noundef @.str.4, i32 noundef 8), !dbg !3590
  call void @llvm.dbg.declare(metadata ptr %4, metadata !3591, metadata !DIExpression()), !dbg !3592
  call void @llvm.memset.p0.i32(ptr align 4 %4, i8 0, i32 12, i1 false), !dbg !3592, !annotation !3270
  %6 = call noundef ptr @_ZNSt3__h12basic_stringIcNS_11char_traitsIcEENS_9allocatorIcEEEC2B6v15004Ev(ptr noundef nonnull align 4 dereferenceable(12) %4) #12, !dbg !3592
  %7 = call noundef zeroext i1 @_ZNKSt3__h14basic_ifstreamIcNS_11char_traitsIcEEE7is_openEv(ptr noundef nonnull align 4 dereferenceable(108) %3), !dbg !3593
  br i1 %7, label %8, label %13, !dbg !3595

8:                                                ; preds = %1
  %9 = load i32, ptr %2, align 4, !dbg !3596
  %10 = icmp eq i32 %9, 0, !dbg !3597
  br i1 %10, label %11, label %13, !dbg !3598

11:                                               ; preds = %8
  %12 = call noundef nonnull align 4 dereferenceable(8) ptr @_ZNSt3__h7getlineB6v15004IcNS_11char_traitsIcEENS_9allocatorIcEEEERNS_13basic_istreamIT_T0_EES9_RNS_12basic_stringIS6_S7_T1_EE(ptr noundef nonnull align 4 dereferenceable(8) %3, ptr noundef nonnull align 4 dereferenceable(12) %4), !dbg !3599
  br label %13, !dbg !3601

13:                                               ; preds = %11, %8, %1
  %14 = call noundef ptr @_ZNSt3__h12basic_stringIcNS_11char_traitsIcEENS_9allocatorIcEEED1Ev(ptr noundef nonnull align 4 dereferenceable(12) %4) #12, !dbg !3602
  %15 = call noundef ptr @_ZNSt3__h14basic_ifstreamIcNS_11char_traitsIcEEED1Ev(ptr noundef nonnull align 4 dereferenceable(108) %3) #12, !dbg !3602
  ret i32 0, !dbg !3602
}

; Function Attrs: mustprogress noinline nounwind optnone sspstrong uwtable(sync)
define void @_Z14innerHelloWordv() #0 !dbg !3603 {
  %1 = call noundef nonnull align 4 dereferenceable(4) ptr @_ZNSt3__hlsINS_11char_traitsIcEEEERNS_13basic_ostreamIcT_EES6_PKc(ptr noundef nonnull align 4 dereferenceable(4) @_ZNSt3__h4coutE, ptr noundef @.str.6), !dbg !3604
  %2 = call noundef nonnull align 4 dereferenceable(4) ptr @_ZNSt3__h13basic_ostreamIcNS_11char_traitsIcEEElsB6v15004EPFRS3_S4_E(ptr noundef nonnull align 4 dereferenceable(4) %1, ptr noundef @_ZNSt3__h4endlIcNS_11char_traitsIcEEEERNS_13basic_ostreamIT_T0_EES7_), !dbg !3605
  ret void, !dbg !3606
}

; Function Attrs: mustprogress noinline nounwind optnone sspstrong uwtable(sync)
define noundef i32 @_Z27innerTureIllegalInforFlow_ci(i32 noundef %0) #0 !dbg !3607 {
  %2 = alloca i32, align 4
  %3 = alloca ptr, align 4
  %4 = alloca ptr, align 4
  %5 = alloca [20 x i8], align 1
  %6 = alloca ptr, align 4
  %7 = alloca ptr, align 4
  %8 = alloca [1024 x i8], align 1
  store i32 %0, ptr %2, align 4
  call void @llvm.dbg.declare(metadata ptr %2, metadata !3608, metadata !DIExpression()), !dbg !3609
  call void @llvm.dbg.declare(metadata ptr %3, metadata !3610, metadata !DIExpression()), !dbg !3611
  store ptr null, ptr %3, align 4, !dbg !3611, !annotation !3270
  store ptr @.str.7, ptr %3, align 4, !dbg !3611
  call void @llvm.dbg.declare(metadata ptr %4, metadata !3612, metadata !DIExpression()), !dbg !3613
  store ptr null, ptr %4, align 4, !dbg !3613, !annotation !3270
  store ptr @.str.8, ptr %4, align 4, !dbg !3613
  call void @llvm.dbg.declare(metadata ptr %5, metadata !3614, metadata !DIExpression()), !dbg !3618
  call void @llvm.memset.p0.i32(ptr align 1 %5, i8 0, i32 20, i1 false), !dbg !3618, !annotation !3270
  %9 = getelementptr inbounds [20 x i8], ptr %5, i32 0, i32 0, !dbg !3619
  %10 = load ptr, ptr %3, align 4, !dbg !3620
  %11 = call ptr @strncpy(ptr noundef %9, ptr noundef %10, i32 noundef 19), !dbg !3621
  %12 = getelementptr inbounds [20 x i8], ptr %5, i32 0, i32 19, !dbg !3622
  store i8 0, ptr %12, align 1, !dbg !3623
  %13 = getelementptr inbounds [20 x i8], ptr %5, i32 0, i32 0, !dbg !3624
  %14 = load ptr, ptr %3, align 4, !dbg !3625
  %15 = call i32 @strlen(ptr noundef %14), !dbg !3626
  %16 = getelementptr inbounds i8, ptr %13, i32 %15, !dbg !3627
  %17 = load ptr, ptr %4, align 4, !dbg !3628
  %18 = load ptr, ptr %3, align 4, !dbg !3629
  %19 = call i32 @strlen(ptr noundef %18), !dbg !3630
  %20 = sub i32 20, %19, !dbg !3631
  %21 = sub i32 %20, 1, !dbg !3632
  %22 = call ptr @strncpy(ptr noundef %16, ptr noundef %17, i32 noundef %21), !dbg !3633
  %23 = getelementptr inbounds [20 x i8], ptr %5, i32 0, i32 19, !dbg !3634
  store i8 0, ptr %23, align 1, !dbg !3635
  call void @llvm.dbg.declare(metadata ptr %6, metadata !3636, metadata !DIExpression()), !dbg !3637
  store ptr null, ptr %6, align 4, !dbg !3637, !annotation !3270
  %24 = getelementptr inbounds [20 x i8], ptr %5, i32 0, i32 0, !dbg !3638
  %25 = call ptr @fopen(ptr noundef %24, ptr noundef @.str.9), !dbg !3639
  store ptr %25, ptr %6, align 4, !dbg !3637
  call void @llvm.dbg.declare(metadata ptr %7, metadata !3640, metadata !DIExpression()), !dbg !3641
  store ptr null, ptr %7, align 4, !dbg !3641, !annotation !3270
  %26 = call ptr @fopen(ptr noundef @.str.3, ptr noundef @.str.10), !dbg !3642
  store ptr %26, ptr %7, align 4, !dbg !3641
  call void @llvm.dbg.declare(metadata ptr %8, metadata !3643, metadata !DIExpression()), !dbg !3647
  call void @llvm.memset.p0.i32(ptr align 1 %8, i8 0, i32 1024, i1 false), !dbg !3647
  %27 = load ptr, ptr %6, align 4, !dbg !3648
  %28 = icmp ne ptr %27, null, !dbg !3648
  br i1 %28, label %29, label %45, !dbg !3650

29:                                               ; preds = %1
  %30 = load ptr, ptr %7, align 4, !dbg !3651
  %31 = icmp ne ptr %30, null, !dbg !3651
  br i1 %31, label %32, label %45, !dbg !3652

32:                                               ; preds = %29
  %33 = getelementptr inbounds [1024 x i8], ptr %8, i32 0, i32 0, !dbg !3653
  %34 = load ptr, ptr %6, align 4, !dbg !3656
  %35 = call ptr @fgets(ptr noundef %33, i32 noundef 1024, ptr noundef %34), !dbg !3657
  %36 = icmp ne ptr %35, null, !dbg !3657
  br i1 %36, label %37, label %44, !dbg !3658

37:                                               ; preds = %32
  %38 = load ptr, ptr %7, align 4, !dbg !3659
  %39 = getelementptr inbounds [1024 x i8], ptr %8, i32 0, i32 0, !dbg !3661
  %40 = call i32 (ptr, ptr, ...) @fprintf(ptr noundef %38, ptr noundef @.str.11, ptr noundef %39), !dbg !3662
  %41 = load ptr, ptr %7, align 4, !dbg !3663
  %42 = load i32, ptr %2, align 4, !dbg !3664
  %43 = call i32 (ptr, ptr, ...) @fprintf(ptr noundef %41, ptr noundef @.str.12, i32 noundef %42), !dbg !3665
  br label %44, !dbg !3666

44:                                               ; preds = %37, %32
  br label %45, !dbg !3667

45:                                               ; preds = %44, %29, %1
  %46 = load ptr, ptr %6, align 4, !dbg !3668
  %47 = icmp ne ptr %46, null, !dbg !3668
  br i1 %47, label %48, label %51, !dbg !3670

48:                                               ; preds = %45
  %49 = load ptr, ptr %6, align 4, !dbg !3671
  %50 = call i32 @fclose(ptr noundef %49), !dbg !3672
  br label %51, !dbg !3672

51:                                               ; preds = %48, %45
  %52 = load ptr, ptr %7, align 4, !dbg !3673
  %53 = icmp ne ptr %52, null, !dbg !3673
  br i1 %53, label %54, label %57, !dbg !3675

54:                                               ; preds = %51
  %55 = load ptr, ptr %7, align 4, !dbg !3676
  %56 = call i32 @fclose(ptr noundef %55), !dbg !3677
  br label %57, !dbg !3677

57:                                               ; preds = %54, %51
  ret i32 0, !dbg !3678
}

declare ptr @strncpy(ptr noundef, ptr noundef, i32 noundef) #5

declare i32 @strlen(ptr noundef) #5

declare ptr @fopen(ptr noundef, ptr noundef) #5

declare ptr @fgets(ptr noundef, i32 noundef, ptr noundef) #5

declare i32 @fprintf(ptr noundef, ptr noundef, ...) #5

declare i32 @fclose(ptr noundef) #5

; Function Attrs: mustprogress noinline nounwind optnone sspstrong uwtable(sync)
define noundef i32 @_Z26innerMayIllegalInforFlow_ci(i32 noundef %0) #0 !dbg !3679 {
  %2 = alloca i32, align 4
  %3 = alloca ptr, align 4
  %4 = alloca ptr, align 4
  %5 = alloca [1024 x i8], align 1
  store i32 %0, ptr %2, align 4
  call void @llvm.dbg.declare(metadata ptr %2, metadata !3680, metadata !DIExpression()), !dbg !3681
  call void @llvm.dbg.declare(metadata ptr %3, metadata !3682, metadata !DIExpression()), !dbg !3683
  store ptr null, ptr %3, align 4, !dbg !3683, !annotation !3270
  %6 = call ptr @fopen(ptr noundef @.str.4, ptr noundef @.str.9), !dbg !3684
  store ptr %6, ptr %3, align 4, !dbg !3683
  call void @llvm.dbg.declare(metadata ptr %4, metadata !3685, metadata !DIExpression()), !dbg !3686
  store ptr null, ptr %4, align 4, !dbg !3686, !annotation !3270
  %7 = call ptr @fopen(ptr noundef @.str.3, ptr noundef @.str.10), !dbg !3687
  store ptr %7, ptr %4, align 4, !dbg !3686
  call void @llvm.dbg.declare(metadata ptr %5, metadata !3688, metadata !DIExpression()), !dbg !3689
  call void @llvm.memset.p0.i32(ptr align 1 %5, i8 0, i32 1024, i1 false), !dbg !3689
  %8 = load ptr, ptr %3, align 4, !dbg !3690
  %9 = icmp ne ptr %8, null, !dbg !3690
  br i1 %9, label %10, label %26, !dbg !3692

10:                                               ; preds = %1
  %11 = load ptr, ptr %4, align 4, !dbg !3693
  %12 = icmp ne ptr %11, null, !dbg !3693
  br i1 %12, label %13, label %26, !dbg !3694

13:                                               ; preds = %10
  %14 = getelementptr inbounds [1024 x i8], ptr %5, i32 0, i32 0, !dbg !3695
  %15 = load ptr, ptr %3, align 4, !dbg !3698
  %16 = call ptr @fgets(ptr noundef %14, i32 noundef 1024, ptr noundef %15), !dbg !3699
  %17 = icmp ne ptr %16, null, !dbg !3699
  br i1 %17, label %18, label %25, !dbg !3700

18:                                               ; preds = %13
  %19 = load ptr, ptr %4, align 4, !dbg !3701
  %20 = getelementptr inbounds [1024 x i8], ptr %5, i32 0, i32 0, !dbg !3703
  %21 = call i32 (ptr, ptr, ...) @fprintf(ptr noundef %19, ptr noundef @.str.11, ptr noundef %20), !dbg !3704
  %22 = load ptr, ptr %4, align 4, !dbg !3705
  %23 = load i32, ptr %2, align 4, !dbg !3706
  %24 = call i32 (ptr, ptr, ...) @fprintf(ptr noundef %22, ptr noundef @.str.12, i32 noundef %23), !dbg !3707
  br label %25, !dbg !3708

25:                                               ; preds = %18, %13
  br label %26, !dbg !3709

26:                                               ; preds = %25, %10, %1
  %27 = load ptr, ptr %3, align 4, !dbg !3710
  %28 = icmp ne ptr %27, null, !dbg !3710
  br i1 %28, label %29, label %32, !dbg !3712

29:                                               ; preds = %26
  %30 = load ptr, ptr %3, align 4, !dbg !3713
  %31 = call i32 @fclose(ptr noundef %30), !dbg !3714
  br label %32, !dbg !3714

32:                                               ; preds = %29, %26
  %33 = load ptr, ptr %4, align 4, !dbg !3715
  %34 = icmp ne ptr %33, null, !dbg !3715
  br i1 %34, label %35, label %38, !dbg !3717

35:                                               ; preds = %32
  %36 = load ptr, ptr %4, align 4, !dbg !3718
  %37 = call i32 @fclose(ptr noundef %36), !dbg !3719
  br label %38, !dbg !3719

38:                                               ; preds = %35, %32
  ret i32 0, !dbg !3720
}

; Function Attrs: mustprogress noinline nounwind optnone sspstrong uwtable(sync)
define noundef i32 @_Z28innerFalseIllegalInforFlow_ci(i32 noundef %0) #0 !dbg !3721 {
  %2 = alloca i32, align 4
  %3 = alloca ptr, align 4
  %4 = alloca [1024 x i8], align 1
  store i32 %0, ptr %2, align 4
  call void @llvm.dbg.declare(metadata ptr %2, metadata !3722, metadata !DIExpression()), !dbg !3723
  call void @llvm.dbg.declare(metadata ptr %3, metadata !3724, metadata !DIExpression()), !dbg !3725
  store ptr null, ptr %3, align 4, !dbg !3725, !annotation !3270
  %5 = call ptr @fopen(ptr noundef @.str.4, ptr noundef @.str.9), !dbg !3726
  store ptr %5, ptr %3, align 4, !dbg !3725
  call void @llvm.dbg.declare(metadata ptr %4, metadata !3727, metadata !DIExpression()), !dbg !3728
  call void @llvm.memset.p0.i32(ptr align 1 %4, i8 0, i32 1024, i1 false), !dbg !3728
  %6 = load ptr, ptr %3, align 4, !dbg !3729
  %7 = icmp ne ptr %6, null, !dbg !3729
  br i1 %7, label %8, label %15, !dbg !3731

8:                                                ; preds = %1
  %9 = load i32, ptr %2, align 4, !dbg !3732
  %10 = icmp eq i32 %9, 0, !dbg !3733
  br i1 %10, label %11, label %15, !dbg !3734

11:                                               ; preds = %8
  %12 = getelementptr inbounds [1024 x i8], ptr %4, i32 0, i32 0, !dbg !3735
  %13 = load ptr, ptr %3, align 4, !dbg !3737
  %14 = call ptr @fgets(ptr noundef %12, i32 noundef 1024, ptr noundef %13), !dbg !3738
  br label %15, !dbg !3739

15:                                               ; preds = %11, %8, %1
  %16 = load ptr, ptr %3, align 4, !dbg !3740
  %17 = icmp ne ptr %16, null, !dbg !3740
  br i1 %17, label %18, label %21, !dbg !3742

18:                                               ; preds = %15
  %19 = load ptr, ptr %3, align 4, !dbg !3743
  %20 = call i32 @fclose(ptr noundef %19), !dbg !3744
  br label %21, !dbg !3744

21:                                               ; preds = %18, %15
  ret i32 0, !dbg !3745
}

; Function Attrs: noinline nounwind optnone sspstrong uwtable(sync)
define linkonce_odr hidden noundef ptr @_ZNSt3__h14basic_ofstreamIcNS_11char_traitsIcEEED2Ev(ptr noundef nonnull returned align 4 dereferenceable(104) %0, ptr noundef %1) unnamed_addr #3 comdat align 2 !dbg !3746 {
  %3 = alloca ptr, align 4
  %4 = alloca ptr, align 4
  store ptr %0, ptr %3, align 4
  call void @llvm.dbg.declare(metadata ptr %3, metadata !3747, metadata !DIExpression()), !dbg !3748
  store ptr %1, ptr %4, align 4
  call void @llvm.dbg.declare(metadata ptr %4, metadata !3749, metadata !DIExpression()), !dbg !3748
  %5 = load ptr, ptr %3, align 4
  %6 = load ptr, ptr %4, align 4
  %7 = load ptr, ptr %6, align 4, !dbg !3750
  store ptr %7, ptr %5, align 4, !dbg !3750
  %8 = getelementptr inbounds ptr, ptr %6, i64 3, !dbg !3750
  %9 = load ptr, ptr %8, align 4, !dbg !3750
  %10 = load ptr, ptr %5, align 4, !dbg !3750
  %11 = getelementptr i8, ptr %10, i64 -12, !dbg !3750
  %12 = load i32, ptr %11, align 4, !dbg !3750
  %13 = getelementptr inbounds i8, ptr %5, i32 %12, !dbg !3750
  store ptr %9, ptr %13, align 4, !dbg !3750
  %14 = getelementptr inbounds %"class.std::__h::basic_ofstream", ptr %5, i32 0, i32 1, !dbg !3751
  %15 = call noundef ptr @_ZNSt3__h13basic_filebufIcNS_11char_traitsIcEEED2Ev(ptr noundef nonnull align 4 dereferenceable(99) %14) #12, !dbg !3751
  %16 = getelementptr inbounds ptr, ptr %6, i64 1, !dbg !3751
  %17 = call noundef ptr @_ZNSt3__h13basic_ostreamIcNS_11char_traitsIcEEED2Ev(ptr noundef nonnull align 4 dereferenceable(4) %5, ptr noundef %16) #12, !dbg !3751
  ret ptr %5, !dbg !3750
}

; Function Attrs: nounwind
declare noundef ptr @_ZNSt3__h9basic_iosIcNS_11char_traitsIcEEED2Ev(ptr noundef nonnull returned align 4 dereferenceable(80)) unnamed_addr #4

; Function Attrs: noinline nounwind optnone sspstrong uwtable(sync)
define linkonce_odr hidden noundef ptr @_ZTv0_n12_NSt3__h14basic_ofstreamIcNS_11char_traitsIcEEED1Ev(ptr noundef %0) unnamed_addr #3 comdat align 2 !dbg !3753 {
  %2 = alloca ptr, align 4
  %3 = alloca ptr, align 4
  store ptr %0, ptr %3, align 4
  %4 = load ptr, ptr %3, align 4, !dbg !3755
  store ptr %4, ptr %2, align 4, !dbg !3755
  %5 = load ptr, ptr %4, align 4, !dbg !3755
  %6 = getelementptr inbounds i8, ptr %5, i64 -12, !dbg !3755
  %7 = load i32, ptr %6, align 4, !dbg !3755
  %8 = getelementptr inbounds i8, ptr %4, i32 %7, !dbg !3755
  %9 = tail call noundef ptr @_ZNSt3__h14basic_ofstreamIcNS_11char_traitsIcEEED1Ev(ptr noundef nonnull align 4 dereferenceable(104) %8) #12, !dbg !3755
  ret ptr undef, !dbg !3755
}

; Function Attrs: nounwind
declare noundef ptr @_ZNSt3__h13basic_ostreamIcNS_11char_traitsIcEEED1Ev(ptr noundef nonnull returned align 4 dereferenceable(4)) unnamed_addr #4

; Function Attrs: nounwind
declare void @_ZNSt3__h13basic_ostreamIcNS_11char_traitsIcEEED0Ev(ptr noundef nonnull align 4 dereferenceable(4)) unnamed_addr #4

; Function Attrs: nounwind
declare noundef ptr @_ZTv0_n12_NSt3__h13basic_ostreamIcNS_11char_traitsIcEEED1Ev(ptr noundef) unnamed_addr #4

; Function Attrs: nounwind
declare void @_ZTv0_n12_NSt3__h13basic_ostreamIcNS_11char_traitsIcEEED0Ev(ptr noundef) unnamed_addr #4

; Function Attrs: noinline nounwind optnone sspstrong uwtable(sync)
define linkonce_odr hidden void @_ZNSt3__h14basic_ofstreamIcNS_11char_traitsIcEEED0Ev(ptr noundef nonnull align 4 dereferenceable(104) %0) unnamed_addr #3 comdat align 2 !dbg !3756 {
  %2 = alloca ptr, align 4
  store ptr %0, ptr %2, align 4
  call void @llvm.dbg.declare(metadata ptr %2, metadata !3757, metadata !DIExpression()), !dbg !3758
  %3 = load ptr, ptr %2, align 4
  %4 = call noundef ptr @_ZNSt3__h14basic_ofstreamIcNS_11char_traitsIcEEED1Ev(ptr noundef nonnull align 4 dereferenceable(104) %3) #12, !dbg !3759
  call void @_ZdlPv(ptr noundef %3) #13, !dbg !3759
  ret void, !dbg !3759
}

; Function Attrs: noinline nounwind optnone sspstrong uwtable(sync)
define linkonce_odr hidden void @_ZTv0_n12_NSt3__h14basic_ofstreamIcNS_11char_traitsIcEEED0Ev(ptr noundef %0) unnamed_addr #3 comdat align 2 !dbg !3760 {
  %2 = alloca ptr, align 4
  store ptr %0, ptr %2, align 4
  %3 = load ptr, ptr %2, align 4, !dbg !3761
  %4 = load ptr, ptr %3, align 4, !dbg !3761
  %5 = getelementptr inbounds i8, ptr %4, i64 -12, !dbg !3761
  %6 = load i32, ptr %5, align 4, !dbg !3761
  %7 = getelementptr inbounds i8, ptr %3, i32 %6, !dbg !3761
  tail call void @_ZNSt3__h14basic_ofstreamIcNS_11char_traitsIcEEED0Ev(ptr noundef nonnull align 4 dereferenceable(104) %7) #12, !dbg !3761
  ret void, !dbg !3761
}

; Function Attrs: noinline nounwind optnone sspstrong uwtable(sync)
define linkonce_odr noundef ptr @_ZNSt3__h13basic_filebufIcNS_11char_traitsIcEEED2Ev(ptr noundef nonnull returned align 4 dereferenceable(99) %0) unnamed_addr #3 comdat align 2 !dbg !3762 {
  %2 = alloca ptr, align 4
  %3 = alloca ptr, align 4
  store ptr %0, ptr %3, align 4
  call void @llvm.dbg.declare(metadata ptr %3, metadata !3763, metadata !DIExpression()), !dbg !3764
  %4 = load ptr, ptr %3, align 4
  store ptr %4, ptr %2, align 4
  store ptr getelementptr inbounds ({ [16 x ptr] }, ptr @_ZTVNSt3__h13basic_filebufIcNS_11char_traitsIcEEEE, i32 0, inrange i32 0, i32 2), ptr %4, align 4, !dbg !3765
  %5 = call noundef ptr @_ZNSt3__h13basic_filebufIcNS_11char_traitsIcEEE5closeEv(ptr noundef nonnull align 4 dereferenceable(99) %4), !dbg !3766
  %6 = getelementptr inbounds %"class.std::__h::basic_filebuf", ptr %4, i32 0, i32 14, !dbg !3768
  %7 = load i8, ptr %6, align 4, !dbg !3768
  %8 = trunc i8 %7 to i1, !dbg !3768
  br i1 %8, label %9, label %15, !dbg !3770

9:                                                ; preds = %1
  %10 = getelementptr inbounds %"class.std::__h::basic_filebuf", ptr %4, i32 0, i32 1, !dbg !3771
  %11 = load ptr, ptr %10, align 4, !dbg !3771
  %12 = icmp eq ptr %11, null, !dbg !3772
  br i1 %12, label %14, label %13, !dbg !3772

13:                                               ; preds = %9
  call void @_ZdaPv(ptr noundef %11) #13, !dbg !3772
  br label %14, !dbg !3772

14:                                               ; preds = %13, %9
  br label %15, !dbg !3772

15:                                               ; preds = %14, %1
  %16 = getelementptr inbounds %"class.std::__h::basic_filebuf", ptr %4, i32 0, i32 15, !dbg !3773
  %17 = load i8, ptr %16, align 1, !dbg !3773
  %18 = trunc i8 %17 to i1, !dbg !3773
  br i1 %18, label %19, label %25, !dbg !3775

19:                                               ; preds = %15
  %20 = getelementptr inbounds %"class.std::__h::basic_filebuf", ptr %4, i32 0, i32 6, !dbg !3776
  %21 = load ptr, ptr %20, align 4, !dbg !3776
  %22 = icmp eq ptr %21, null, !dbg !3777
  br i1 %22, label %24, label %23, !dbg !3777

23:                                               ; preds = %19
  call void @_ZdaPv(ptr noundef %21) #13, !dbg !3777
  br label %24, !dbg !3777

24:                                               ; preds = %23, %19
  br label %25, !dbg !3777

25:                                               ; preds = %24, %15
  %26 = call noundef ptr @_ZNSt3__h15basic_streambufIcNS_11char_traitsIcEEED2Ev(ptr noundef nonnull align 4 dereferenceable(32) %4) #12, !dbg !3778
  %27 = load ptr, ptr %2, align 4, !dbg !3779
  ret ptr %27, !dbg !3779
}

; Function Attrs: nounwind
declare noundef ptr @_ZNSt3__h13basic_ostreamIcNS_11char_traitsIcEEED2Ev(ptr noundef nonnull returned align 4 dereferenceable(4), ptr noundef) unnamed_addr #4

; Function Attrs: mustprogress noinline nounwind optnone sspstrong uwtable(sync)
define linkonce_odr noundef ptr @_ZNSt3__h13basic_filebufIcNS_11char_traitsIcEEE5closeEv(ptr noundef nonnull align 4 dereferenceable(99) %0) #0 comdat align 2 !dbg !3780 {
  %2 = alloca ptr, align 4
  %3 = alloca ptr, align 4
  %4 = alloca %"class.std::__h::unique_ptr", align 4
  %5 = alloca ptr, align 4
  store ptr %0, ptr %2, align 4
  call void @llvm.dbg.declare(metadata ptr %2, metadata !3781, metadata !DIExpression()), !dbg !3782
  %6 = load ptr, ptr %2, align 4
  call void @llvm.dbg.declare(metadata ptr %3, metadata !3783, metadata !DIExpression()), !dbg !3784
  store ptr null, ptr %3, align 4, !dbg !3784, !annotation !3270
  store ptr null, ptr %3, align 4, !dbg !3784
  %7 = getelementptr inbounds %"class.std::__h::basic_filebuf", ptr %6, i32 0, i32 8, !dbg !3785
  %8 = load ptr, ptr %7, align 4, !dbg !3785
  %9 = icmp ne ptr %8, null, !dbg !3785
  br i1 %9, label %10, label %32, !dbg !3787

10:                                               ; preds = %1
  store ptr %6, ptr %3, align 4, !dbg !3788
  call void @llvm.dbg.declare(metadata ptr %4, metadata !3790, metadata !DIExpression()), !dbg !3791
  call void @llvm.memset.p0.i32(ptr align 4 %4, i8 0, i32 8, i1 false), !dbg !3791, !annotation !3270
  %11 = getelementptr inbounds %"class.std::__h::basic_filebuf", ptr %6, i32 0, i32 8, !dbg !3792
  %12 = load ptr, ptr %11, align 4, !dbg !3792
  store ptr @fclose, ptr %5, align 4, !dbg !3793
  %13 = call noundef ptr @_ZNSt3__h10unique_ptrI8_IO_FILEPFiPS1_EEC2B6v15004ILb1EvEES2_NS_16__dependent_typeINS_27__unique_ptr_deleter_sfinaeIS4_EEXT_EE20__good_rval_ref_typeE(ptr noundef nonnull align 4 dereferenceable(8) %4, ptr noundef %12, ptr noundef nonnull align 4 dereferenceable(4) %5) #12, !dbg !3791
  %14 = load ptr, ptr %6, align 4, !dbg !3794
  %15 = getelementptr inbounds ptr, ptr %14, i64 6, !dbg !3794
  %16 = load ptr, ptr %15, align 4, !dbg !3794
  %17 = call noundef i32 %16(ptr noundef nonnull align 4 dereferenceable(99) %6), !dbg !3794
  %18 = icmp ne i32 %17, 0, !dbg !3794
  br i1 %18, label %19, label %20, !dbg !3796

19:                                               ; preds = %10
  store ptr null, ptr %3, align 4, !dbg !3797
  br label %20, !dbg !3798

20:                                               ; preds = %19, %10
  %21 = call noundef ptr @_ZNSt3__h10unique_ptrI8_IO_FILEPFiPS1_EE7releaseB6v15004Ev(ptr noundef nonnull align 4 dereferenceable(8) %4) #12, !dbg !3799
  %22 = call i32 @fclose(ptr noundef %21), !dbg !3801
  %23 = icmp ne i32 %22, 0, !dbg !3801
  br i1 %23, label %24, label %25, !dbg !3802

24:                                               ; preds = %20
  store ptr null, ptr %3, align 4, !dbg !3803
  br label %25, !dbg !3804

25:                                               ; preds = %24, %20
  %26 = getelementptr inbounds %"class.std::__h::basic_filebuf", ptr %6, i32 0, i32 8, !dbg !3805
  store ptr null, ptr %26, align 4, !dbg !3806
  %27 = load ptr, ptr %6, align 4, !dbg !3807
  %28 = getelementptr inbounds ptr, ptr %27, i64 3, !dbg !3807
  %29 = load ptr, ptr %28, align 4, !dbg !3807
  %30 = call noundef ptr %29(ptr noundef nonnull align 4 dereferenceable(99) %6, ptr noundef null, i32 noundef 0), !dbg !3807
  %31 = call noundef ptr @_ZNSt3__h10unique_ptrI8_IO_FILEPFiPS1_EED2B6v15004Ev(ptr noundef nonnull align 4 dereferenceable(8) %4) #12, !dbg !3808
  br label %32, !dbg !3809

32:                                               ; preds = %25, %1
  %33 = load ptr, ptr %3, align 4, !dbg !3810
  ret ptr %33, !dbg !3811
}

; Function Attrs: nobuiltin nounwind
declare void @_ZdaPv(ptr noundef) #6

; Function Attrs: nounwind
declare noundef ptr @_ZNSt3__h15basic_streambufIcNS_11char_traitsIcEEED2Ev(ptr noundef nonnull returned align 4 dereferenceable(32)) unnamed_addr #4

; Function Attrs: noinline nounwind optnone sspstrong uwtable(sync)
define linkonce_odr void @_ZNSt3__h13basic_filebufIcNS_11char_traitsIcEEED0Ev(ptr noundef nonnull align 4 dereferenceable(99) %0) unnamed_addr #3 comdat align 2 !dbg !3812 {
  %2 = alloca ptr, align 4
  store ptr %0, ptr %2, align 4
  call void @llvm.dbg.declare(metadata ptr %2, metadata !3813, metadata !DIExpression()), !dbg !3814
  %3 = load ptr, ptr %2, align 4
  %4 = call noundef ptr @_ZNSt3__h13basic_filebufIcNS_11char_traitsIcEEED2Ev(ptr noundef nonnull align 4 dereferenceable(99) %3) #12, !dbg !3815
  call void @_ZdlPv(ptr noundef %3) #13, !dbg !3815
  ret void, !dbg !3816
}

; Function Attrs: mustprogress noinline nounwind optnone sspstrong uwtable(sync)
define linkonce_odr void @_ZNSt3__h13basic_filebufIcNS_11char_traitsIcEEE5imbueERKNS_6localeE(ptr noundef nonnull align 4 dereferenceable(99) %0, ptr noundef nonnull align 4 dereferenceable(4) %1) unnamed_addr #0 comdat align 2 !dbg !3817 {
  %3 = alloca ptr, align 4
  %4 = alloca ptr, align 4
  %5 = alloca i8, align 1
  store ptr %0, ptr %3, align 4
  call void @llvm.dbg.declare(metadata ptr %3, metadata !3818, metadata !DIExpression()), !dbg !3819
  store ptr %1, ptr %4, align 4
  call void @llvm.dbg.declare(metadata ptr %4, metadata !3820, metadata !DIExpression()), !dbg !3821
  %6 = load ptr, ptr %3, align 4
  %7 = load ptr, ptr %6, align 4, !dbg !3822
  %8 = getelementptr inbounds ptr, ptr %7, i64 6, !dbg !3822
  %9 = load ptr, ptr %8, align 4, !dbg !3822
  %10 = call noundef i32 %9(ptr noundef nonnull align 4 dereferenceable(99) %6), !dbg !3822
  %11 = load ptr, ptr %4, align 4, !dbg !3823
  %12 = call noundef nonnull align 4 dereferenceable(8) ptr @_ZNSt3__h9use_facetB6v15004INS_7codecvtIcc11__mbstate_tEEEERKT_RKNS_6localeE(ptr noundef nonnull align 4 dereferenceable(4) %11), !dbg !3824
  %13 = getelementptr inbounds %"class.std::__h::basic_filebuf", ptr %6, i32 0, i32 9, !dbg !3825
  store ptr %12, ptr %13, align 4, !dbg !3826
  call void @llvm.dbg.declare(metadata ptr %5, metadata !3827, metadata !DIExpression()), !dbg !3828
  store i8 0, ptr %5, align 1, !dbg !3828, !annotation !3270
  %14 = getelementptr inbounds %"class.std::__h::basic_filebuf", ptr %6, i32 0, i32 16, !dbg !3829
  %15 = load i8, ptr %14, align 2, !dbg !3829
  %16 = trunc i8 %15 to i1, !dbg !3829
  %17 = zext i1 %16 to i8, !dbg !3828
  store i8 %17, ptr %5, align 1, !dbg !3828
  %18 = getelementptr inbounds %"class.std::__h::basic_filebuf", ptr %6, i32 0, i32 9, !dbg !3830
  %19 = load ptr, ptr %18, align 4, !dbg !3830
  %20 = call noundef zeroext i1 @_ZNKSt3__h7codecvtIcc11__mbstate_tE13always_noconvB6v15004Ev(ptr noundef nonnull align 4 dereferenceable(8) %19) #12, !dbg !3831
  %21 = getelementptr inbounds %"class.std::__h::basic_filebuf", ptr %6, i32 0, i32 16, !dbg !3832
  %22 = zext i1 %20 to i8, !dbg !3833
  store i8 %22, ptr %21, align 2, !dbg !3833
  %23 = load i8, ptr %5, align 1, !dbg !3834
  %24 = trunc i8 %23 to i1, !dbg !3834
  %25 = zext i1 %24 to i32, !dbg !3834
  %26 = getelementptr inbounds %"class.std::__h::basic_filebuf", ptr %6, i32 0, i32 16, !dbg !3836
  %27 = load i8, ptr %26, align 2, !dbg !3836
  %28 = trunc i8 %27 to i1, !dbg !3836
  %29 = zext i1 %28 to i32, !dbg !3836
  %30 = icmp ne i32 %25, %29, !dbg !3837
  br i1 %30, label %31, label %94, !dbg !3838

31:                                               ; preds = %2
  call void @_ZNSt3__h15basic_streambufIcNS_11char_traitsIcEEE4setgB6v15004EPcS4_S4_(ptr noundef nonnull align 4 dereferenceable(32) %6, ptr noundef null, ptr noundef null, ptr noundef null), !dbg !3839
  call void @_ZNSt3__h15basic_streambufIcNS_11char_traitsIcEEE4setpB6v15004EPcS4_(ptr noundef nonnull align 4 dereferenceable(32) %6, ptr noundef null, ptr noundef null), !dbg !3841
  %32 = getelementptr inbounds %"class.std::__h::basic_filebuf", ptr %6, i32 0, i32 16, !dbg !3842
  %33 = load i8, ptr %32, align 2, !dbg !3842
  %34 = trunc i8 %33 to i1, !dbg !3842
  br i1 %34, label %35, label %60, !dbg !3844

35:                                               ; preds = %31
  %36 = getelementptr inbounds %"class.std::__h::basic_filebuf", ptr %6, i32 0, i32 14, !dbg !3845
  %37 = load i8, ptr %36, align 4, !dbg !3845
  %38 = trunc i8 %37 to i1, !dbg !3845
  br i1 %38, label %39, label %45, !dbg !3848

39:                                               ; preds = %35
  %40 = getelementptr inbounds %"class.std::__h::basic_filebuf", ptr %6, i32 0, i32 1, !dbg !3849
  %41 = load ptr, ptr %40, align 4, !dbg !3849
  %42 = icmp eq ptr %41, null, !dbg !3850
  br i1 %42, label %44, label %43, !dbg !3850

43:                                               ; preds = %39
  call void @_ZdaPv(ptr noundef %41) #13, !dbg !3850
  br label %44, !dbg !3850

44:                                               ; preds = %43, %39
  br label %45, !dbg !3850

45:                                               ; preds = %44, %35
  %46 = getelementptr inbounds %"class.std::__h::basic_filebuf", ptr %6, i32 0, i32 15, !dbg !3851
  %47 = load i8, ptr %46, align 1, !dbg !3851
  %48 = trunc i8 %47 to i1, !dbg !3851
  %49 = getelementptr inbounds %"class.std::__h::basic_filebuf", ptr %6, i32 0, i32 14, !dbg !3852
  %50 = zext i1 %48 to i8, !dbg !3853
  store i8 %50, ptr %49, align 4, !dbg !3853
  %51 = getelementptr inbounds %"class.std::__h::basic_filebuf", ptr %6, i32 0, i32 7, !dbg !3854
  %52 = load i32, ptr %51, align 4, !dbg !3854
  %53 = getelementptr inbounds %"class.std::__h::basic_filebuf", ptr %6, i32 0, i32 5, !dbg !3855
  store i32 %52, ptr %53, align 4, !dbg !3856
  %54 = getelementptr inbounds %"class.std::__h::basic_filebuf", ptr %6, i32 0, i32 6, !dbg !3857
  %55 = load ptr, ptr %54, align 4, !dbg !3857
  %56 = getelementptr inbounds %"class.std::__h::basic_filebuf", ptr %6, i32 0, i32 1, !dbg !3858
  store ptr %55, ptr %56, align 4, !dbg !3859
  %57 = getelementptr inbounds %"class.std::__h::basic_filebuf", ptr %6, i32 0, i32 7, !dbg !3860
  store i32 0, ptr %57, align 4, !dbg !3861
  %58 = getelementptr inbounds %"class.std::__h::basic_filebuf", ptr %6, i32 0, i32 6, !dbg !3862
  store ptr null, ptr %58, align 4, !dbg !3863
  %59 = getelementptr inbounds %"class.std::__h::basic_filebuf", ptr %6, i32 0, i32 15, !dbg !3864
  store i8 0, ptr %59, align 1, !dbg !3865
  br label %93, !dbg !3866

60:                                               ; preds = %31
  %61 = getelementptr inbounds %"class.std::__h::basic_filebuf", ptr %6, i32 0, i32 14, !dbg !3867
  %62 = load i8, ptr %61, align 4, !dbg !3867
  %63 = trunc i8 %62 to i1, !dbg !3867
  br i1 %63, label %83, label %64, !dbg !3870

64:                                               ; preds = %60
  %65 = getelementptr inbounds %"class.std::__h::basic_filebuf", ptr %6, i32 0, i32 1, !dbg !3871
  %66 = load ptr, ptr %65, align 4, !dbg !3871
  %67 = getelementptr inbounds %"class.std::__h::basic_filebuf", ptr %6, i32 0, i32 4, !dbg !3872
  %68 = getelementptr inbounds [8 x i8], ptr %67, i32 0, i32 0, !dbg !3872
  %69 = icmp ne ptr %66, %68, !dbg !3873
  br i1 %69, label %70, label %83, !dbg !3874

70:                                               ; preds = %64
  %71 = getelementptr inbounds %"class.std::__h::basic_filebuf", ptr %6, i32 0, i32 5, !dbg !3875
  %72 = load i32, ptr %71, align 4, !dbg !3875
  %73 = getelementptr inbounds %"class.std::__h::basic_filebuf", ptr %6, i32 0, i32 7, !dbg !3877
  store i32 %72, ptr %73, align 4, !dbg !3878
  %74 = getelementptr inbounds %"class.std::__h::basic_filebuf", ptr %6, i32 0, i32 1, !dbg !3879
  %75 = load ptr, ptr %74, align 4, !dbg !3879
  %76 = getelementptr inbounds %"class.std::__h::basic_filebuf", ptr %6, i32 0, i32 6, !dbg !3880
  store ptr %75, ptr %76, align 4, !dbg !3881
  %77 = getelementptr inbounds %"class.std::__h::basic_filebuf", ptr %6, i32 0, i32 15, !dbg !3882
  store i8 0, ptr %77, align 1, !dbg !3883
  %78 = getelementptr inbounds %"class.std::__h::basic_filebuf", ptr %6, i32 0, i32 5, !dbg !3884
  %79 = load i32, ptr %78, align 4, !dbg !3884
  %80 = call noalias noundef nonnull ptr @_Znaj(i32 noundef %79) #14, !dbg !3885, !heapallocsite !5
  %81 = getelementptr inbounds %"class.std::__h::basic_filebuf", ptr %6, i32 0, i32 1, !dbg !3886
  store ptr %80, ptr %81, align 4, !dbg !3887
  %82 = getelementptr inbounds %"class.std::__h::basic_filebuf", ptr %6, i32 0, i32 14, !dbg !3888
  store i8 1, ptr %82, align 4, !dbg !3889
  br label %92, !dbg !3890

83:                                               ; preds = %64, %60
  %84 = getelementptr inbounds %"class.std::__h::basic_filebuf", ptr %6, i32 0, i32 5, !dbg !3891
  %85 = load i32, ptr %84, align 4, !dbg !3891
  %86 = getelementptr inbounds %"class.std::__h::basic_filebuf", ptr %6, i32 0, i32 7, !dbg !3893
  store i32 %85, ptr %86, align 4, !dbg !3894
  %87 = getelementptr inbounds %"class.std::__h::basic_filebuf", ptr %6, i32 0, i32 7, !dbg !3895
  %88 = load i32, ptr %87, align 4, !dbg !3895
  %89 = call noalias noundef nonnull ptr @_Znaj(i32 noundef %88) #14, !dbg !3896, !heapallocsite !1159
  %90 = getelementptr inbounds %"class.std::__h::basic_filebuf", ptr %6, i32 0, i32 6, !dbg !3897
  store ptr %89, ptr %90, align 4, !dbg !3898
  %91 = getelementptr inbounds %"class.std::__h::basic_filebuf", ptr %6, i32 0, i32 15, !dbg !3899
  store i8 1, ptr %91, align 1, !dbg !3900
  br label %92

92:                                               ; preds = %83, %70
  br label %93

93:                                               ; preds = %92, %45
  br label %94, !dbg !3901

94:                                               ; preds = %93, %2
  ret void, !dbg !3902
}

; Function Attrs: mustprogress noinline nounwind optnone sspstrong uwtable(sync)
define linkonce_odr noundef ptr @_ZNSt3__h13basic_filebufIcNS_11char_traitsIcEEE6setbufEPci(ptr noundef nonnull align 4 dereferenceable(99) %0, ptr noundef %1, i32 noundef %2) unnamed_addr #0 comdat align 2 !dbg !3903 {
  %4 = alloca ptr, align 4
  %5 = alloca ptr, align 4
  %6 = alloca i32, align 4
  %7 = alloca i32, align 4
  store ptr %0, ptr %4, align 4
  call void @llvm.dbg.declare(metadata ptr %4, metadata !3904, metadata !DIExpression()), !dbg !3905
  store ptr %1, ptr %5, align 4
  call void @llvm.dbg.declare(metadata ptr %5, metadata !3906, metadata !DIExpression()), !dbg !3907
  store i32 %2, ptr %6, align 4
  call void @llvm.dbg.declare(metadata ptr %6, metadata !3908, metadata !DIExpression()), !dbg !3909
  %8 = load ptr, ptr %4, align 4
  call void @_ZNSt3__h15basic_streambufIcNS_11char_traitsIcEEE4setgB6v15004EPcS4_S4_(ptr noundef nonnull align 4 dereferenceable(32) %8, ptr noundef null, ptr noundef null, ptr noundef null), !dbg !3910
  call void @_ZNSt3__h15basic_streambufIcNS_11char_traitsIcEEE4setpB6v15004EPcS4_(ptr noundef nonnull align 4 dereferenceable(32) %8, ptr noundef null, ptr noundef null), !dbg !3911
  %9 = getelementptr inbounds %"class.std::__h::basic_filebuf", ptr %8, i32 0, i32 14, !dbg !3912
  %10 = load i8, ptr %9, align 4, !dbg !3912
  %11 = trunc i8 %10 to i1, !dbg !3912
  br i1 %11, label %12, label %18, !dbg !3914

12:                                               ; preds = %3
  %13 = getelementptr inbounds %"class.std::__h::basic_filebuf", ptr %8, i32 0, i32 1, !dbg !3915
  %14 = load ptr, ptr %13, align 4, !dbg !3915
  %15 = icmp eq ptr %14, null, !dbg !3916
  br i1 %15, label %17, label %16, !dbg !3916

16:                                               ; preds = %12
  call void @_ZdaPv(ptr noundef %14) #13, !dbg !3916
  br label %17, !dbg !3916

17:                                               ; preds = %16, %12
  br label %18, !dbg !3916

18:                                               ; preds = %17, %3
  %19 = getelementptr inbounds %"class.std::__h::basic_filebuf", ptr %8, i32 0, i32 15, !dbg !3917
  %20 = load i8, ptr %19, align 1, !dbg !3917
  %21 = trunc i8 %20 to i1, !dbg !3917
  br i1 %21, label %22, label %28, !dbg !3919

22:                                               ; preds = %18
  %23 = getelementptr inbounds %"class.std::__h::basic_filebuf", ptr %8, i32 0, i32 6, !dbg !3920
  %24 = load ptr, ptr %23, align 4, !dbg !3920
  %25 = icmp eq ptr %24, null, !dbg !3921
  br i1 %25, label %27, label %26, !dbg !3921

26:                                               ; preds = %22
  call void @_ZdaPv(ptr noundef %24) #13, !dbg !3921
  br label %27, !dbg !3921

27:                                               ; preds = %26, %22
  br label %28, !dbg !3921

28:                                               ; preds = %27, %18
  %29 = load i32, ptr %6, align 4, !dbg !3922
  %30 = getelementptr inbounds %"class.std::__h::basic_filebuf", ptr %8, i32 0, i32 5, !dbg !3923
  store i32 %29, ptr %30, align 4, !dbg !3924
  %31 = getelementptr inbounds %"class.std::__h::basic_filebuf", ptr %8, i32 0, i32 5, !dbg !3925
  %32 = load i32, ptr %31, align 4, !dbg !3925
  %33 = icmp ugt i32 %32, 8, !dbg !3927
  br i1 %33, label %34, label %52, !dbg !3928

34:                                               ; preds = %28
  %35 = getelementptr inbounds %"class.std::__h::basic_filebuf", ptr %8, i32 0, i32 16, !dbg !3929
  %36 = load i8, ptr %35, align 2, !dbg !3929
  %37 = trunc i8 %36 to i1, !dbg !3929
  br i1 %37, label %38, label %45, !dbg !3932

38:                                               ; preds = %34
  %39 = load ptr, ptr %5, align 4, !dbg !3933
  %40 = icmp ne ptr %39, null, !dbg !3933
  br i1 %40, label %41, label %45, !dbg !3934

41:                                               ; preds = %38
  %42 = load ptr, ptr %5, align 4, !dbg !3935
  %43 = getelementptr inbounds %"class.std::__h::basic_filebuf", ptr %8, i32 0, i32 1, !dbg !3937
  store ptr %42, ptr %43, align 4, !dbg !3938
  %44 = getelementptr inbounds %"class.std::__h::basic_filebuf", ptr %8, i32 0, i32 14, !dbg !3939
  store i8 0, ptr %44, align 4, !dbg !3940
  br label %51, !dbg !3941

45:                                               ; preds = %38, %34
  %46 = getelementptr inbounds %"class.std::__h::basic_filebuf", ptr %8, i32 0, i32 5, !dbg !3942
  %47 = load i32, ptr %46, align 4, !dbg !3942
  %48 = call noalias noundef nonnull ptr @_Znaj(i32 noundef %47) #14, !dbg !3944, !heapallocsite !5
  %49 = getelementptr inbounds %"class.std::__h::basic_filebuf", ptr %8, i32 0, i32 1, !dbg !3945
  store ptr %48, ptr %49, align 4, !dbg !3946
  %50 = getelementptr inbounds %"class.std::__h::basic_filebuf", ptr %8, i32 0, i32 14, !dbg !3947
  store i8 1, ptr %50, align 4, !dbg !3948
  br label %51

51:                                               ; preds = %45, %41
  br label %58, !dbg !3949

52:                                               ; preds = %28
  %53 = getelementptr inbounds %"class.std::__h::basic_filebuf", ptr %8, i32 0, i32 4, !dbg !3950
  %54 = getelementptr inbounds [8 x i8], ptr %53, i32 0, i32 0, !dbg !3950
  %55 = getelementptr inbounds %"class.std::__h::basic_filebuf", ptr %8, i32 0, i32 1, !dbg !3952
  store ptr %54, ptr %55, align 4, !dbg !3953
  %56 = getelementptr inbounds %"class.std::__h::basic_filebuf", ptr %8, i32 0, i32 5, !dbg !3954
  store i32 8, ptr %56, align 4, !dbg !3955
  %57 = getelementptr inbounds %"class.std::__h::basic_filebuf", ptr %8, i32 0, i32 14, !dbg !3956
  store i8 0, ptr %57, align 4, !dbg !3957
  br label %58

58:                                               ; preds = %52, %51
  %59 = getelementptr inbounds %"class.std::__h::basic_filebuf", ptr %8, i32 0, i32 16, !dbg !3958
  %60 = load i8, ptr %59, align 2, !dbg !3958
  %61 = trunc i8 %60 to i1, !dbg !3958
  br i1 %61, label %83, label %62, !dbg !3960

62:                                               ; preds = %58
  store i32 8, ptr %7, align 4, !dbg !3961
  %63 = call noundef nonnull align 4 dereferenceable(4) ptr @_ZNSt3__h3maxB6v15004IiEERKT_S3_S3_(ptr noundef nonnull align 4 dereferenceable(4) %6, ptr noundef nonnull align 4 dereferenceable(4) %7), !dbg !3963
  %64 = load i32, ptr %63, align 4, !dbg !3963
  %65 = getelementptr inbounds %"class.std::__h::basic_filebuf", ptr %8, i32 0, i32 7, !dbg !3964
  store i32 %64, ptr %65, align 4, !dbg !3965
  %66 = load ptr, ptr %5, align 4, !dbg !3966
  %67 = icmp ne ptr %66, null, !dbg !3966
  br i1 %67, label %68, label %76, !dbg !3968

68:                                               ; preds = %62
  %69 = getelementptr inbounds %"class.std::__h::basic_filebuf", ptr %8, i32 0, i32 7, !dbg !3969
  %70 = load i32, ptr %69, align 4, !dbg !3969
  %71 = icmp uge i32 %70, 8, !dbg !3970
  br i1 %71, label %72, label %76, !dbg !3971

72:                                               ; preds = %68
  %73 = load ptr, ptr %5, align 4, !dbg !3972
  %74 = getelementptr inbounds %"class.std::__h::basic_filebuf", ptr %8, i32 0, i32 6, !dbg !3974
  store ptr %73, ptr %74, align 4, !dbg !3975
  %75 = getelementptr inbounds %"class.std::__h::basic_filebuf", ptr %8, i32 0, i32 15, !dbg !3976
  store i8 0, ptr %75, align 1, !dbg !3977
  br label %82, !dbg !3978

76:                                               ; preds = %68, %62
  %77 = getelementptr inbounds %"class.std::__h::basic_filebuf", ptr %8, i32 0, i32 7, !dbg !3979
  %78 = load i32, ptr %77, align 4, !dbg !3979
  %79 = call noalias noundef nonnull ptr @_Znaj(i32 noundef %78) #14, !dbg !3981, !heapallocsite !1159
  %80 = getelementptr inbounds %"class.std::__h::basic_filebuf", ptr %8, i32 0, i32 6, !dbg !3982
  store ptr %79, ptr %80, align 4, !dbg !3983
  %81 = getelementptr inbounds %"class.std::__h::basic_filebuf", ptr %8, i32 0, i32 15, !dbg !3984
  store i8 1, ptr %81, align 1, !dbg !3985
  br label %82

82:                                               ; preds = %76, %72
  br label %87, !dbg !3986

83:                                               ; preds = %58
  %84 = getelementptr inbounds %"class.std::__h::basic_filebuf", ptr %8, i32 0, i32 7, !dbg !3987
  store i32 0, ptr %84, align 4, !dbg !3989
  %85 = getelementptr inbounds %"class.std::__h::basic_filebuf", ptr %8, i32 0, i32 6, !dbg !3990
  store ptr null, ptr %85, align 4, !dbg !3991
  %86 = getelementptr inbounds %"class.std::__h::basic_filebuf", ptr %8, i32 0, i32 15, !dbg !3992
  store i8 0, ptr %86, align 1, !dbg !3993
  br label %87

87:                                               ; preds = %83, %82
  ret ptr %8, !dbg !3994
}

; Function Attrs: mustprogress noinline nounwind optnone sspstrong uwtable(sync)
define linkonce_odr void @_ZNSt3__h13basic_filebufIcNS_11char_traitsIcEEE7seekoffExNS_8ios_base7seekdirEj(ptr noalias sret(%"class.std::__h::fpos") align 8 %0, ptr noundef nonnull align 4 dereferenceable(99) %1, i64 noundef %2, i32 noundef %3, i32 noundef %4) unnamed_addr #0 comdat align 2 !dbg !3995 {
  %6 = alloca ptr, align 4
  %7 = alloca i64, align 8
  %8 = alloca i32, align 4
  %9 = alloca i32, align 4
  %10 = alloca i32, align 4
  %11 = alloca i32, align 4
  %12 = alloca %struct.__mbstate_t, align 4
  store ptr %1, ptr %6, align 4
  call void @llvm.dbg.declare(metadata ptr %6, metadata !3996, metadata !DIExpression()), !dbg !3997
  store i64 %2, ptr %7, align 8
  call void @llvm.dbg.declare(metadata ptr %7, metadata !3998, metadata !DIExpression()), !dbg !3999
  store i32 %3, ptr %8, align 4
  call void @llvm.dbg.declare(metadata ptr %8, metadata !4000, metadata !DIExpression()), !dbg !4001
  store i32 %4, ptr %9, align 4
  call void @llvm.dbg.declare(metadata ptr %9, metadata !4002, metadata !DIExpression()), !dbg !4003
  %13 = load ptr, ptr %6, align 4
  %14 = getelementptr inbounds %"class.std::__h::basic_filebuf", ptr %13, i32 0, i32 9, !dbg !4004
  %15 = load ptr, ptr %14, align 4, !dbg !4004
  %16 = icmp ne ptr %15, null, !dbg !4004
  br i1 %16, label %18, label %17, !dbg !4006

17:                                               ; preds = %5
  call void @_ZNSt3__h16__throw_bad_castB6v15004Ev() #15, !dbg !4007
  unreachable, !dbg !4007

18:                                               ; preds = %5
  call void @llvm.dbg.declare(metadata ptr %10, metadata !4008, metadata !DIExpression()), !dbg !4009
  store i32 0, ptr %10, align 4, !dbg !4009, !annotation !3270
  %19 = getelementptr inbounds %"class.std::__h::basic_filebuf", ptr %13, i32 0, i32 9, !dbg !4010
  %20 = load ptr, ptr %19, align 4, !dbg !4010
  %21 = call noundef i32 @_ZNKSt3__h7codecvtIcc11__mbstate_tE8encodingB6v15004Ev(ptr noundef nonnull align 4 dereferenceable(8) %20) #12, !dbg !4011
  store i32 %21, ptr %10, align 4, !dbg !4009
  %22 = getelementptr inbounds %"class.std::__h::basic_filebuf", ptr %13, i32 0, i32 8, !dbg !4012
  %23 = load ptr, ptr %22, align 4, !dbg !4012
  %24 = icmp eq ptr %23, null, !dbg !4014
  br i1 %24, label %37, label %25, !dbg !4015

25:                                               ; preds = %18
  %26 = load i32, ptr %10, align 4, !dbg !4016
  %27 = icmp sle i32 %26, 0, !dbg !4017
  br i1 %27, label %28, label %31, !dbg !4018

28:                                               ; preds = %25
  %29 = load i64, ptr %7, align 8, !dbg !4019
  %30 = icmp ne i64 %29, 0, !dbg !4020
  br i1 %30, label %37, label %31, !dbg !4021

31:                                               ; preds = %28, %25
  %32 = load ptr, ptr %13, align 4, !dbg !4022
  %33 = getelementptr inbounds ptr, ptr %32, i64 6, !dbg !4022
  %34 = load ptr, ptr %33, align 4, !dbg !4022
  %35 = call noundef i32 %34(ptr noundef nonnull align 4 dereferenceable(99) %13), !dbg !4022
  %36 = icmp ne i32 %35, 0, !dbg !4022
  br i1 %36, label %37, label %39, !dbg !4023

37:                                               ; preds = %31, %28, %18
  %38 = call noundef ptr @_ZNSt3__h4fposI11__mbstate_tEC2B6v15004Ex(ptr noundef nonnull align 8 dereferenceable(16) %0, i64 noundef -1), !dbg !4024
  br label %71, !dbg !4025

39:                                               ; preds = %31
  call void @llvm.dbg.declare(metadata ptr %11, metadata !4026, metadata !DIExpression()), !dbg !4027
  store i32 0, ptr %11, align 4, !dbg !4027, !annotation !3270
  %40 = load i32, ptr %8, align 4, !dbg !4028
  switch i32 %40, label %44 [
    i32 0, label %41
    i32 1, label %42
    i32 2, label %43
  ], !dbg !4029

41:                                               ; preds = %39
  store i32 0, ptr %11, align 4, !dbg !4030
  br label %46, !dbg !4032

42:                                               ; preds = %39
  store i32 1, ptr %11, align 4, !dbg !4033
  br label %46, !dbg !4034

43:                                               ; preds = %39
  store i32 2, ptr %11, align 4, !dbg !4035
  br label %46, !dbg !4036

44:                                               ; preds = %39
  %45 = call noundef ptr @_ZNSt3__h4fposI11__mbstate_tEC2B6v15004Ex(ptr noundef nonnull align 8 dereferenceable(16) %0, i64 noundef -1), !dbg !4037
  br label %71, !dbg !4038

46:                                               ; preds = %43, %42, %41
  %47 = getelementptr inbounds %"class.std::__h::basic_filebuf", ptr %13, i32 0, i32 8, !dbg !4039
  %48 = load ptr, ptr %47, align 4, !dbg !4039
  %49 = load i32, ptr %10, align 4, !dbg !4041
  %50 = icmp sgt i32 %49, 0, !dbg !4042
  br i1 %50, label %51, label %56, !dbg !4041

51:                                               ; preds = %46
  %52 = load i32, ptr %10, align 4, !dbg !4043
  %53 = sext i32 %52 to i64, !dbg !4043
  %54 = load i64, ptr %7, align 8, !dbg !4044
  %55 = mul nsw i64 %53, %54, !dbg !4045
  br label %57, !dbg !4041

56:                                               ; preds = %46
  br label %57, !dbg !4041

57:                                               ; preds = %56, %51
  %58 = phi i64 [ %55, %51 ], [ 0, %56 ], !dbg !4041
  %59 = load i32, ptr %11, align 4, !dbg !4046
  %60 = call i32 @fseeko(ptr noundef %48, i64 noundef %58, i32 noundef %59), !dbg !4047
  %61 = icmp ne i32 %60, 0, !dbg !4047
  br i1 %61, label %62, label %64, !dbg !4048

62:                                               ; preds = %57
  %63 = call noundef ptr @_ZNSt3__h4fposI11__mbstate_tEC2B6v15004Ex(ptr noundef nonnull align 8 dereferenceable(16) %0, i64 noundef -1), !dbg !4049
  br label %71, !dbg !4050

64:                                               ; preds = %57
  call void @llvm.dbg.declare(metadata ptr %0, metadata !4051, metadata !DIExpression()), !dbg !4052
  call void @llvm.memset.p0.i32(ptr align 8 %0, i8 0, i32 16, i1 false), !dbg !4052, !annotation !3270
  %65 = getelementptr inbounds %"class.std::__h::basic_filebuf", ptr %13, i32 0, i32 8, !dbg !4053
  %66 = load ptr, ptr %65, align 4, !dbg !4053
  %67 = call i64 @ftello(ptr noundef %66), !dbg !4054
  %68 = call noundef ptr @_ZNSt3__h4fposI11__mbstate_tEC2B6v15004Ex(ptr noundef nonnull align 8 dereferenceable(16) %0, i64 noundef %67), !dbg !4054
  %69 = getelementptr inbounds %"class.std::__h::basic_filebuf", ptr %13, i32 0, i32 10, !dbg !4055
  call void @llvm.memcpy.p0.p0.i32(ptr align 4 %12, ptr align 4 %69, i32 8, i1 false), !dbg !4055
  %70 = load [2 x i32], ptr %12, align 4, !dbg !4056
  call void @_ZNSt3__h4fposI11__mbstate_tE5stateB6v15004ES1_(ptr noundef nonnull align 8 dereferenceable(16) %0, [2 x i32] %70), !dbg !4056
  br label %71, !dbg !4057

71:                                               ; preds = %64, %62, %44, %37
  ret void, !dbg !4058
}

; Function Attrs: mustprogress noinline nounwind optnone sspstrong uwtable(sync)
define linkonce_odr void @_ZNSt3__h13basic_filebufIcNS_11char_traitsIcEEE7seekposENS_4fposI11__mbstate_tEEj(ptr noalias sret(%"class.std::__h::fpos") align 8 %0, ptr noundef nonnull align 4 dereferenceable(99) %1, [2 x i64] %2, i32 noundef %3) unnamed_addr #0 comdat align 2 !dbg !4059 {
  %5 = alloca %"class.std::__h::fpos", align 8
  %6 = alloca ptr, align 4
  %7 = alloca i32, align 4
  %8 = alloca %struct.__mbstate_t, align 4
  store [2 x i64] %2, ptr %5, align 8
  store ptr %1, ptr %6, align 4
  call void @llvm.dbg.declare(metadata ptr %6, metadata !4060, metadata !DIExpression()), !dbg !4061
  call void @llvm.dbg.declare(metadata ptr %5, metadata !4062, metadata !DIExpression()), !dbg !4063
  store i32 %3, ptr %7, align 4
  call void @llvm.dbg.declare(metadata ptr %7, metadata !4064, metadata !DIExpression()), !dbg !4065
  %9 = load ptr, ptr %6, align 4
  %10 = getelementptr inbounds %"class.std::__h::basic_filebuf", ptr %9, i32 0, i32 8, !dbg !4066
  %11 = load ptr, ptr %10, align 4, !dbg !4066
  %12 = icmp eq ptr %11, null, !dbg !4068
  br i1 %12, label %19, label %13, !dbg !4069

13:                                               ; preds = %4
  %14 = load ptr, ptr %9, align 4, !dbg !4070
  %15 = getelementptr inbounds ptr, ptr %14, i64 6, !dbg !4070
  %16 = load ptr, ptr %15, align 4, !dbg !4070
  %17 = call noundef i32 %16(ptr noundef nonnull align 4 dereferenceable(99) %9), !dbg !4070
  %18 = icmp ne i32 %17, 0, !dbg !4070
  br i1 %18, label %19, label %21, !dbg !4071

19:                                               ; preds = %13, %4
  %20 = call noundef ptr @_ZNSt3__h4fposI11__mbstate_tEC2B6v15004Ex(ptr noundef nonnull align 8 dereferenceable(16) %0, i64 noundef -1), !dbg !4072
  br label %31, !dbg !4073

21:                                               ; preds = %13
  %22 = getelementptr inbounds %"class.std::__h::basic_filebuf", ptr %9, i32 0, i32 8, !dbg !4074
  %23 = load ptr, ptr %22, align 4, !dbg !4074
  %24 = call noundef i64 @_ZNKSt3__h4fposI11__mbstate_tEcvxB6v15004Ev(ptr noundef nonnull align 8 dereferenceable(16) %5), !dbg !4076
  %25 = call i32 @fseeko(ptr noundef %23, i64 noundef %24, i32 noundef 0), !dbg !4077
  %26 = icmp ne i32 %25, 0, !dbg !4077
  br i1 %26, label %27, label %29, !dbg !4078

27:                                               ; preds = %21
  %28 = call noundef ptr @_ZNSt3__h4fposI11__mbstate_tEC2B6v15004Ex(ptr noundef nonnull align 8 dereferenceable(16) %0, i64 noundef -1), !dbg !4079
  br label %31, !dbg !4080

29:                                               ; preds = %21
  call void @_ZNKSt3__h4fposI11__mbstate_tE5stateB6v15004Ev(ptr sret(%struct.__mbstate_t) align 4 %8, ptr noundef nonnull align 8 dereferenceable(16) %5), !dbg !4081
  %30 = getelementptr inbounds %"class.std::__h::basic_filebuf", ptr %9, i32 0, i32 10, !dbg !4082
  call void @llvm.memcpy.p0.p0.i32(ptr align 4 %30, ptr align 4 %8, i32 8, i1 false), !dbg !4083
  call void @llvm.memcpy.p0.p0.i32(ptr align 8 %0, ptr align 8 %5, i32 16, i1 false), !dbg !4084
  br label %31, !dbg !4085

31:                                               ; preds = %29, %27, %19
  ret void, !dbg !4086
}

; Function Attrs: mustprogress noinline nounwind optnone sspstrong uwtable(sync)
define linkonce_odr noundef i32 @_ZNSt3__h13basic_filebufIcNS_11char_traitsIcEEE4syncEv(ptr noundef nonnull align 4 dereferenceable(99) %0) unnamed_addr #0 comdat align 2 !dbg !4087 {
  %2 = alloca i32, align 4
  %3 = alloca ptr, align 4
  %4 = alloca i32, align 4
  %5 = alloca ptr, align 4
  %6 = alloca i32, align 4
  %7 = alloca i64, align 8
  %8 = alloca %struct.__mbstate_t, align 4
  %9 = alloca i8, align 1
  %10 = alloca i32, align 4
  %11 = alloca i32, align 4
  store ptr %0, ptr %3, align 4
  call void @llvm.dbg.declare(metadata ptr %3, metadata !4088, metadata !DIExpression()), !dbg !4089
  %12 = load ptr, ptr %3, align 4
  %13 = getelementptr inbounds %"class.std::__h::basic_filebuf", ptr %12, i32 0, i32 8, !dbg !4090
  %14 = load ptr, ptr %13, align 4, !dbg !4090
  %15 = icmp eq ptr %14, null, !dbg !4092
  br i1 %15, label %16, label %17, !dbg !4093

16:                                               ; preds = %1
  store i32 0, ptr %2, align 4, !dbg !4094
  br label %178, !dbg !4094

17:                                               ; preds = %1
  %18 = getelementptr inbounds %"class.std::__h::basic_filebuf", ptr %12, i32 0, i32 9, !dbg !4095
  %19 = load ptr, ptr %18, align 4, !dbg !4095
  %20 = icmp ne ptr %19, null, !dbg !4095
  br i1 %20, label %22, label %21, !dbg !4097

21:                                               ; preds = %17
  call void @_ZNSt3__h16__throw_bad_castB6v15004Ev() #15, !dbg !4098
  unreachable, !dbg !4098

22:                                               ; preds = %17
  %23 = getelementptr inbounds %"class.std::__h::basic_filebuf", ptr %12, i32 0, i32 13, !dbg !4099
  %24 = load i32, ptr %23, align 4, !dbg !4099
  %25 = and i32 %24, 16, !dbg !4101
  %26 = icmp ne i32 %25, 0, !dbg !4099
  br i1 %26, label %27, label %84, !dbg !4102

27:                                               ; preds = %22
  %28 = call noundef ptr @_ZNKSt3__h15basic_streambufIcNS_11char_traitsIcEEE4pptrB6v15004Ev(ptr noundef nonnull align 4 dereferenceable(32) %12), !dbg !4103
  %29 = call noundef ptr @_ZNKSt3__h15basic_streambufIcNS_11char_traitsIcEEE5pbaseB6v15004Ev(ptr noundef nonnull align 4 dereferenceable(32) %12), !dbg !4106
  %30 = icmp ne ptr %28, %29, !dbg !4107
  br i1 %30, label %31, label %41, !dbg !4108

31:                                               ; preds = %27
  %32 = call noundef i32 @_ZNSt3__h11char_traitsIcE3eofEv() #12, !dbg !4109
  %33 = load ptr, ptr %12, align 4, !dbg !4109
  %34 = getelementptr inbounds ptr, ptr %33, i64 13, !dbg !4109
  %35 = load ptr, ptr %34, align 4, !dbg !4109
  %36 = call noundef i32 %35(ptr noundef nonnull align 4 dereferenceable(99) %12, i32 noundef %32), !dbg !4109
  %37 = call noundef i32 @_ZNSt3__h11char_traitsIcE3eofEv() #12, !dbg !4111
  %38 = icmp eq i32 %36, %37, !dbg !4112
  br i1 %38, label %39, label %40, !dbg !4113

39:                                               ; preds = %31
  store i32 -1, ptr %2, align 4, !dbg !4114
  br label %178, !dbg !4114

40:                                               ; preds = %31
  br label %41, !dbg !4115

41:                                               ; preds = %40, %27
  call void @llvm.dbg.declare(metadata ptr %4, metadata !4116, metadata !DIExpression()), !dbg !4117
  store i32 0, ptr %4, align 4, !dbg !4117, !annotation !3270
  br label %42, !dbg !4118

42:                                               ; preds = %70, %41
  call void @llvm.dbg.declare(metadata ptr %5, metadata !4119, metadata !DIExpression()), !dbg !4121
  store ptr null, ptr %5, align 4, !dbg !4121, !annotation !3270
  %43 = getelementptr inbounds %"class.std::__h::basic_filebuf", ptr %12, i32 0, i32 9, !dbg !4122
  %44 = load ptr, ptr %43, align 4, !dbg !4122
  %45 = getelementptr inbounds %"class.std::__h::basic_filebuf", ptr %12, i32 0, i32 10, !dbg !4123
  %46 = getelementptr inbounds %"class.std::__h::basic_filebuf", ptr %12, i32 0, i32 1, !dbg !4124
  %47 = load ptr, ptr %46, align 4, !dbg !4124
  %48 = getelementptr inbounds %"class.std::__h::basic_filebuf", ptr %12, i32 0, i32 1, !dbg !4125
  %49 = load ptr, ptr %48, align 4, !dbg !4125
  %50 = getelementptr inbounds %"class.std::__h::basic_filebuf", ptr %12, i32 0, i32 5, !dbg !4126
  %51 = load i32, ptr %50, align 4, !dbg !4126
  %52 = getelementptr inbounds i8, ptr %49, i32 %51, !dbg !4127
  %53 = call noundef i32 @_ZNKSt3__h7codecvtIcc11__mbstate_tE7unshiftB6v15004ERS1_PcS4_RS4_(ptr noundef nonnull align 4 dereferenceable(8) %44, ptr noundef nonnull align 4 dereferenceable(8) %45, ptr noundef %47, ptr noundef %52, ptr noundef nonnull align 4 dereferenceable(4) %5), !dbg !4128
  store i32 %53, ptr %4, align 4, !dbg !4129
  call void @llvm.dbg.declare(metadata ptr %6, metadata !4130, metadata !DIExpression()), !dbg !4131
  store i32 0, ptr %6, align 4, !dbg !4131, !annotation !3270
  %54 = load ptr, ptr %5, align 4, !dbg !4132
  %55 = getelementptr inbounds %"class.std::__h::basic_filebuf", ptr %12, i32 0, i32 1, !dbg !4133
  %56 = load ptr, ptr %55, align 4, !dbg !4133
  %57 = ptrtoint ptr %54 to i32, !dbg !4134
  %58 = ptrtoint ptr %56 to i32, !dbg !4134
  %59 = sub i32 %57, %58, !dbg !4134
  store i32 %59, ptr %6, align 4, !dbg !4131
  %60 = getelementptr inbounds %"class.std::__h::basic_filebuf", ptr %12, i32 0, i32 1, !dbg !4135
  %61 = load ptr, ptr %60, align 4, !dbg !4135
  %62 = load i32, ptr %6, align 4, !dbg !4137
  %63 = getelementptr inbounds %"class.std::__h::basic_filebuf", ptr %12, i32 0, i32 8, !dbg !4138
  %64 = load ptr, ptr %63, align 4, !dbg !4138
  %65 = call i32 @fwrite(ptr noundef %61, i32 noundef 1, i32 noundef %62, ptr noundef %64), !dbg !4139
  %66 = load i32, ptr %6, align 4, !dbg !4140
  %67 = icmp ne i32 %65, %66, !dbg !4141
  br i1 %67, label %68, label %69, !dbg !4142

68:                                               ; preds = %42
  store i32 -1, ptr %2, align 4, !dbg !4143
  br label %178, !dbg !4143

69:                                               ; preds = %42
  br label %70, !dbg !4144

70:                                               ; preds = %69
  %71 = load i32, ptr %4, align 4, !dbg !4145
  %72 = icmp eq i32 %71, 1, !dbg !4146
  br i1 %72, label %42, label %73, !dbg !4144, !llvm.loop !4147

73:                                               ; preds = %70
  %74 = load i32, ptr %4, align 4, !dbg !4150
  %75 = icmp eq i32 %74, 2, !dbg !4152
  br i1 %75, label %76, label %77, !dbg !4153

76:                                               ; preds = %73
  store i32 -1, ptr %2, align 4, !dbg !4154
  br label %178, !dbg !4154

77:                                               ; preds = %73
  %78 = getelementptr inbounds %"class.std::__h::basic_filebuf", ptr %12, i32 0, i32 8, !dbg !4155
  %79 = load ptr, ptr %78, align 4, !dbg !4155
  %80 = call i32 @fflush(ptr noundef %79), !dbg !4157
  %81 = icmp ne i32 %80, 0, !dbg !4157
  br i1 %81, label %82, label %83, !dbg !4158

82:                                               ; preds = %77
  store i32 -1, ptr %2, align 4, !dbg !4159
  br label %178, !dbg !4159

83:                                               ; preds = %77
  br label %177, !dbg !4160

84:                                               ; preds = %22
  %85 = getelementptr inbounds %"class.std::__h::basic_filebuf", ptr %12, i32 0, i32 13, !dbg !4161
  %86 = load i32, ptr %85, align 4, !dbg !4161
  %87 = and i32 %86, 8, !dbg !4163
  %88 = icmp ne i32 %87, 0, !dbg !4161
  br i1 %88, label %89, label %176, !dbg !4164

89:                                               ; preds = %84
  call void @llvm.dbg.declare(metadata ptr %7, metadata !4165, metadata !DIExpression()), !dbg !4167
  store i64 0, ptr %7, align 8, !dbg !4167, !annotation !3270
  call void @llvm.dbg.declare(metadata ptr %8, metadata !4168, metadata !DIExpression()), !dbg !4169
  call void @llvm.memset.p0.i32(ptr align 4 %8, i8 0, i32 8, i1 false), !dbg !4169, !annotation !3270
  %90 = getelementptr inbounds %"class.std::__h::basic_filebuf", ptr %12, i32 0, i32 11, !dbg !4170
  call void @llvm.memcpy.p0.p0.i32(ptr align 4 %8, ptr align 4 %90, i32 8, i1 false), !dbg !4170
  call void @llvm.dbg.declare(metadata ptr %9, metadata !4171, metadata !DIExpression()), !dbg !4172
  store i8 0, ptr %9, align 1, !dbg !4172, !annotation !3270
  store i8 0, ptr %9, align 1, !dbg !4172
  %91 = getelementptr inbounds %"class.std::__h::basic_filebuf", ptr %12, i32 0, i32 16, !dbg !4173
  %92 = load i8, ptr %91, align 2, !dbg !4173
  %93 = trunc i8 %92 to i1, !dbg !4173
  br i1 %93, label %94, label %101, !dbg !4175

94:                                               ; preds = %89
  %95 = call noundef ptr @_ZNKSt3__h15basic_streambufIcNS_11char_traitsIcEEE5egptrB6v15004Ev(ptr noundef nonnull align 4 dereferenceable(32) %12), !dbg !4176
  %96 = call noundef ptr @_ZNKSt3__h15basic_streambufIcNS_11char_traitsIcEEE4gptrB6v15004Ev(ptr noundef nonnull align 4 dereferenceable(32) %12), !dbg !4177
  %97 = ptrtoint ptr %95 to i32, !dbg !4178
  %98 = ptrtoint ptr %96 to i32, !dbg !4178
  %99 = sub i32 %97, %98, !dbg !4178
  %100 = sext i32 %99 to i64, !dbg !4179
  store i64 %100, ptr %7, align 8, !dbg !4180
  br label %157, !dbg !4181

101:                                              ; preds = %89
  call void @llvm.dbg.declare(metadata ptr %10, metadata !4182, metadata !DIExpression()), !dbg !4184
  store i32 0, ptr %10, align 4, !dbg !4184, !annotation !3270
  %102 = getelementptr inbounds %"class.std::__h::basic_filebuf", ptr %12, i32 0, i32 9, !dbg !4185
  %103 = load ptr, ptr %102, align 4, !dbg !4185
  %104 = call noundef i32 @_ZNKSt3__h7codecvtIcc11__mbstate_tE8encodingB6v15004Ev(ptr noundef nonnull align 4 dereferenceable(8) %103) #12, !dbg !4186
  store i32 %104, ptr %10, align 4, !dbg !4184
  %105 = getelementptr inbounds %"class.std::__h::basic_filebuf", ptr %12, i32 0, i32 3, !dbg !4187
  %106 = load ptr, ptr %105, align 4, !dbg !4187
  %107 = getelementptr inbounds %"class.std::__h::basic_filebuf", ptr %12, i32 0, i32 2, !dbg !4188
  %108 = load ptr, ptr %107, align 4, !dbg !4188
  %109 = ptrtoint ptr %106 to i32, !dbg !4189
  %110 = ptrtoint ptr %108 to i32, !dbg !4189
  %111 = sub i32 %109, %110, !dbg !4189
  %112 = sext i32 %111 to i64, !dbg !4187
  store i64 %112, ptr %7, align 8, !dbg !4190
  %113 = load i32, ptr %10, align 4, !dbg !4191
  %114 = icmp sgt i32 %113, 0, !dbg !4193
  br i1 %114, label %115, label %126, !dbg !4194

115:                                              ; preds = %101
  %116 = load i32, ptr %10, align 4, !dbg !4195
  %117 = call noundef ptr @_ZNKSt3__h15basic_streambufIcNS_11char_traitsIcEEE5egptrB6v15004Ev(ptr noundef nonnull align 4 dereferenceable(32) %12), !dbg !4196
  %118 = call noundef ptr @_ZNKSt3__h15basic_streambufIcNS_11char_traitsIcEEE4gptrB6v15004Ev(ptr noundef nonnull align 4 dereferenceable(32) %12), !dbg !4197
  %119 = ptrtoint ptr %117 to i32, !dbg !4198
  %120 = ptrtoint ptr %118 to i32, !dbg !4198
  %121 = sub i32 %119, %120, !dbg !4198
  %122 = mul nsw i32 %116, %121, !dbg !4199
  %123 = sext i32 %122 to i64, !dbg !4195
  %124 = load i64, ptr %7, align 8, !dbg !4200
  %125 = add nsw i64 %124, %123, !dbg !4200
  store i64 %125, ptr %7, align 8, !dbg !4200
  br label %156, !dbg !4201

126:                                              ; preds = %101
  %127 = call noundef ptr @_ZNKSt3__h15basic_streambufIcNS_11char_traitsIcEEE4gptrB6v15004Ev(ptr noundef nonnull align 4 dereferenceable(32) %12), !dbg !4202
  %128 = call noundef ptr @_ZNKSt3__h15basic_streambufIcNS_11char_traitsIcEEE5egptrB6v15004Ev(ptr noundef nonnull align 4 dereferenceable(32) %12), !dbg !4205
  %129 = icmp ne ptr %127, %128, !dbg !4206
  br i1 %129, label %130, label %155, !dbg !4207

130:                                              ; preds = %126
  call void @llvm.dbg.declare(metadata ptr %11, metadata !4208, metadata !DIExpression()), !dbg !4210
  store i32 0, ptr %11, align 4, !dbg !4210, !annotation !3270
  %131 = getelementptr inbounds %"class.std::__h::basic_filebuf", ptr %12, i32 0, i32 9, !dbg !4211
  %132 = load ptr, ptr %131, align 4, !dbg !4211
  %133 = getelementptr inbounds %"class.std::__h::basic_filebuf", ptr %12, i32 0, i32 1, !dbg !4212
  %134 = load ptr, ptr %133, align 4, !dbg !4212
  %135 = getelementptr inbounds %"class.std::__h::basic_filebuf", ptr %12, i32 0, i32 2, !dbg !4213
  %136 = load ptr, ptr %135, align 4, !dbg !4213
  %137 = call noundef ptr @_ZNKSt3__h15basic_streambufIcNS_11char_traitsIcEEE4gptrB6v15004Ev(ptr noundef nonnull align 4 dereferenceable(32) %12), !dbg !4214
  %138 = call noundef ptr @_ZNKSt3__h15basic_streambufIcNS_11char_traitsIcEEE5ebackB6v15004Ev(ptr noundef nonnull align 4 dereferenceable(32) %12), !dbg !4215
  %139 = ptrtoint ptr %137 to i32, !dbg !4216
  %140 = ptrtoint ptr %138 to i32, !dbg !4216
  %141 = sub i32 %139, %140, !dbg !4216
  %142 = call noundef i32 @_ZNKSt3__h7codecvtIcc11__mbstate_tE6lengthB6v15004ERS1_PKcS5_j(ptr noundef nonnull align 4 dereferenceable(8) %132, ptr noundef nonnull align 4 dereferenceable(8) %8, ptr noundef %134, ptr noundef %136, i32 noundef %141), !dbg !4217
  store i32 %142, ptr %11, align 4, !dbg !4210
  %143 = getelementptr inbounds %"class.std::__h::basic_filebuf", ptr %12, i32 0, i32 2, !dbg !4218
  %144 = load ptr, ptr %143, align 4, !dbg !4218
  %145 = getelementptr inbounds %"class.std::__h::basic_filebuf", ptr %12, i32 0, i32 1, !dbg !4219
  %146 = load ptr, ptr %145, align 4, !dbg !4219
  %147 = ptrtoint ptr %144 to i32, !dbg !4220
  %148 = ptrtoint ptr %146 to i32, !dbg !4220
  %149 = sub i32 %147, %148, !dbg !4220
  %150 = load i32, ptr %11, align 4, !dbg !4221
  %151 = sub nsw i32 %149, %150, !dbg !4222
  %152 = sext i32 %151 to i64, !dbg !4218
  %153 = load i64, ptr %7, align 8, !dbg !4223
  %154 = add nsw i64 %153, %152, !dbg !4223
  store i64 %154, ptr %7, align 8, !dbg !4223
  store i8 1, ptr %9, align 1, !dbg !4224
  br label %155, !dbg !4225

155:                                              ; preds = %130, %126
  br label %156

156:                                              ; preds = %155, %115
  br label %157

157:                                              ; preds = %156, %94
  %158 = getelementptr inbounds %"class.std::__h::basic_filebuf", ptr %12, i32 0, i32 8, !dbg !4226
  %159 = load ptr, ptr %158, align 4, !dbg !4226
  %160 = load i64, ptr %7, align 8, !dbg !4228
  %161 = sub nsw i64 0, %160, !dbg !4229
  %162 = call i32 @fseeko(ptr noundef %159, i64 noundef %161, i32 noundef 1), !dbg !4230
  %163 = icmp ne i32 %162, 0, !dbg !4230
  br i1 %163, label %164, label %165, !dbg !4231

164:                                              ; preds = %157
  store i32 -1, ptr %2, align 4, !dbg !4232
  br label %178, !dbg !4232

165:                                              ; preds = %157
  %166 = load i8, ptr %9, align 1, !dbg !4233
  %167 = trunc i8 %166 to i1, !dbg !4233
  br i1 %167, label %168, label %170, !dbg !4235

168:                                              ; preds = %165
  %169 = getelementptr inbounds %"class.std::__h::basic_filebuf", ptr %12, i32 0, i32 10, !dbg !4236
  call void @llvm.memcpy.p0.p0.i32(ptr align 4 %169, ptr align 4 %8, i32 8, i1 false), !dbg !4237
  br label %170, !dbg !4236

170:                                              ; preds = %168, %165
  %171 = getelementptr inbounds %"class.std::__h::basic_filebuf", ptr %12, i32 0, i32 1, !dbg !4238
  %172 = load ptr, ptr %171, align 4, !dbg !4238
  %173 = getelementptr inbounds %"class.std::__h::basic_filebuf", ptr %12, i32 0, i32 3, !dbg !4239
  store ptr %172, ptr %173, align 4, !dbg !4240
  %174 = getelementptr inbounds %"class.std::__h::basic_filebuf", ptr %12, i32 0, i32 2, !dbg !4241
  store ptr %172, ptr %174, align 4, !dbg !4242
  call void @_ZNSt3__h15basic_streambufIcNS_11char_traitsIcEEE4setgB6v15004EPcS4_S4_(ptr noundef nonnull align 4 dereferenceable(32) %12, ptr noundef null, ptr noundef null, ptr noundef null), !dbg !4243
  %175 = getelementptr inbounds %"class.std::__h::basic_filebuf", ptr %12, i32 0, i32 13, !dbg !4244
  store i32 0, ptr %175, align 4, !dbg !4245
  br label %176, !dbg !4246

176:                                              ; preds = %170, %84
  br label %177

177:                                              ; preds = %176, %83
  store i32 0, ptr %2, align 4, !dbg !4247
  br label %178, !dbg !4247

178:                                              ; preds = %177, %164, %82, %76, %68, %39, %16
  %179 = load i32, ptr %2, align 4, !dbg !4248
  ret i32 %179, !dbg !4248
}

declare noundef i32 @_ZNSt3__h15basic_streambufIcNS_11char_traitsIcEEE9showmanycEv(ptr noundef nonnull align 4 dereferenceable(32)) unnamed_addr #5

declare noundef i32 @_ZNSt3__h15basic_streambufIcNS_11char_traitsIcEEE6xsgetnEPci(ptr noundef nonnull align 4 dereferenceable(32), ptr noundef, i32 noundef) unnamed_addr #5

; Function Attrs: mustprogress noinline nounwind optnone sspstrong uwtable(sync)
define linkonce_odr noundef i32 @_ZNSt3__h13basic_filebufIcNS_11char_traitsIcEEE9underflowEv(ptr noundef nonnull align 4 dereferenceable(99) %0) unnamed_addr #0 comdat align 2 !dbg !4249 {
  %2 = alloca i32, align 4
  %3 = alloca ptr, align 4
  %4 = alloca i8, align 1
  %5 = alloca i8, align 1
  %6 = alloca i32, align 4
  %7 = alloca i32, align 4
  %8 = alloca i32, align 4
  %9 = alloca i32, align 4
  %10 = alloca i32, align 4
  %11 = alloca i32, align 4
  %12 = alloca i32, align 4
  %13 = alloca i32, align 4
  %14 = alloca i32, align 4
  %15 = alloca i32, align 4
  %16 = alloca ptr, align 4
  store ptr %0, ptr %3, align 4
  call void @llvm.dbg.declare(metadata ptr %3, metadata !4250, metadata !DIExpression()), !dbg !4251
  %17 = load ptr, ptr %3, align 4
  %18 = getelementptr inbounds %"class.std::__h::basic_filebuf", ptr %17, i32 0, i32 8, !dbg !4252
  %19 = load ptr, ptr %18, align 4, !dbg !4252
  %20 = icmp eq ptr %19, null, !dbg !4254
  br i1 %20, label %21, label %23, !dbg !4255

21:                                               ; preds = %1
  %22 = call noundef i32 @_ZNSt3__h11char_traitsIcE3eofEv() #12, !dbg !4256
  store i32 %22, ptr %2, align 4, !dbg !4257
  br label %240, !dbg !4257

23:                                               ; preds = %1
  call void @llvm.dbg.declare(metadata ptr %4, metadata !4258, metadata !DIExpression()), !dbg !4259
  store i8 0, ptr %4, align 1, !dbg !4259, !annotation !3270
  %24 = call noundef zeroext i1 @_ZNSt3__h13basic_filebufIcNS_11char_traitsIcEEE11__read_modeEv(ptr noundef nonnull align 4 dereferenceable(99) %17), !dbg !4260
  %25 = zext i1 %24 to i8, !dbg !4259
  store i8 %25, ptr %4, align 1, !dbg !4259
  call void @llvm.dbg.declare(metadata ptr %5, metadata !4261, metadata !DIExpression()), !dbg !4262
  store i8 0, ptr %5, align 1, !dbg !4262, !annotation !3270
  %26 = call noundef ptr @_ZNKSt3__h15basic_streambufIcNS_11char_traitsIcEEE4gptrB6v15004Ev(ptr noundef nonnull align 4 dereferenceable(32) %17), !dbg !4263
  %27 = icmp eq ptr %26, null, !dbg !4265
  br i1 %27, label %28, label %31, !dbg !4266

28:                                               ; preds = %23
  %29 = getelementptr inbounds i8, ptr %5, i32 1, !dbg !4267
  %30 = getelementptr inbounds i8, ptr %5, i32 1, !dbg !4268
  call void @_ZNSt3__h15basic_streambufIcNS_11char_traitsIcEEE4setgB6v15004EPcS4_S4_(ptr noundef nonnull align 4 dereferenceable(32) %17, ptr noundef %5, ptr noundef %29, ptr noundef %30), !dbg !4269
  br label %31, !dbg !4270

31:                                               ; preds = %28, %23
  call void @llvm.dbg.declare(metadata ptr %6, metadata !4271, metadata !DIExpression()), !dbg !4273
  store i32 0, ptr %6, align 4, !dbg !4273, !annotation !3270
  %32 = load i8, ptr %4, align 1, !dbg !4274
  %33 = trunc i8 %32 to i1, !dbg !4274
  br i1 %33, label %34, label %35, !dbg !4274

34:                                               ; preds = %31
  br label %44, !dbg !4274

35:                                               ; preds = %31
  %36 = call noundef ptr @_ZNKSt3__h15basic_streambufIcNS_11char_traitsIcEEE5egptrB6v15004Ev(ptr noundef nonnull align 4 dereferenceable(32) %17), !dbg !4275
  %37 = call noundef ptr @_ZNKSt3__h15basic_streambufIcNS_11char_traitsIcEEE5ebackB6v15004Ev(ptr noundef nonnull align 4 dereferenceable(32) %17), !dbg !4276
  %38 = ptrtoint ptr %36 to i32, !dbg !4277
  %39 = ptrtoint ptr %37 to i32, !dbg !4277
  %40 = sub i32 %38, %39, !dbg !4277
  %41 = sdiv i32 %40, 2, !dbg !4278
  store i32 %41, ptr %7, align 4, !dbg !4279
  store i32 4, ptr %8, align 4, !dbg !4280
  %42 = call noundef nonnull align 4 dereferenceable(4) ptr @_ZNSt3__h3minB6v15004IjEERKT_S3_S3_(ptr noundef nonnull align 4 dereferenceable(4) %7, ptr noundef nonnull align 4 dereferenceable(4) %8), !dbg !4281
  %43 = load i32, ptr %42, align 4, !dbg !4281
  br label %44, !dbg !4274

44:                                               ; preds = %35, %34
  %45 = phi i32 [ 0, %34 ], [ %43, %35 ], !dbg !4274
  store i32 %45, ptr %6, align 4, !dbg !4273
  call void @llvm.dbg.declare(metadata ptr %9, metadata !4282, metadata !DIExpression()), !dbg !4283
  store i32 0, ptr %9, align 4, !dbg !4283, !annotation !3270
  %46 = call noundef i32 @_ZNSt3__h11char_traitsIcE3eofEv() #12, !dbg !4284
  store i32 %46, ptr %9, align 4, !dbg !4283
  %47 = call noundef ptr @_ZNKSt3__h15basic_streambufIcNS_11char_traitsIcEEE4gptrB6v15004Ev(ptr noundef nonnull align 4 dereferenceable(32) %17), !dbg !4285
  %48 = call noundef ptr @_ZNKSt3__h15basic_streambufIcNS_11char_traitsIcEEE5egptrB6v15004Ev(ptr noundef nonnull align 4 dereferenceable(32) %17), !dbg !4287
  %49 = icmp eq ptr %47, %48, !dbg !4288
  br i1 %49, label %50, label %230, !dbg !4289

50:                                               ; preds = %44
  %51 = call noundef ptr @_ZNKSt3__h15basic_streambufIcNS_11char_traitsIcEEE5ebackB6v15004Ev(ptr noundef nonnull align 4 dereferenceable(32) %17), !dbg !4290
  %52 = call noundef ptr @_ZNKSt3__h15basic_streambufIcNS_11char_traitsIcEEE5egptrB6v15004Ev(ptr noundef nonnull align 4 dereferenceable(32) %17), !dbg !4292
  %53 = load i32, ptr %6, align 4, !dbg !4293
  %54 = sub i32 0, %53, !dbg !4294
  %55 = getelementptr inbounds i8, ptr %52, i32 %54, !dbg !4294
  %56 = load i32, ptr %6, align 4, !dbg !4295
  %57 = mul i32 %56, 1, !dbg !4296
  call void @llvm.memmove.p0.p0.i32(ptr align 1 %51, ptr align 1 %55, i32 %57, i1 false), !dbg !4297
  %58 = getelementptr inbounds %"class.std::__h::basic_filebuf", ptr %17, i32 0, i32 16, !dbg !4298
  %59 = load i8, ptr %58, align 2, !dbg !4298
  %60 = trunc i8 %59 to i1, !dbg !4298
  br i1 %60, label %61, label %92, !dbg !4300

61:                                               ; preds = %50
  call void @llvm.dbg.declare(metadata ptr %10, metadata !4301, metadata !DIExpression()), !dbg !4303
  store i32 0, ptr %10, align 4, !dbg !4303, !annotation !3270
  %62 = call noundef ptr @_ZNKSt3__h15basic_streambufIcNS_11char_traitsIcEEE5egptrB6v15004Ev(ptr noundef nonnull align 4 dereferenceable(32) %17), !dbg !4304
  %63 = call noundef ptr @_ZNKSt3__h15basic_streambufIcNS_11char_traitsIcEEE5ebackB6v15004Ev(ptr noundef nonnull align 4 dereferenceable(32) %17), !dbg !4305
  %64 = ptrtoint ptr %62 to i32, !dbg !4306
  %65 = ptrtoint ptr %63 to i32, !dbg !4306
  %66 = sub i32 %64, %65, !dbg !4306
  %67 = load i32, ptr %6, align 4, !dbg !4307
  %68 = sub i32 %66, %67, !dbg !4308
  store i32 %68, ptr %10, align 4, !dbg !4303
  %69 = call noundef ptr @_ZNKSt3__h15basic_streambufIcNS_11char_traitsIcEEE5ebackB6v15004Ev(ptr noundef nonnull align 4 dereferenceable(32) %17), !dbg !4309
  %70 = load i32, ptr %6, align 4, !dbg !4310
  %71 = getelementptr inbounds i8, ptr %69, i32 %70, !dbg !4311
  %72 = load i32, ptr %10, align 4, !dbg !4312
  %73 = getelementptr inbounds %"class.std::__h::basic_filebuf", ptr %17, i32 0, i32 8, !dbg !4313
  %74 = load ptr, ptr %73, align 4, !dbg !4313
  %75 = call i32 @fread(ptr noundef %71, i32 noundef 1, i32 noundef %72, ptr noundef %74), !dbg !4314
  store i32 %75, ptr %10, align 4, !dbg !4315
  %76 = load i32, ptr %10, align 4, !dbg !4316
  %77 = icmp ne i32 %76, 0, !dbg !4318
  br i1 %77, label %78, label %91, !dbg !4319

78:                                               ; preds = %61
  %79 = call noundef ptr @_ZNKSt3__h15basic_streambufIcNS_11char_traitsIcEEE5ebackB6v15004Ev(ptr noundef nonnull align 4 dereferenceable(32) %17), !dbg !4320
  %80 = call noundef ptr @_ZNKSt3__h15basic_streambufIcNS_11char_traitsIcEEE5ebackB6v15004Ev(ptr noundef nonnull align 4 dereferenceable(32) %17), !dbg !4322
  %81 = load i32, ptr %6, align 4, !dbg !4323
  %82 = getelementptr inbounds i8, ptr %80, i32 %81, !dbg !4324
  %83 = call noundef ptr @_ZNKSt3__h15basic_streambufIcNS_11char_traitsIcEEE5ebackB6v15004Ev(ptr noundef nonnull align 4 dereferenceable(32) %17), !dbg !4325
  %84 = load i32, ptr %6, align 4, !dbg !4326
  %85 = getelementptr inbounds i8, ptr %83, i32 %84, !dbg !4327
  %86 = load i32, ptr %10, align 4, !dbg !4328
  %87 = getelementptr inbounds i8, ptr %85, i32 %86, !dbg !4329
  call void @_ZNSt3__h15basic_streambufIcNS_11char_traitsIcEEE4setgB6v15004EPcS4_S4_(ptr noundef nonnull align 4 dereferenceable(32) %17, ptr noundef %79, ptr noundef %82, ptr noundef %87), !dbg !4330
  %88 = call noundef ptr @_ZNKSt3__h15basic_streambufIcNS_11char_traitsIcEEE4gptrB6v15004Ev(ptr noundef nonnull align 4 dereferenceable(32) %17), !dbg !4331
  %89 = load i8, ptr %88, align 1, !dbg !4332
  %90 = call noundef i32 @_ZNSt3__h11char_traitsIcE11to_int_typeEc(i8 noundef zeroext %89) #12, !dbg !4333
  store i32 %90, ptr %9, align 4, !dbg !4334
  br label %91, !dbg !4335

91:                                               ; preds = %78, %61
  br label %229, !dbg !4336

92:                                               ; preds = %50
  %93 = getelementptr inbounds %"class.std::__h::basic_filebuf", ptr %17, i32 0, i32 2, !dbg !4337
  %94 = load ptr, ptr %93, align 4, !dbg !4337
  %95 = icmp eq ptr %94, null, !dbg !4337
  br i1 %95, label %96, label %102, !dbg !4337

96:                                               ; preds = %92
  %97 = getelementptr inbounds %"class.std::__h::basic_filebuf", ptr %17, i32 0, i32 3, !dbg !4337
  %98 = load ptr, ptr %97, align 4, !dbg !4337
  %99 = getelementptr inbounds %"class.std::__h::basic_filebuf", ptr %17, i32 0, i32 2, !dbg !4337
  %100 = load ptr, ptr %99, align 4, !dbg !4337
  %101 = icmp ne ptr %98, %100, !dbg !4337
  br label %102

102:                                              ; preds = %96, %92
  %103 = phi i1 [ false, %92 ], [ %101, %96 ], !dbg !4339
  %104 = xor i1 %103, true, !dbg !4337
  call void @llvm.assume(i1 %104), !dbg !4337
  %105 = getelementptr inbounds %"class.std::__h::basic_filebuf", ptr %17, i32 0, i32 3, !dbg !4340
  %106 = load ptr, ptr %105, align 4, !dbg !4340
  %107 = getelementptr inbounds %"class.std::__h::basic_filebuf", ptr %17, i32 0, i32 2, !dbg !4342
  %108 = load ptr, ptr %107, align 4, !dbg !4342
  %109 = icmp ne ptr %106, %108, !dbg !4343
  br i1 %109, label %110, label %122, !dbg !4344

110:                                              ; preds = %102
  %111 = getelementptr inbounds %"class.std::__h::basic_filebuf", ptr %17, i32 0, i32 1, !dbg !4345
  %112 = load ptr, ptr %111, align 4, !dbg !4345
  %113 = getelementptr inbounds %"class.std::__h::basic_filebuf", ptr %17, i32 0, i32 2, !dbg !4346
  %114 = load ptr, ptr %113, align 4, !dbg !4346
  %115 = getelementptr inbounds %"class.std::__h::basic_filebuf", ptr %17, i32 0, i32 3, !dbg !4347
  %116 = load ptr, ptr %115, align 4, !dbg !4347
  %117 = getelementptr inbounds %"class.std::__h::basic_filebuf", ptr %17, i32 0, i32 2, !dbg !4348
  %118 = load ptr, ptr %117, align 4, !dbg !4348
  %119 = ptrtoint ptr %116 to i32, !dbg !4349
  %120 = ptrtoint ptr %118 to i32, !dbg !4349
  %121 = sub i32 %119, %120, !dbg !4349
  call void @llvm.memmove.p0.p0.i32(ptr align 1 %112, ptr align 1 %114, i32 %121, i1 false), !dbg !4350
  br label %122, !dbg !4350

122:                                              ; preds = %110, %102
  %123 = getelementptr inbounds %"class.std::__h::basic_filebuf", ptr %17, i32 0, i32 1, !dbg !4351
  %124 = load ptr, ptr %123, align 4, !dbg !4351
  %125 = getelementptr inbounds %"class.std::__h::basic_filebuf", ptr %17, i32 0, i32 3, !dbg !4352
  %126 = load ptr, ptr %125, align 4, !dbg !4352
  %127 = getelementptr inbounds %"class.std::__h::basic_filebuf", ptr %17, i32 0, i32 2, !dbg !4353
  %128 = load ptr, ptr %127, align 4, !dbg !4353
  %129 = ptrtoint ptr %126 to i32, !dbg !4354
  %130 = ptrtoint ptr %128 to i32, !dbg !4354
  %131 = sub i32 %129, %130, !dbg !4354
  %132 = getelementptr inbounds i8, ptr %124, i32 %131, !dbg !4355
  %133 = getelementptr inbounds %"class.std::__h::basic_filebuf", ptr %17, i32 0, i32 2, !dbg !4356
  store ptr %132, ptr %133, align 4, !dbg !4357
  %134 = getelementptr inbounds %"class.std::__h::basic_filebuf", ptr %17, i32 0, i32 1, !dbg !4358
  %135 = load ptr, ptr %134, align 4, !dbg !4358
  %136 = getelementptr inbounds %"class.std::__h::basic_filebuf", ptr %17, i32 0, i32 1, !dbg !4359
  %137 = load ptr, ptr %136, align 4, !dbg !4359
  %138 = getelementptr inbounds %"class.std::__h::basic_filebuf", ptr %17, i32 0, i32 4, !dbg !4360
  %139 = getelementptr inbounds [8 x i8], ptr %138, i32 0, i32 0, !dbg !4360
  %140 = icmp eq ptr %137, %139, !dbg !4361
  br i1 %140, label %141, label %142, !dbg !4359

141:                                              ; preds = %122
  br label %145, !dbg !4359

142:                                              ; preds = %122
  %143 = getelementptr inbounds %"class.std::__h::basic_filebuf", ptr %17, i32 0, i32 5, !dbg !4362
  %144 = load i32, ptr %143, align 4, !dbg !4362
  br label %145, !dbg !4359

145:                                              ; preds = %142, %141
  %146 = phi i32 [ 8, %141 ], [ %144, %142 ], !dbg !4359
  %147 = getelementptr inbounds i8, ptr %135, i32 %146, !dbg !4363
  %148 = getelementptr inbounds %"class.std::__h::basic_filebuf", ptr %17, i32 0, i32 3, !dbg !4364
  store ptr %147, ptr %148, align 4, !dbg !4365
  call void @llvm.dbg.declare(metadata ptr %11, metadata !4366, metadata !DIExpression()), !dbg !4367
  store i32 0, ptr %11, align 4, !dbg !4367, !annotation !3270
  %149 = getelementptr inbounds %"class.std::__h::basic_filebuf", ptr %17, i32 0, i32 7, !dbg !4368
  %150 = load i32, ptr %149, align 4, !dbg !4368
  %151 = load i32, ptr %6, align 4, !dbg !4369
  %152 = sub i32 %150, %151, !dbg !4370
  store i32 %152, ptr %12, align 4, !dbg !4371
  %153 = getelementptr inbounds %"class.std::__h::basic_filebuf", ptr %17, i32 0, i32 3, !dbg !4372
  %154 = load ptr, ptr %153, align 4, !dbg !4372
  %155 = getelementptr inbounds %"class.std::__h::basic_filebuf", ptr %17, i32 0, i32 2, !dbg !4373
  %156 = load ptr, ptr %155, align 4, !dbg !4373
  %157 = ptrtoint ptr %154 to i32, !dbg !4374
  %158 = ptrtoint ptr %156 to i32, !dbg !4374
  %159 = sub i32 %157, %158, !dbg !4374
  store i32 %159, ptr %13, align 4, !dbg !4375
  %160 = call noundef nonnull align 4 dereferenceable(4) ptr @_ZNSt3__h3minB6v15004IjEERKT_S3_S3_(ptr noundef nonnull align 4 dereferenceable(4) %12, ptr noundef nonnull align 4 dereferenceable(4) %13), !dbg !4376
  %161 = load i32, ptr %160, align 4, !dbg !4376
  store i32 %161, ptr %11, align 4, !dbg !4367
  call void @llvm.dbg.declare(metadata ptr %14, metadata !4377, metadata !DIExpression()), !dbg !4378
  store i32 0, ptr %14, align 4, !dbg !4378, !annotation !3270
  %162 = getelementptr inbounds %"class.std::__h::basic_filebuf", ptr %17, i32 0, i32 10, !dbg !4379
  %163 = getelementptr inbounds %"class.std::__h::basic_filebuf", ptr %17, i32 0, i32 11, !dbg !4380
  call void @llvm.memcpy.p0.p0.i32(ptr align 4 %163, ptr align 4 %162, i32 8, i1 false), !dbg !4381
  call void @llvm.dbg.declare(metadata ptr %15, metadata !4382, metadata !DIExpression()), !dbg !4383
  store i32 0, ptr %15, align 4, !dbg !4383, !annotation !3270
  %164 = getelementptr inbounds %"class.std::__h::basic_filebuf", ptr %17, i32 0, i32 2, !dbg !4384
  %165 = load ptr, ptr %164, align 4, !dbg !4384
  %166 = load i32, ptr %11, align 4, !dbg !4385
  %167 = getelementptr inbounds %"class.std::__h::basic_filebuf", ptr %17, i32 0, i32 8, !dbg !4386
  %168 = load ptr, ptr %167, align 4, !dbg !4386
  %169 = call i32 @fread(ptr noundef %165, i32 noundef 1, i32 noundef %166, ptr noundef %168), !dbg !4387
  store i32 %169, ptr %15, align 4, !dbg !4383
  %170 = load i32, ptr %15, align 4, !dbg !4388
  %171 = icmp ne i32 %170, 0, !dbg !4390
  br i1 %171, label %172, label %228, !dbg !4391

172:                                              ; preds = %145
  %173 = getelementptr inbounds %"class.std::__h::basic_filebuf", ptr %17, i32 0, i32 9, !dbg !4392
  %174 = load ptr, ptr %173, align 4, !dbg !4392
  %175 = icmp ne ptr %174, null, !dbg !4392
  br i1 %175, label %177, label %176, !dbg !4395

176:                                              ; preds = %172
  call void @_ZNSt3__h16__throw_bad_castB6v15004Ev() #15, !dbg !4396
  unreachable, !dbg !4396

177:                                              ; preds = %172
  %178 = getelementptr inbounds %"class.std::__h::basic_filebuf", ptr %17, i32 0, i32 2, !dbg !4397
  %179 = load ptr, ptr %178, align 4, !dbg !4397
  %180 = load i32, ptr %15, align 4, !dbg !4398
  %181 = getelementptr inbounds i8, ptr %179, i32 %180, !dbg !4399
  %182 = getelementptr inbounds %"class.std::__h::basic_filebuf", ptr %17, i32 0, i32 3, !dbg !4400
  store ptr %181, ptr %182, align 4, !dbg !4401
  call void @llvm.dbg.declare(metadata ptr %16, metadata !4402, metadata !DIExpression()), !dbg !4403
  store ptr null, ptr %16, align 4, !dbg !4403, !annotation !3270
  %183 = getelementptr inbounds %"class.std::__h::basic_filebuf", ptr %17, i32 0, i32 9, !dbg !4404
  %184 = load ptr, ptr %183, align 4, !dbg !4404
  %185 = getelementptr inbounds %"class.std::__h::basic_filebuf", ptr %17, i32 0, i32 10, !dbg !4405
  %186 = getelementptr inbounds %"class.std::__h::basic_filebuf", ptr %17, i32 0, i32 1, !dbg !4406
  %187 = load ptr, ptr %186, align 4, !dbg !4406
  %188 = getelementptr inbounds %"class.std::__h::basic_filebuf", ptr %17, i32 0, i32 3, !dbg !4407
  %189 = load ptr, ptr %188, align 4, !dbg !4407
  %190 = getelementptr inbounds %"class.std::__h::basic_filebuf", ptr %17, i32 0, i32 2, !dbg !4408
  %191 = call noundef ptr @_ZNKSt3__h15basic_streambufIcNS_11char_traitsIcEEE5ebackB6v15004Ev(ptr noundef nonnull align 4 dereferenceable(32) %17), !dbg !4409
  %192 = load i32, ptr %6, align 4, !dbg !4410
  %193 = getelementptr inbounds i8, ptr %191, i32 %192, !dbg !4411
  %194 = call noundef ptr @_ZNKSt3__h15basic_streambufIcNS_11char_traitsIcEEE5ebackB6v15004Ev(ptr noundef nonnull align 4 dereferenceable(32) %17), !dbg !4412
  %195 = getelementptr inbounds %"class.std::__h::basic_filebuf", ptr %17, i32 0, i32 7, !dbg !4413
  %196 = load i32, ptr %195, align 4, !dbg !4413
  %197 = getelementptr inbounds i8, ptr %194, i32 %196, !dbg !4414
  %198 = call noundef i32 @_ZNKSt3__h7codecvtIcc11__mbstate_tE2inB6v15004ERS1_PKcS5_RS5_PcS7_RS7_(ptr noundef nonnull align 4 dereferenceable(8) %184, ptr noundef nonnull align 4 dereferenceable(8) %185, ptr noundef %187, ptr noundef %189, ptr noundef nonnull align 4 dereferenceable(4) %190, ptr noundef %193, ptr noundef %197, ptr noundef nonnull align 4 dereferenceable(4) %16), !dbg !4415
  store i32 %198, ptr %14, align 4, !dbg !4416
  %199 = load i32, ptr %14, align 4, !dbg !4417
  %200 = icmp eq i32 %199, 3, !dbg !4419
  br i1 %200, label %201, label %211, !dbg !4420

201:                                              ; preds = %177
  %202 = getelementptr inbounds %"class.std::__h::basic_filebuf", ptr %17, i32 0, i32 1, !dbg !4421
  %203 = load ptr, ptr %202, align 4, !dbg !4421
  %204 = getelementptr inbounds %"class.std::__h::basic_filebuf", ptr %17, i32 0, i32 1, !dbg !4423
  %205 = load ptr, ptr %204, align 4, !dbg !4423
  %206 = getelementptr inbounds %"class.std::__h::basic_filebuf", ptr %17, i32 0, i32 3, !dbg !4424
  %207 = load ptr, ptr %206, align 4, !dbg !4424
  call void @_ZNSt3__h15basic_streambufIcNS_11char_traitsIcEEE4setgB6v15004EPcS4_S4_(ptr noundef nonnull align 4 dereferenceable(32) %17, ptr noundef %203, ptr noundef %205, ptr noundef %207), !dbg !4425
  %208 = call noundef ptr @_ZNKSt3__h15basic_streambufIcNS_11char_traitsIcEEE4gptrB6v15004Ev(ptr noundef nonnull align 4 dereferenceable(32) %17), !dbg !4426
  %209 = load i8, ptr %208, align 1, !dbg !4427
  %210 = call noundef i32 @_ZNSt3__h11char_traitsIcE11to_int_typeEc(i8 noundef zeroext %209) #12, !dbg !4428
  store i32 %210, ptr %9, align 4, !dbg !4429
  br label %227, !dbg !4430

211:                                              ; preds = %177
  %212 = load ptr, ptr %16, align 4, !dbg !4431
  %213 = call noundef ptr @_ZNKSt3__h15basic_streambufIcNS_11char_traitsIcEEE5ebackB6v15004Ev(ptr noundef nonnull align 4 dereferenceable(32) %17), !dbg !4433
  %214 = load i32, ptr %6, align 4, !dbg !4434
  %215 = getelementptr inbounds i8, ptr %213, i32 %214, !dbg !4435
  %216 = icmp ne ptr %212, %215, !dbg !4436
  br i1 %216, label %217, label %226, !dbg !4437

217:                                              ; preds = %211
  %218 = call noundef ptr @_ZNKSt3__h15basic_streambufIcNS_11char_traitsIcEEE5ebackB6v15004Ev(ptr noundef nonnull align 4 dereferenceable(32) %17), !dbg !4438
  %219 = call noundef ptr @_ZNKSt3__h15basic_streambufIcNS_11char_traitsIcEEE5ebackB6v15004Ev(ptr noundef nonnull align 4 dereferenceable(32) %17), !dbg !4440
  %220 = load i32, ptr %6, align 4, !dbg !4441
  %221 = getelementptr inbounds i8, ptr %219, i32 %220, !dbg !4442
  %222 = load ptr, ptr %16, align 4, !dbg !4443
  call void @_ZNSt3__h15basic_streambufIcNS_11char_traitsIcEEE4setgB6v15004EPcS4_S4_(ptr noundef nonnull align 4 dereferenceable(32) %17, ptr noundef %218, ptr noundef %221, ptr noundef %222), !dbg !4444
  %223 = call noundef ptr @_ZNKSt3__h15basic_streambufIcNS_11char_traitsIcEEE4gptrB6v15004Ev(ptr noundef nonnull align 4 dereferenceable(32) %17), !dbg !4445
  %224 = load i8, ptr %223, align 1, !dbg !4446
  %225 = call noundef i32 @_ZNSt3__h11char_traitsIcE11to_int_typeEc(i8 noundef zeroext %224) #12, !dbg !4447
  store i32 %225, ptr %9, align 4, !dbg !4448
  br label %226, !dbg !4449

226:                                              ; preds = %217, %211
  br label %227

227:                                              ; preds = %226, %201
  br label %228, !dbg !4450

228:                                              ; preds = %227, %145
  br label %229

229:                                              ; preds = %228, %91
  br label %234, !dbg !4451

230:                                              ; preds = %44
  %231 = call noundef ptr @_ZNKSt3__h15basic_streambufIcNS_11char_traitsIcEEE4gptrB6v15004Ev(ptr noundef nonnull align 4 dereferenceable(32) %17), !dbg !4452
  %232 = load i8, ptr %231, align 1, !dbg !4453
  %233 = call noundef i32 @_ZNSt3__h11char_traitsIcE11to_int_typeEc(i8 noundef zeroext %232) #12, !dbg !4454
  store i32 %233, ptr %9, align 4, !dbg !4455
  br label %234

234:                                              ; preds = %230, %229
  %235 = call noundef ptr @_ZNKSt3__h15basic_streambufIcNS_11char_traitsIcEEE5ebackB6v15004Ev(ptr noundef nonnull align 4 dereferenceable(32) %17), !dbg !4456
  %236 = icmp eq ptr %235, %5, !dbg !4458
  br i1 %236, label %237, label %238, !dbg !4459

237:                                              ; preds = %234
  call void @_ZNSt3__h15basic_streambufIcNS_11char_traitsIcEEE4setgB6v15004EPcS4_S4_(ptr noundef nonnull align 4 dereferenceable(32) %17, ptr noundef null, ptr noundef null, ptr noundef null), !dbg !4460
  br label %238, !dbg !4461

238:                                              ; preds = %237, %234
  %239 = load i32, ptr %9, align 4, !dbg !4462
  store i32 %239, ptr %2, align 4, !dbg !4463
  br label %240, !dbg !4463

240:                                              ; preds = %238, %21
  %241 = load i32, ptr %2, align 4, !dbg !4464
  ret i32 %241, !dbg !4464
}

declare noundef i32 @_ZNSt3__h15basic_streambufIcNS_11char_traitsIcEEE5uflowEv(ptr noundef nonnull align 4 dereferenceable(32)) unnamed_addr #5

; Function Attrs: mustprogress noinline nounwind optnone sspstrong uwtable(sync)
define linkonce_odr noundef i32 @_ZNSt3__h13basic_filebufIcNS_11char_traitsIcEEE9pbackfailEi(ptr noundef nonnull align 4 dereferenceable(99) %0, i32 noundef %1) unnamed_addr #0 comdat align 2 !dbg !4465 {
  %3 = alloca i32, align 4
  %4 = alloca ptr, align 4
  %5 = alloca i32, align 4
  store ptr %0, ptr %4, align 4
  call void @llvm.dbg.declare(metadata ptr %4, metadata !4466, metadata !DIExpression()), !dbg !4467
  store i32 %1, ptr %5, align 4
  call void @llvm.dbg.declare(metadata ptr %5, metadata !4468, metadata !DIExpression()), !dbg !4469
  %6 = load ptr, ptr %4, align 4
  %7 = getelementptr inbounds %"class.std::__h::basic_filebuf", ptr %6, i32 0, i32 8, !dbg !4470
  %8 = load ptr, ptr %7, align 4, !dbg !4470
  %9 = icmp ne ptr %8, null, !dbg !4470
  br i1 %9, label %10, label %39, !dbg !4472

10:                                               ; preds = %2
  %11 = call noundef ptr @_ZNKSt3__h15basic_streambufIcNS_11char_traitsIcEEE5ebackB6v15004Ev(ptr noundef nonnull align 4 dereferenceable(32) %6), !dbg !4473
  %12 = call noundef ptr @_ZNKSt3__h15basic_streambufIcNS_11char_traitsIcEEE4gptrB6v15004Ev(ptr noundef nonnull align 4 dereferenceable(32) %6), !dbg !4474
  %13 = icmp ult ptr %11, %12, !dbg !4475
  br i1 %13, label %14, label %39, !dbg !4476

14:                                               ; preds = %10
  %15 = load i32, ptr %5, align 4, !dbg !4477
  %16 = call noundef i32 @_ZNSt3__h11char_traitsIcE3eofEv() #12, !dbg !4480
  %17 = call noundef zeroext i1 @_ZNSt3__h11char_traitsIcE11eq_int_typeEii(i32 noundef %15, i32 noundef %16) #12, !dbg !4481
  br i1 %17, label %18, label %21, !dbg !4482

18:                                               ; preds = %14
  call void @_ZNSt3__h15basic_streambufIcNS_11char_traitsIcEEE5gbumpB6v15004Ei(ptr noundef nonnull align 4 dereferenceable(32) %6, i32 noundef -1), !dbg !4483
  %19 = load i32, ptr %5, align 4, !dbg !4485
  %20 = call noundef i32 @_ZNSt3__h11char_traitsIcE7not_eofEi(i32 noundef %19) #12, !dbg !4486
  store i32 %20, ptr %3, align 4, !dbg !4487
  br label %41, !dbg !4487

21:                                               ; preds = %14
  %22 = getelementptr inbounds %"class.std::__h::basic_filebuf", ptr %6, i32 0, i32 12, !dbg !4488
  %23 = load i32, ptr %22, align 4, !dbg !4488
  %24 = and i32 %23, 16, !dbg !4490
  %25 = icmp ne i32 %24, 0, !dbg !4491
  br i1 %25, label %33, label %26, !dbg !4492

26:                                               ; preds = %21
  %27 = load i32, ptr %5, align 4, !dbg !4493
  %28 = call noundef zeroext i8 @_ZNSt3__h11char_traitsIcE12to_char_typeEi(i32 noundef %27) #12, !dbg !4494
  %29 = call noundef ptr @_ZNKSt3__h15basic_streambufIcNS_11char_traitsIcEEE4gptrB6v15004Ev(ptr noundef nonnull align 4 dereferenceable(32) %6), !dbg !4495
  %30 = getelementptr inbounds i8, ptr %29, i32 -1, !dbg !4495
  %31 = load i8, ptr %30, align 1, !dbg !4495
  %32 = call noundef zeroext i1 @_ZNSt3__h11char_traitsIcE2eqEcc(i8 noundef zeroext %28, i8 noundef zeroext %31) #12, !dbg !4496
  br i1 %32, label %33, label %38, !dbg !4497

33:                                               ; preds = %26, %21
  call void @_ZNSt3__h15basic_streambufIcNS_11char_traitsIcEEE5gbumpB6v15004Ei(ptr noundef nonnull align 4 dereferenceable(32) %6, i32 noundef -1), !dbg !4498
  %34 = load i32, ptr %5, align 4, !dbg !4500
  %35 = call noundef zeroext i8 @_ZNSt3__h11char_traitsIcE12to_char_typeEi(i32 noundef %34) #12, !dbg !4501
  %36 = call noundef ptr @_ZNKSt3__h15basic_streambufIcNS_11char_traitsIcEEE4gptrB6v15004Ev(ptr noundef nonnull align 4 dereferenceable(32) %6), !dbg !4502
  store i8 %35, ptr %36, align 1, !dbg !4503
  %37 = load i32, ptr %5, align 4, !dbg !4504
  store i32 %37, ptr %3, align 4, !dbg !4505
  br label %41, !dbg !4505

38:                                               ; preds = %26
  br label %39, !dbg !4506

39:                                               ; preds = %38, %10, %2
  %40 = call noundef i32 @_ZNSt3__h11char_traitsIcE3eofEv() #12, !dbg !4507
  store i32 %40, ptr %3, align 4, !dbg !4508
  br label %41, !dbg !4508

41:                                               ; preds = %39, %33, %18
  %42 = load i32, ptr %3, align 4, !dbg !4509
  ret i32 %42, !dbg !4509
}

declare noundef i32 @_ZNSt3__h15basic_streambufIcNS_11char_traitsIcEEE6xsputnEPKci(ptr noundef nonnull align 4 dereferenceable(32), ptr noundef, i32 noundef) unnamed_addr #5

; Function Attrs: mustprogress noinline nounwind optnone sspstrong uwtable(sync)
define linkonce_odr noundef i32 @_ZNSt3__h13basic_filebufIcNS_11char_traitsIcEEE8overflowEi(ptr noundef nonnull align 4 dereferenceable(99) %0, i32 noundef %1) unnamed_addr #0 comdat align 2 !dbg !4510 {
  %3 = alloca i32, align 4
  %4 = alloca ptr, align 4
  %5 = alloca i32, align 4
  %6 = alloca i8, align 1
  %7 = alloca ptr, align 4
  %8 = alloca ptr, align 4
  %9 = alloca i32, align 4
  %10 = alloca ptr, align 4
  %11 = alloca i32, align 4
  %12 = alloca ptr, align 4
  %13 = alloca i32, align 4
  %14 = alloca i32, align 4
  store ptr %0, ptr %4, align 4
  call void @llvm.dbg.declare(metadata ptr %4, metadata !4511, metadata !DIExpression()), !dbg !4512
  store i32 %1, ptr %5, align 4
  call void @llvm.dbg.declare(metadata ptr %5, metadata !4513, metadata !DIExpression()), !dbg !4514
  %15 = load ptr, ptr %4, align 4
  %16 = getelementptr inbounds %"class.std::__h::basic_filebuf", ptr %15, i32 0, i32 8, !dbg !4515
  %17 = load ptr, ptr %16, align 4, !dbg !4515
  %18 = icmp eq ptr %17, null, !dbg !4517
  br i1 %18, label %19, label %21, !dbg !4518

19:                                               ; preds = %2
  %20 = call noundef i32 @_ZNSt3__h11char_traitsIcE3eofEv() #12, !dbg !4519
  store i32 %20, ptr %3, align 4, !dbg !4520
  br label %155, !dbg !4520

21:                                               ; preds = %2
  call void @_ZNSt3__h13basic_filebufIcNS_11char_traitsIcEEE12__write_modeEv(ptr noundef nonnull align 4 dereferenceable(99) %15), !dbg !4521
  call void @llvm.dbg.declare(metadata ptr %6, metadata !4522, metadata !DIExpression()), !dbg !4523
  store i8 0, ptr %6, align 1, !dbg !4523, !annotation !3270
  call void @llvm.dbg.declare(metadata ptr %7, metadata !4524, metadata !DIExpression()), !dbg !4525
  store ptr null, ptr %7, align 4, !dbg !4525, !annotation !3270
  %22 = call noundef ptr @_ZNKSt3__h15basic_streambufIcNS_11char_traitsIcEEE5pbaseB6v15004Ev(ptr noundef nonnull align 4 dereferenceable(32) %15), !dbg !4526
  store ptr %22, ptr %7, align 4, !dbg !4525
  call void @llvm.dbg.declare(metadata ptr %8, metadata !4527, metadata !DIExpression()), !dbg !4528
  store ptr null, ptr %8, align 4, !dbg !4528, !annotation !3270
  %23 = call noundef ptr @_ZNKSt3__h15basic_streambufIcNS_11char_traitsIcEEE5epptrB6v15004Ev(ptr noundef nonnull align 4 dereferenceable(32) %15), !dbg !4529
  store ptr %23, ptr %8, align 4, !dbg !4528
  %24 = load i32, ptr %5, align 4, !dbg !4530
  %25 = call noundef i32 @_ZNSt3__h11char_traitsIcE3eofEv() #12, !dbg !4532
  %26 = call noundef zeroext i1 @_ZNSt3__h11char_traitsIcE11eq_int_typeEii(i32 noundef %24, i32 noundef %25) #12, !dbg !4533
  br i1 %26, label %36, label %27, !dbg !4534

27:                                               ; preds = %21
  %28 = call noundef ptr @_ZNKSt3__h15basic_streambufIcNS_11char_traitsIcEEE4pptrB6v15004Ev(ptr noundef nonnull align 4 dereferenceable(32) %15), !dbg !4535
  %29 = icmp eq ptr %28, null, !dbg !4538
  br i1 %29, label %30, label %32, !dbg !4539

30:                                               ; preds = %27
  %31 = getelementptr inbounds i8, ptr %6, i32 1, !dbg !4540
  call void @_ZNSt3__h15basic_streambufIcNS_11char_traitsIcEEE4setpB6v15004EPcS4_(ptr noundef nonnull align 4 dereferenceable(32) %15, ptr noundef %6, ptr noundef %31), !dbg !4541
  br label %32, !dbg !4542

32:                                               ; preds = %30, %27
  %33 = load i32, ptr %5, align 4, !dbg !4543
  %34 = call noundef zeroext i8 @_ZNSt3__h11char_traitsIcE12to_char_typeEi(i32 noundef %33) #12, !dbg !4544
  %35 = call noundef ptr @_ZNKSt3__h15basic_streambufIcNS_11char_traitsIcEEE4pptrB6v15004Ev(ptr noundef nonnull align 4 dereferenceable(32) %15), !dbg !4545
  store i8 %34, ptr %35, align 1, !dbg !4546
  call void @_ZNSt3__h15basic_streambufIcNS_11char_traitsIcEEE5pbumpB6v15004Ei(ptr noundef nonnull align 4 dereferenceable(32) %15, i32 noundef 1), !dbg !4547
  br label %36, !dbg !4548

36:                                               ; preds = %32, %21
  %37 = call noundef ptr @_ZNKSt3__h15basic_streambufIcNS_11char_traitsIcEEE4pptrB6v15004Ev(ptr noundef nonnull align 4 dereferenceable(32) %15), !dbg !4549
  %38 = call noundef ptr @_ZNKSt3__h15basic_streambufIcNS_11char_traitsIcEEE5pbaseB6v15004Ev(ptr noundef nonnull align 4 dereferenceable(32) %15), !dbg !4551
  %39 = icmp ne ptr %37, %38, !dbg !4552
  br i1 %39, label %40, label %152, !dbg !4553

40:                                               ; preds = %36
  %41 = getelementptr inbounds %"class.std::__h::basic_filebuf", ptr %15, i32 0, i32 16, !dbg !4554
  %42 = load i8, ptr %41, align 2, !dbg !4554
  %43 = trunc i8 %42 to i1, !dbg !4554
  br i1 %43, label %44, label %60, !dbg !4557

44:                                               ; preds = %40
  call void @llvm.dbg.declare(metadata ptr %9, metadata !4558, metadata !DIExpression()), !dbg !4560
  store i32 0, ptr %9, align 4, !dbg !4560, !annotation !3270
  %45 = call noundef ptr @_ZNKSt3__h15basic_streambufIcNS_11char_traitsIcEEE4pptrB6v15004Ev(ptr noundef nonnull align 4 dereferenceable(32) %15), !dbg !4561
  %46 = call noundef ptr @_ZNKSt3__h15basic_streambufIcNS_11char_traitsIcEEE5pbaseB6v15004Ev(ptr noundef nonnull align 4 dereferenceable(32) %15), !dbg !4562
  %47 = ptrtoint ptr %45 to i32, !dbg !4563
  %48 = ptrtoint ptr %46 to i32, !dbg !4563
  %49 = sub i32 %47, %48, !dbg !4563
  store i32 %49, ptr %9, align 4, !dbg !4560
  %50 = call noundef ptr @_ZNKSt3__h15basic_streambufIcNS_11char_traitsIcEEE5pbaseB6v15004Ev(ptr noundef nonnull align 4 dereferenceable(32) %15), !dbg !4564
  %51 = load i32, ptr %9, align 4, !dbg !4566
  %52 = getelementptr inbounds %"class.std::__h::basic_filebuf", ptr %15, i32 0, i32 8, !dbg !4567
  %53 = load ptr, ptr %52, align 4, !dbg !4567
  %54 = call i32 @fwrite(ptr noundef %50, i32 noundef 1, i32 noundef %51, ptr noundef %53), !dbg !4568
  %55 = load i32, ptr %9, align 4, !dbg !4569
  %56 = icmp ne i32 %54, %55, !dbg !4570
  br i1 %56, label %57, label %59, !dbg !4571

57:                                               ; preds = %44
  %58 = call noundef i32 @_ZNSt3__h11char_traitsIcE3eofEv() #12, !dbg !4572
  store i32 %58, ptr %3, align 4, !dbg !4573
  br label %155, !dbg !4573

59:                                               ; preds = %44
  br label %149, !dbg !4574

60:                                               ; preds = %40
  call void @llvm.dbg.declare(metadata ptr %10, metadata !4575, metadata !DIExpression()), !dbg !4577
  store ptr null, ptr %10, align 4, !dbg !4577, !annotation !3270
  %61 = getelementptr inbounds %"class.std::__h::basic_filebuf", ptr %15, i32 0, i32 1, !dbg !4578
  %62 = load ptr, ptr %61, align 4, !dbg !4578
  store ptr %62, ptr %10, align 4, !dbg !4577
  call void @llvm.dbg.declare(metadata ptr %11, metadata !4579, metadata !DIExpression()), !dbg !4580
  store i32 0, ptr %11, align 4, !dbg !4580, !annotation !3270
  br label %63, !dbg !4581

63:                                               ; preds = %145, %60
  %64 = getelementptr inbounds %"class.std::__h::basic_filebuf", ptr %15, i32 0, i32 9, !dbg !4582
  %65 = load ptr, ptr %64, align 4, !dbg !4582
  %66 = icmp ne ptr %65, null, !dbg !4582
  br i1 %66, label %68, label %67, !dbg !4585

67:                                               ; preds = %63
  call void @_ZNSt3__h16__throw_bad_castB6v15004Ev() #15, !dbg !4586
  unreachable, !dbg !4586

68:                                               ; preds = %63
  call void @llvm.dbg.declare(metadata ptr %12, metadata !4587, metadata !DIExpression()), !dbg !4590
  store ptr null, ptr %12, align 4, !dbg !4590, !annotation !3270
  %69 = getelementptr inbounds %"class.std::__h::basic_filebuf", ptr %15, i32 0, i32 9, !dbg !4591
  %70 = load ptr, ptr %69, align 4, !dbg !4591
  %71 = getelementptr inbounds %"class.std::__h::basic_filebuf", ptr %15, i32 0, i32 10, !dbg !4592
  %72 = call noundef ptr @_ZNKSt3__h15basic_streambufIcNS_11char_traitsIcEEE5pbaseB6v15004Ev(ptr noundef nonnull align 4 dereferenceable(32) %15), !dbg !4593
  %73 = call noundef ptr @_ZNKSt3__h15basic_streambufIcNS_11char_traitsIcEEE4pptrB6v15004Ev(ptr noundef nonnull align 4 dereferenceable(32) %15), !dbg !4594
  %74 = getelementptr inbounds %"class.std::__h::basic_filebuf", ptr %15, i32 0, i32 1, !dbg !4595
  %75 = load ptr, ptr %74, align 4, !dbg !4595
  %76 = getelementptr inbounds %"class.std::__h::basic_filebuf", ptr %15, i32 0, i32 1, !dbg !4596
  %77 = load ptr, ptr %76, align 4, !dbg !4596
  %78 = getelementptr inbounds %"class.std::__h::basic_filebuf", ptr %15, i32 0, i32 5, !dbg !4597
  %79 = load i32, ptr %78, align 4, !dbg !4597
  %80 = getelementptr inbounds i8, ptr %77, i32 %79, !dbg !4598
  %81 = call noundef i32 @_ZNKSt3__h7codecvtIcc11__mbstate_tE3outB6v15004ERS1_PKcS5_RS5_PcS7_RS7_(ptr noundef nonnull align 4 dereferenceable(8) %70, ptr noundef nonnull align 4 dereferenceable(8) %71, ptr noundef %72, ptr noundef %73, ptr noundef nonnull align 4 dereferenceable(4) %12, ptr noundef %75, ptr noundef %80, ptr noundef nonnull align 4 dereferenceable(4) %10), !dbg !4599
  store i32 %81, ptr %11, align 4, !dbg !4600
  %82 = load ptr, ptr %12, align 4, !dbg !4601
  %83 = call noundef ptr @_ZNKSt3__h15basic_streambufIcNS_11char_traitsIcEEE5pbaseB6v15004Ev(ptr noundef nonnull align 4 dereferenceable(32) %15), !dbg !4603
  %84 = icmp eq ptr %82, %83, !dbg !4604
  br i1 %84, label %85, label %87, !dbg !4605

85:                                               ; preds = %68
  %86 = call noundef i32 @_ZNSt3__h11char_traitsIcE3eofEv() #12, !dbg !4606
  store i32 %86, ptr %3, align 4, !dbg !4607
  br label %155, !dbg !4607

87:                                               ; preds = %68
  %88 = load i32, ptr %11, align 4, !dbg !4608
  %89 = icmp eq i32 %88, 3, !dbg !4610
  br i1 %89, label %90, label %106, !dbg !4611

90:                                               ; preds = %87
  call void @llvm.dbg.declare(metadata ptr %13, metadata !4612, metadata !DIExpression()), !dbg !4614
  store i32 0, ptr %13, align 4, !dbg !4614, !annotation !3270
  %91 = call noundef ptr @_ZNKSt3__h15basic_streambufIcNS_11char_traitsIcEEE4pptrB6v15004Ev(ptr noundef nonnull align 4 dereferenceable(32) %15), !dbg !4615
  %92 = call noundef ptr @_ZNKSt3__h15basic_streambufIcNS_11char_traitsIcEEE5pbaseB6v15004Ev(ptr noundef nonnull align 4 dereferenceable(32) %15), !dbg !4616
  %93 = ptrtoint ptr %91 to i32, !dbg !4617
  %94 = ptrtoint ptr %92 to i32, !dbg !4617
  %95 = sub i32 %93, %94, !dbg !4617
  store i32 %95, ptr %13, align 4, !dbg !4614
  %96 = call noundef ptr @_ZNKSt3__h15basic_streambufIcNS_11char_traitsIcEEE5pbaseB6v15004Ev(ptr noundef nonnull align 4 dereferenceable(32) %15), !dbg !4618
  %97 = load i32, ptr %13, align 4, !dbg !4620
  %98 = getelementptr inbounds %"class.std::__h::basic_filebuf", ptr %15, i32 0, i32 8, !dbg !4621
  %99 = load ptr, ptr %98, align 4, !dbg !4621
  %100 = call i32 @fwrite(ptr noundef %96, i32 noundef 1, i32 noundef %97, ptr noundef %99), !dbg !4622
  %101 = load i32, ptr %13, align 4, !dbg !4623
  %102 = icmp ne i32 %100, %101, !dbg !4624
  br i1 %102, label %103, label %105, !dbg !4625

103:                                              ; preds = %90
  %104 = call noundef i32 @_ZNSt3__h11char_traitsIcE3eofEv() #12, !dbg !4626
  store i32 %104, ptr %3, align 4, !dbg !4627
  br label %155, !dbg !4627

105:                                              ; preds = %90
  br label %144, !dbg !4628

106:                                              ; preds = %87
  %107 = load i32, ptr %11, align 4, !dbg !4629
  %108 = icmp eq i32 %107, 0, !dbg !4631
  br i1 %108, label %112, label %109, !dbg !4632

109:                                              ; preds = %106
  %110 = load i32, ptr %11, align 4, !dbg !4633
  %111 = icmp eq i32 %110, 1, !dbg !4634
  br i1 %111, label %112, label %141, !dbg !4635

112:                                              ; preds = %109, %106
  call void @llvm.dbg.declare(metadata ptr %14, metadata !4636, metadata !DIExpression()), !dbg !4638
  store i32 0, ptr %14, align 4, !dbg !4638, !annotation !3270
  %113 = load ptr, ptr %10, align 4, !dbg !4639
  %114 = getelementptr inbounds %"class.std::__h::basic_filebuf", ptr %15, i32 0, i32 1, !dbg !4640
  %115 = load ptr, ptr %114, align 4, !dbg !4640
  %116 = ptrtoint ptr %113 to i32, !dbg !4641
  %117 = ptrtoint ptr %115 to i32, !dbg !4641
  %118 = sub i32 %116, %117, !dbg !4641
  store i32 %118, ptr %14, align 4, !dbg !4638
  %119 = getelementptr inbounds %"class.std::__h::basic_filebuf", ptr %15, i32 0, i32 1, !dbg !4642
  %120 = load ptr, ptr %119, align 4, !dbg !4642
  %121 = load i32, ptr %14, align 4, !dbg !4644
  %122 = getelementptr inbounds %"class.std::__h::basic_filebuf", ptr %15, i32 0, i32 8, !dbg !4645
  %123 = load ptr, ptr %122, align 4, !dbg !4645
  %124 = call i32 @fwrite(ptr noundef %120, i32 noundef 1, i32 noundef %121, ptr noundef %123), !dbg !4646
  %125 = load i32, ptr %14, align 4, !dbg !4647
  %126 = icmp ne i32 %124, %125, !dbg !4648
  br i1 %126, label %127, label %129, !dbg !4649

127:                                              ; preds = %112
  %128 = call noundef i32 @_ZNSt3__h11char_traitsIcE3eofEv() #12, !dbg !4650
  store i32 %128, ptr %3, align 4, !dbg !4651
  br label %155, !dbg !4651

129:                                              ; preds = %112
  %130 = load i32, ptr %11, align 4, !dbg !4652
  %131 = icmp eq i32 %130, 1, !dbg !4654
  br i1 %131, label %132, label %140, !dbg !4655

132:                                              ; preds = %129
  %133 = load ptr, ptr %12, align 4, !dbg !4656
  %134 = call noundef ptr @_ZNKSt3__h15basic_streambufIcNS_11char_traitsIcEEE4pptrB6v15004Ev(ptr noundef nonnull align 4 dereferenceable(32) %15), !dbg !4658
  call void @_ZNSt3__h15basic_streambufIcNS_11char_traitsIcEEE4setpB6v15004EPcS4_(ptr noundef nonnull align 4 dereferenceable(32) %15, ptr noundef %133, ptr noundef %134), !dbg !4659
  %135 = call noundef ptr @_ZNKSt3__h15basic_streambufIcNS_11char_traitsIcEEE5epptrB6v15004Ev(ptr noundef nonnull align 4 dereferenceable(32) %15), !dbg !4660
  %136 = call noundef ptr @_ZNKSt3__h15basic_streambufIcNS_11char_traitsIcEEE5pbaseB6v15004Ev(ptr noundef nonnull align 4 dereferenceable(32) %15), !dbg !4661
  %137 = ptrtoint ptr %135 to i32, !dbg !4662
  %138 = ptrtoint ptr %136 to i32, !dbg !4662
  %139 = sub i32 %137, %138, !dbg !4662
  call void @_ZNSt3__h15basic_streambufIcNS_11char_traitsIcEEE7__pbumpB6v15004Ei(ptr noundef nonnull align 4 dereferenceable(32) %15, i32 noundef %139), !dbg !4663
  br label %140, !dbg !4664

140:                                              ; preds = %132, %129
  br label %143, !dbg !4665

141:                                              ; preds = %109
  %142 = call noundef i32 @_ZNSt3__h11char_traitsIcE3eofEv() #12, !dbg !4666
  store i32 %142, ptr %3, align 4, !dbg !4667
  br label %155, !dbg !4667

143:                                              ; preds = %140
  br label %144

144:                                              ; preds = %143, %105
  br label %145, !dbg !4668

145:                                              ; preds = %144
  %146 = load i32, ptr %11, align 4, !dbg !4669
  %147 = icmp eq i32 %146, 1, !dbg !4670
  br i1 %147, label %63, label %148, !dbg !4668, !llvm.loop !4671

148:                                              ; preds = %145
  br label %149

149:                                              ; preds = %148, %59
  %150 = load ptr, ptr %7, align 4, !dbg !4673
  %151 = load ptr, ptr %8, align 4, !dbg !4674
  call void @_ZNSt3__h15basic_streambufIcNS_11char_traitsIcEEE4setpB6v15004EPcS4_(ptr noundef nonnull align 4 dereferenceable(32) %15, ptr noundef %150, ptr noundef %151), !dbg !4675
  br label %152, !dbg !4676

152:                                              ; preds = %149, %36
  %153 = load i32, ptr %5, align 4, !dbg !4677
  %154 = call noundef i32 @_ZNSt3__h11char_traitsIcE7not_eofEi(i32 noundef %153) #12, !dbg !4678
  store i32 %154, ptr %3, align 4, !dbg !4679
  br label %155, !dbg !4679

155:                                              ; preds = %152, %141, %127, %103, %85, %57, %19
  %156 = load i32, ptr %3, align 4, !dbg !4680
  ret i32 %156, !dbg !4680
}

; Function Attrs: noinline nounwind optnone sspstrong uwtable(sync)
define linkonce_odr hidden noundef ptr @_ZNSt3__h10unique_ptrI8_IO_FILEPFiPS1_EEC2B6v15004ILb1EvEES2_NS_16__dependent_typeINS_27__unique_ptr_deleter_sfinaeIS4_EEXT_EE20__good_rval_ref_typeE(ptr noundef nonnull returned align 4 dereferenceable(8) %0, ptr noundef %1, ptr noundef nonnull align 4 dereferenceable(4) %2) unnamed_addr #3 comdat align 2 !dbg !4681 {
  %4 = alloca ptr, align 4
  %5 = alloca ptr, align 4
  %6 = alloca ptr, align 4
  store ptr %0, ptr %4, align 4
  call void @llvm.dbg.declare(metadata ptr %4, metadata !4693, metadata !DIExpression()), !dbg !4695
  store ptr %1, ptr %5, align 4
  call void @llvm.dbg.declare(metadata ptr %5, metadata !4696, metadata !DIExpression()), !dbg !4697
  store ptr %2, ptr %6, align 4
  call void @llvm.dbg.declare(metadata ptr %6, metadata !4698, metadata !DIExpression()), !dbg !4699
  %7 = load ptr, ptr %4, align 4
  %8 = getelementptr inbounds %"class.std::__h::unique_ptr", ptr %7, i32 0, i32 0, !dbg !4700
  %9 = load ptr, ptr %6, align 4, !dbg !4701
  %10 = call noundef ptr @_ZNSt3__h17__compressed_pairIP8_IO_FILEPFiS2_EEC2B6v15004IRS2_S4_EEOT_OT0_(ptr noundef nonnull align 4 dereferenceable(8) %8, ptr noundef nonnull align 4 dereferenceable(4) %5, ptr noundef nonnull align 4 dereferenceable(4) %9), !dbg !4700
  ret ptr %7, !dbg !4702
}

; Function Attrs: mustprogress noinline nounwind optnone sspstrong uwtable(sync)
define linkonce_odr hidden noundef ptr @_ZNSt3__h10unique_ptrI8_IO_FILEPFiPS1_EE7releaseB6v15004Ev(ptr noundef nonnull align 4 dereferenceable(8) %0) #0 comdat align 2 !dbg !4703 {
  %2 = alloca ptr, align 4
  %3 = alloca ptr, align 4
  store ptr %0, ptr %2, align 4
  call void @llvm.dbg.declare(metadata ptr %2, metadata !4704, metadata !DIExpression()), !dbg !4705
  %4 = load ptr, ptr %2, align 4
  call void @llvm.dbg.declare(metadata ptr %3, metadata !4706, metadata !DIExpression()), !dbg !4707
  store ptr null, ptr %3, align 4, !dbg !4707, !annotation !3270
  %5 = getelementptr inbounds %"class.std::__h::unique_ptr", ptr %4, i32 0, i32 0, !dbg !4708
  %6 = call noundef nonnull align 4 dereferenceable(4) ptr @_ZNSt3__h17__compressed_pairIP8_IO_FILEPFiS2_EE5firstB6v15004Ev(ptr noundef nonnull align 4 dereferenceable(8) %5) #12, !dbg !4709
  %7 = load ptr, ptr %6, align 4, !dbg !4709
  store ptr %7, ptr %3, align 4, !dbg !4707
  %8 = getelementptr inbounds %"class.std::__h::unique_ptr", ptr %4, i32 0, i32 0, !dbg !4710
  %9 = call noundef nonnull align 4 dereferenceable(4) ptr @_ZNSt3__h17__compressed_pairIP8_IO_FILEPFiS2_EE5firstB6v15004Ev(ptr noundef nonnull align 4 dereferenceable(8) %8) #12, !dbg !4711
  store ptr null, ptr %9, align 4, !dbg !4712
  %10 = load ptr, ptr %3, align 4, !dbg !4713
  ret ptr %10, !dbg !4714
}

; Function Attrs: noinline nounwind optnone sspstrong uwtable(sync)
define linkonce_odr hidden noundef ptr @_ZNSt3__h10unique_ptrI8_IO_FILEPFiPS1_EED2B6v15004Ev(ptr noundef nonnull returned align 4 dereferenceable(8) %0) unnamed_addr #3 comdat align 2 !dbg !4715 {
  %2 = alloca ptr, align 4
  store ptr %0, ptr %2, align 4
  call void @llvm.dbg.declare(metadata ptr %2, metadata !4716, metadata !DIExpression()), !dbg !4717
  %3 = load ptr, ptr %2, align 4
  call void @_ZNSt3__h10unique_ptrI8_IO_FILEPFiPS1_EE5resetB6v15004ES2_(ptr noundef nonnull align 4 dereferenceable(8) %3, ptr noundef null) #12, !dbg !4718
  ret ptr %3, !dbg !4720
}

; Function Attrs: noinline nounwind optnone sspstrong uwtable(sync)
define linkonce_odr hidden noundef ptr @_ZNSt3__h17__compressed_pairIP8_IO_FILEPFiS2_EEC2B6v15004IRS2_S4_EEOT_OT0_(ptr noundef nonnull returned align 4 dereferenceable(8) %0, ptr noundef nonnull align 4 dereferenceable(4) %1, ptr noundef nonnull align 4 dereferenceable(4) %2) unnamed_addr #3 comdat align 2 !dbg !4721 {
  %4 = alloca ptr, align 4
  %5 = alloca ptr, align 4
  %6 = alloca ptr, align 4
  store ptr %0, ptr %4, align 4
  call void @llvm.dbg.declare(metadata ptr %4, metadata !4728, metadata !DIExpression()), !dbg !4729
  store ptr %1, ptr %5, align 4
  call void @llvm.dbg.declare(metadata ptr %5, metadata !4730, metadata !DIExpression()), !dbg !4731
  store ptr %2, ptr %6, align 4
  call void @llvm.dbg.declare(metadata ptr %6, metadata !4732, metadata !DIExpression()), !dbg !4733
  %7 = load ptr, ptr %4, align 4
  %8 = load ptr, ptr %5, align 4, !dbg !4734
  %9 = call noundef ptr @_ZNSt3__h22__compressed_pair_elemIP8_IO_FILELi0ELb0EEC2B6v15004IRS2_vEEOT_(ptr noundef nonnull align 4 dereferenceable(4) %7, ptr noundef nonnull align 4 dereferenceable(4) %8), !dbg !4735
  %10 = getelementptr inbounds i8, ptr %7, i32 4, !dbg !4736
  %11 = load ptr, ptr %6, align 4, !dbg !4737
  %12 = call noundef ptr @_ZNSt3__h22__compressed_pair_elemIPFiP8_IO_FILEELi1ELb0EEC2B6v15004IS4_vEEOT_(ptr noundef nonnull align 4 dereferenceable(4) %10, ptr noundef nonnull align 4 dereferenceable(4) %11), !dbg !4738
  ret ptr %7, !dbg !4739
}

; Function Attrs: noinline nounwind optnone sspstrong uwtable(sync)
define linkonce_odr hidden noundef ptr @_ZNSt3__h22__compressed_pair_elemIP8_IO_FILELi0ELb0EEC2B6v15004IRS2_vEEOT_(ptr noundef nonnull returned align 4 dereferenceable(4) %0, ptr noundef nonnull align 4 dereferenceable(4) %1) unnamed_addr #3 comdat align 2 !dbg !4740 {
  %3 = alloca ptr, align 4
  %4 = alloca ptr, align 4
  store ptr %0, ptr %3, align 4
  call void @llvm.dbg.declare(metadata ptr %3, metadata !4746, metadata !DIExpression()), !dbg !4747
  store ptr %1, ptr %4, align 4
  call void @llvm.dbg.declare(metadata ptr %4, metadata !4748, metadata !DIExpression()), !dbg !4749
  %5 = load ptr, ptr %3, align 4
  %6 = getelementptr inbounds %"struct.std::__h::__compressed_pair_elem.3", ptr %5, i32 0, i32 0, !dbg !4750
  %7 = load ptr, ptr %4, align 4, !dbg !4751
  %8 = load ptr, ptr %7, align 4, !dbg !4752
  store ptr %8, ptr %6, align 4, !dbg !4750
  ret ptr %5, !dbg !4753
}

; Function Attrs: noinline nounwind optnone sspstrong uwtable(sync)
define linkonce_odr hidden noundef ptr @_ZNSt3__h22__compressed_pair_elemIPFiP8_IO_FILEELi1ELb0EEC2B6v15004IS4_vEEOT_(ptr noundef nonnull returned align 4 dereferenceable(4) %0, ptr noundef nonnull align 4 dereferenceable(4) %1) unnamed_addr #3 comdat align 2 !dbg !4754 {
  %3 = alloca ptr, align 4
  %4 = alloca ptr, align 4
  store ptr %0, ptr %3, align 4
  call void @llvm.dbg.declare(metadata ptr %3, metadata !4760, metadata !DIExpression()), !dbg !4761
  store ptr %1, ptr %4, align 4
  call void @llvm.dbg.declare(metadata ptr %4, metadata !4762, metadata !DIExpression()), !dbg !4763
  %5 = load ptr, ptr %3, align 4
  %6 = getelementptr inbounds %"struct.std::__h::__compressed_pair_elem.4", ptr %5, i32 0, i32 0, !dbg !4764
  %7 = load ptr, ptr %4, align 4, !dbg !4765
  %8 = load ptr, ptr %7, align 4, !dbg !4766
  store ptr %8, ptr %6, align 4, !dbg !4764
  ret ptr %5, !dbg !4767
}

; Function Attrs: mustprogress noinline nounwind optnone sspstrong uwtable(sync)
define linkonce_odr hidden noundef nonnull align 4 dereferenceable(4) ptr @_ZNSt3__h17__compressed_pairIP8_IO_FILEPFiS2_EE5firstB6v15004Ev(ptr noundef nonnull align 4 dereferenceable(8) %0) #0 comdat align 2 !dbg !4768 {
  %2 = alloca ptr, align 4
  store ptr %0, ptr %2, align 4
  call void @llvm.dbg.declare(metadata ptr %2, metadata !4769, metadata !DIExpression()), !dbg !4770
  %3 = load ptr, ptr %2, align 4
  %4 = call noundef nonnull align 4 dereferenceable(4) ptr @_ZNSt3__h22__compressed_pair_elemIP8_IO_FILELi0ELb0EE5__getB6v15004Ev(ptr noundef nonnull align 4 dereferenceable(4) %3) #12, !dbg !4771
  ret ptr %4, !dbg !4772
}

; Function Attrs: mustprogress noinline nounwind optnone sspstrong uwtable(sync)
define linkonce_odr hidden noundef nonnull align 4 dereferenceable(4) ptr @_ZNSt3__h22__compressed_pair_elemIP8_IO_FILELi0ELb0EE5__getB6v15004Ev(ptr noundef nonnull align 4 dereferenceable(4) %0) #0 comdat align 2 !dbg !4773 {
  %2 = alloca ptr, align 4
  store ptr %0, ptr %2, align 4
  call void @llvm.dbg.declare(metadata ptr %2, metadata !4774, metadata !DIExpression()), !dbg !4775
  %3 = load ptr, ptr %2, align 4
  %4 = getelementptr inbounds %"struct.std::__h::__compressed_pair_elem.3", ptr %3, i32 0, i32 0, !dbg !4776
  ret ptr %4, !dbg !4777
}

; Function Attrs: mustprogress noinline nounwind optnone sspstrong uwtable(sync)
define linkonce_odr hidden void @_ZNSt3__h10unique_ptrI8_IO_FILEPFiPS1_EE5resetB6v15004ES2_(ptr noundef nonnull align 4 dereferenceable(8) %0, ptr noundef %1) #0 comdat align 2 !dbg !4778 {
  %3 = alloca ptr, align 4
  %4 = alloca ptr, align 4
  %5 = alloca ptr, align 4
  store ptr %0, ptr %3, align 4
  call void @llvm.dbg.declare(metadata ptr %3, metadata !4779, metadata !DIExpression()), !dbg !4780
  store ptr %1, ptr %4, align 4
  call void @llvm.dbg.declare(metadata ptr %4, metadata !4781, metadata !DIExpression()), !dbg !4782
  %6 = load ptr, ptr %3, align 4
  call void @llvm.dbg.declare(metadata ptr %5, metadata !4783, metadata !DIExpression()), !dbg !4784
  store ptr null, ptr %5, align 4, !dbg !4784, !annotation !3270
  %7 = getelementptr inbounds %"class.std::__h::unique_ptr", ptr %6, i32 0, i32 0, !dbg !4785
  %8 = call noundef nonnull align 4 dereferenceable(4) ptr @_ZNSt3__h17__compressed_pairIP8_IO_FILEPFiS2_EE5firstB6v15004Ev(ptr noundef nonnull align 4 dereferenceable(8) %7) #12, !dbg !4786
  %9 = load ptr, ptr %8, align 4, !dbg !4786
  store ptr %9, ptr %5, align 4, !dbg !4784
  %10 = load ptr, ptr %4, align 4, !dbg !4787
  %11 = getelementptr inbounds %"class.std::__h::unique_ptr", ptr %6, i32 0, i32 0, !dbg !4788
  %12 = call noundef nonnull align 4 dereferenceable(4) ptr @_ZNSt3__h17__compressed_pairIP8_IO_FILEPFiS2_EE5firstB6v15004Ev(ptr noundef nonnull align 4 dereferenceable(8) %11) #12, !dbg !4789
  store ptr %10, ptr %12, align 4, !dbg !4790
  %13 = load ptr, ptr %5, align 4, !dbg !4791
  %14 = icmp ne ptr %13, null, !dbg !4791
  br i1 %14, label %15, label %21, !dbg !4793

15:                                               ; preds = %2
  %16 = getelementptr inbounds %"class.std::__h::unique_ptr", ptr %6, i32 0, i32 0, !dbg !4794
  %17 = call noundef nonnull align 4 dereferenceable(4) ptr @_ZNSt3__h17__compressed_pairIP8_IO_FILEPFiS2_EE6secondB6v15004Ev(ptr noundef nonnull align 4 dereferenceable(8) %16) #12, !dbg !4795
  %18 = load ptr, ptr %17, align 4, !dbg !4795
  %19 = load ptr, ptr %5, align 4, !dbg !4796
  %20 = call noundef i32 %18(ptr noundef %19), !dbg !4794
  br label %21, !dbg !4794

21:                                               ; preds = %15, %2
  ret void, !dbg !4797
}

; Function Attrs: mustprogress noinline nounwind optnone sspstrong uwtable(sync)
define linkonce_odr hidden noundef nonnull align 4 dereferenceable(4) ptr @_ZNSt3__h17__compressed_pairIP8_IO_FILEPFiS2_EE6secondB6v15004Ev(ptr noundef nonnull align 4 dereferenceable(8) %0) #0 comdat align 2 !dbg !4798 {
  %2 = alloca ptr, align 4
  store ptr %0, ptr %2, align 4
  call void @llvm.dbg.declare(metadata ptr %2, metadata !4799, metadata !DIExpression()), !dbg !4800
  %3 = load ptr, ptr %2, align 4
  %4 = getelementptr inbounds i8, ptr %3, i32 4, !dbg !4801
  %5 = call noundef nonnull align 4 dereferenceable(4) ptr @_ZNSt3__h22__compressed_pair_elemIPFiP8_IO_FILEELi1ELb0EE5__getB6v15004Ev(ptr noundef nonnull align 4 dereferenceable(4) %4) #12, !dbg !4802
  ret ptr %5, !dbg !4803
}

; Function Attrs: mustprogress noinline nounwind optnone sspstrong uwtable(sync)
define linkonce_odr hidden noundef nonnull align 4 dereferenceable(4) ptr @_ZNSt3__h22__compressed_pair_elemIPFiP8_IO_FILEELi1ELb0EE5__getB6v15004Ev(ptr noundef nonnull align 4 dereferenceable(4) %0) #0 comdat align 2 !dbg !4804 {
  %2 = alloca ptr, align 4
  store ptr %0, ptr %2, align 4
  call void @llvm.dbg.declare(metadata ptr %2, metadata !4805, metadata !DIExpression()), !dbg !4806
  %3 = load ptr, ptr %2, align 4
  %4 = getelementptr inbounds %"struct.std::__h::__compressed_pair_elem.4", ptr %3, i32 0, i32 0, !dbg !4807
  ret ptr %4, !dbg !4808
}

; Function Attrs: nobuiltin nounwind
declare void @_ZdlPv(ptr noundef) #6

; Function Attrs: mustprogress noinline nounwind optnone sspstrong uwtable(sync)
define linkonce_odr hidden noundef nonnull align 4 dereferenceable(8) ptr @_ZNSt3__h9use_facetB6v15004INS_7codecvtIcc11__mbstate_tEEEERKT_RKNS_6localeE(ptr noundef nonnull align 4 dereferenceable(4) %0) #0 comdat !dbg !4809 {
  %2 = alloca ptr, align 4
  store ptr %0, ptr %2, align 4
  call void @llvm.dbg.declare(metadata ptr %2, metadata !4815, metadata !DIExpression()), !dbg !4816
  %3 = load ptr, ptr %2, align 4, !dbg !4817
  %4 = call noundef ptr @_ZNKSt3__h6locale9use_facetERNS0_2idE(ptr noundef nonnull align 4 dereferenceable(4) %3, ptr noundef nonnull align 4 dereferenceable(8) @_ZNSt3__h7codecvtIcc11__mbstate_tE2idE), !dbg !4818
  ret ptr %4, !dbg !4819
}

; Function Attrs: mustprogress noinline nounwind optnone sspstrong uwtable(sync)
define linkonce_odr hidden noundef zeroext i1 @_ZNKSt3__h7codecvtIcc11__mbstate_tE13always_noconvB6v15004Ev(ptr noundef nonnull align 4 dereferenceable(8) %0) #0 comdat align 2 !dbg !4820 {
  %2 = alloca ptr, align 4
  store ptr %0, ptr %2, align 4
  call void @llvm.dbg.declare(metadata ptr %2, metadata !4825, metadata !DIExpression()), !dbg !4826
  %3 = load ptr, ptr %2, align 4
  %4 = load ptr, ptr %3, align 4, !dbg !4827
  %5 = getelementptr inbounds ptr, ptr %4, i64 7, !dbg !4827
  %6 = load ptr, ptr %5, align 4, !dbg !4827
  %7 = call noundef zeroext i1 %6(ptr noundef nonnull align 4 dereferenceable(8) %3) #12, !dbg !4827
  ret i1 %7, !dbg !4828
}

; Function Attrs: mustprogress noinline nounwind optnone sspstrong uwtable(sync)
define linkonce_odr hidden void @_ZNSt3__h15basic_streambufIcNS_11char_traitsIcEEE4setgB6v15004EPcS4_S4_(ptr noundef nonnull align 4 dereferenceable(32) %0, ptr noundef %1, ptr noundef %2, ptr noundef %3) #0 comdat align 2 !dbg !4829 {
  %5 = alloca ptr, align 4
  %6 = alloca ptr, align 4
  %7 = alloca ptr, align 4
  %8 = alloca ptr, align 4
  store ptr %0, ptr %5, align 4
  call void @llvm.dbg.declare(metadata ptr %5, metadata !4836, metadata !DIExpression()), !dbg !4837
  store ptr %1, ptr %6, align 4
  call void @llvm.dbg.declare(metadata ptr %6, metadata !4838, metadata !DIExpression()), !dbg !4839
  store ptr %2, ptr %7, align 4
  call void @llvm.dbg.declare(metadata ptr %7, metadata !4840, metadata !DIExpression()), !dbg !4841
  store ptr %3, ptr %8, align 4
  call void @llvm.dbg.declare(metadata ptr %8, metadata !4842, metadata !DIExpression()), !dbg !4843
  %9 = load ptr, ptr %5, align 4
  %10 = load ptr, ptr %6, align 4, !dbg !4844
  %11 = getelementptr inbounds %"class.std::__h::basic_streambuf", ptr %9, i32 0, i32 2, !dbg !4845
  store ptr %10, ptr %11, align 4, !dbg !4846
  %12 = load ptr, ptr %7, align 4, !dbg !4847
  %13 = getelementptr inbounds %"class.std::__h::basic_streambuf", ptr %9, i32 0, i32 3, !dbg !4848
  store ptr %12, ptr %13, align 4, !dbg !4849
  %14 = load ptr, ptr %8, align 4, !dbg !4850
  %15 = getelementptr inbounds %"class.std::__h::basic_streambuf", ptr %9, i32 0, i32 4, !dbg !4851
  store ptr %14, ptr %15, align 4, !dbg !4852
  ret void, !dbg !4853
}

; Function Attrs: mustprogress noinline nounwind optnone sspstrong uwtable(sync)
define linkonce_odr hidden void @_ZNSt3__h15basic_streambufIcNS_11char_traitsIcEEE4setpB6v15004EPcS4_(ptr noundef nonnull align 4 dereferenceable(32) %0, ptr noundef %1, ptr noundef %2) #0 comdat align 2 !dbg !4854 {
  %4 = alloca ptr, align 4
  %5 = alloca ptr, align 4
  %6 = alloca ptr, align 4
  store ptr %0, ptr %4, align 4
  call void @llvm.dbg.declare(metadata ptr %4, metadata !4858, metadata !DIExpression()), !dbg !4859
  store ptr %1, ptr %5, align 4
  call void @llvm.dbg.declare(metadata ptr %5, metadata !4860, metadata !DIExpression()), !dbg !4861
  store ptr %2, ptr %6, align 4
  call void @llvm.dbg.declare(metadata ptr %6, metadata !4862, metadata !DIExpression()), !dbg !4863
  %7 = load ptr, ptr %4, align 4
  %8 = load ptr, ptr %5, align 4, !dbg !4864
  %9 = getelementptr inbounds %"class.std::__h::basic_streambuf", ptr %7, i32 0, i32 6, !dbg !4865
  store ptr %8, ptr %9, align 4, !dbg !4866
  %10 = getelementptr inbounds %"class.std::__h::basic_streambuf", ptr %7, i32 0, i32 5, !dbg !4867
  store ptr %8, ptr %10, align 4, !dbg !4868
  %11 = load ptr, ptr %6, align 4, !dbg !4869
  %12 = getelementptr inbounds %"class.std::__h::basic_streambuf", ptr %7, i32 0, i32 7, !dbg !4870
  store ptr %11, ptr %12, align 4, !dbg !4871
  ret void, !dbg !4872
}

; Function Attrs: nobuiltin allocsize(0)
declare noundef nonnull ptr @_Znaj(i32 noundef) #7

declare noundef ptr @_ZNKSt3__h6locale9use_facetERNS0_2idE(ptr noundef nonnull align 4 dereferenceable(4), ptr noundef nonnull align 4 dereferenceable(8)) #5

; Function Attrs: mustprogress noinline nounwind optnone sspstrong uwtable(sync)
define linkonce_odr hidden noundef nonnull align 4 dereferenceable(4) ptr @_ZNSt3__h3maxB6v15004IiEERKT_S3_S3_(ptr noundef nonnull align 4 dereferenceable(4) %0, ptr noundef nonnull align 4 dereferenceable(4) %1) #0 comdat !dbg !4873 {
  %3 = alloca ptr, align 4
  %4 = alloca ptr, align 4
  %5 = alloca %"struct.std::__h::__less", align 1
  store ptr %0, ptr %3, align 4
  call void @llvm.dbg.declare(metadata ptr %3, metadata !4880, metadata !DIExpression()), !dbg !4881
  store ptr %1, ptr %4, align 4
  call void @llvm.dbg.declare(metadata ptr %4, metadata !4882, metadata !DIExpression()), !dbg !4883
  %6 = load ptr, ptr %3, align 4, !dbg !4884
  %7 = load ptr, ptr %4, align 4, !dbg !4885
  %8 = call noundef nonnull align 4 dereferenceable(4) ptr @_ZNSt3__h3maxB6v15004IiNS_6__lessIiiEEEERKT_S5_S5_T0_(ptr noundef nonnull align 4 dereferenceable(4) %6, ptr noundef nonnull align 4 dereferenceable(4) %7), !dbg !4886
  ret ptr %8, !dbg !4887
}

; Function Attrs: mustprogress noinline nounwind optnone sspstrong uwtable(sync)
define linkonce_odr hidden noundef nonnull align 4 dereferenceable(4) ptr @_ZNSt3__h3maxB6v15004IiNS_6__lessIiiEEEERKT_S5_S5_T0_(ptr noundef nonnull align 4 dereferenceable(4) %0, ptr noundef nonnull align 4 dereferenceable(4) %1) #0 comdat !dbg !4888 {
  %3 = alloca %"struct.std::__h::__less", align 1
  %4 = alloca ptr, align 4
  %5 = alloca ptr, align 4
  store ptr %0, ptr %4, align 4
  call void @llvm.dbg.declare(metadata ptr %4, metadata !4904, metadata !DIExpression()), !dbg !4905
  store ptr %1, ptr %5, align 4
  call void @llvm.dbg.declare(metadata ptr %5, metadata !4906, metadata !DIExpression()), !dbg !4907
  call void @llvm.dbg.declare(metadata ptr %3, metadata !4908, metadata !DIExpression()), !dbg !4909
  %6 = load ptr, ptr %4, align 4, !dbg !4910
  %7 = load ptr, ptr %5, align 4, !dbg !4911
  %8 = call noundef zeroext i1 @_ZNKSt3__h6__lessIiiEclB6v15004ERKiS3_(ptr noundef nonnull align 1 dereferenceable(1) %3, ptr noundef nonnull align 4 dereferenceable(4) %6, ptr noundef nonnull align 4 dereferenceable(4) %7), !dbg !4912
  br i1 %8, label %9, label %11, !dbg !4912

9:                                                ; preds = %2
  %10 = load ptr, ptr %5, align 4, !dbg !4913
  br label %13, !dbg !4912

11:                                               ; preds = %2
  %12 = load ptr, ptr %4, align 4, !dbg !4914
  br label %13, !dbg !4912

13:                                               ; preds = %11, %9
  %14 = phi ptr [ %10, %9 ], [ %12, %11 ], !dbg !4912
  ret ptr %14, !dbg !4915
}

; Function Attrs: mustprogress noinline nounwind optnone sspstrong uwtable(sync)
define linkonce_odr hidden noundef zeroext i1 @_ZNKSt3__h6__lessIiiEclB6v15004ERKiS3_(ptr noundef nonnull align 1 dereferenceable(1) %0, ptr noundef nonnull align 4 dereferenceable(4) %1, ptr noundef nonnull align 4 dereferenceable(4) %2) #0 comdat align 2 !dbg !4916 {
  %4 = alloca ptr, align 4
  %5 = alloca ptr, align 4
  %6 = alloca ptr, align 4
  store ptr %0, ptr %4, align 4
  call void @llvm.dbg.declare(metadata ptr %4, metadata !4917, metadata !DIExpression()), !dbg !4919
  store ptr %1, ptr %5, align 4
  call void @llvm.dbg.declare(metadata ptr %5, metadata !4920, metadata !DIExpression()), !dbg !4921
  store ptr %2, ptr %6, align 4
  call void @llvm.dbg.declare(metadata ptr %6, metadata !4922, metadata !DIExpression()), !dbg !4923
  %7 = load ptr, ptr %4, align 4
  %8 = load ptr, ptr %5, align 4, !dbg !4924
  %9 = load i32, ptr %8, align 4, !dbg !4924
  %10 = load ptr, ptr %6, align 4, !dbg !4925
  %11 = load i32, ptr %10, align 4, !dbg !4925
  %12 = icmp slt i32 %9, %11, !dbg !4926
  ret i1 %12, !dbg !4927
}

; Function Attrs: mustprogress noinline noreturn nounwind optnone sspstrong uwtable(sync)
define linkonce_odr hidden void @_ZNSt3__h16__throw_bad_castB6v15004Ev() #8 comdat !dbg !4928 {
  call void @abort() #15, !dbg !4930
  unreachable, !dbg !4930
}

; Function Attrs: mustprogress noinline nounwind optnone sspstrong uwtable(sync)
define linkonce_odr hidden noundef i32 @_ZNKSt3__h7codecvtIcc11__mbstate_tE8encodingB6v15004Ev(ptr noundef nonnull align 4 dereferenceable(8) %0) #0 comdat align 2 !dbg !4931 {
  %2 = alloca ptr, align 4
  store ptr %0, ptr %2, align 4
  call void @llvm.dbg.declare(metadata ptr %2, metadata !4935, metadata !DIExpression()), !dbg !4936
  %3 = load ptr, ptr %2, align 4
  %4 = load ptr, ptr %3, align 4, !dbg !4937
  %5 = getelementptr inbounds ptr, ptr %4, i64 6, !dbg !4937
  %6 = load ptr, ptr %5, align 4, !dbg !4937
  %7 = call noundef i32 %6(ptr noundef nonnull align 4 dereferenceable(8) %3) #12, !dbg !4937
  ret i32 %7, !dbg !4938
}

; Function Attrs: noinline nounwind optnone sspstrong uwtable(sync)
define linkonce_odr hidden noundef ptr @_ZNSt3__h4fposI11__mbstate_tEC2B6v15004Ex(ptr noundef nonnull returned align 8 dereferenceable(16) %0, i64 noundef %1) unnamed_addr #3 comdat align 2 !dbg !4939 {
  %3 = alloca ptr, align 4
  %4 = alloca i64, align 8
  store ptr %0, ptr %3, align 4
  call void @llvm.dbg.declare(metadata ptr %3, metadata !4940, metadata !DIExpression()), !dbg !4942
  store i64 %1, ptr %4, align 8
  call void @llvm.dbg.declare(metadata ptr %4, metadata !4943, metadata !DIExpression()), !dbg !4944
  %5 = load ptr, ptr %3, align 4
  %6 = getelementptr inbounds %"class.std::__h::fpos", ptr %5, i32 0, i32 0, !dbg !4945
  call void @llvm.memset.p0.i32(ptr align 8 %6, i8 0, i32 8, i1 false), !dbg !4945
  %7 = getelementptr inbounds %"class.std::__h::fpos", ptr %5, i32 0, i32 1, !dbg !4946
  %8 = load i64, ptr %4, align 8, !dbg !4947
  store i64 %8, ptr %7, align 8, !dbg !4946
  ret ptr %5, !dbg !4948
}

declare i32 @fseeko(ptr noundef, i64 noundef, i32 noundef) #5

declare i64 @ftello(ptr noundef) #5

; Function Attrs: mustprogress noinline nounwind optnone sspstrong uwtable(sync)
define linkonce_odr hidden void @_ZNSt3__h4fposI11__mbstate_tE5stateB6v15004ES1_(ptr noundef nonnull align 8 dereferenceable(16) %0, [2 x i32] %1) #0 comdat align 2 !dbg !4949 {
  %3 = alloca %struct.__mbstate_t, align 4
  %4 = alloca ptr, align 4
  store [2 x i32] %1, ptr %3, align 4
  store ptr %0, ptr %4, align 4
  call void @llvm.dbg.declare(metadata ptr %4, metadata !4950, metadata !DIExpression()), !dbg !4951
  call void @llvm.dbg.declare(metadata ptr %3, metadata !4952, metadata !DIExpression()), !dbg !4953
  %5 = load ptr, ptr %4, align 4
  %6 = getelementptr inbounds %"class.std::__h::fpos", ptr %5, i32 0, i32 0, !dbg !4954
  call void @llvm.memcpy.p0.p0.i32(ptr align 8 %6, ptr align 4 %3, i32 8, i1 false), !dbg !4955
  ret void, !dbg !4956
}

; Function Attrs: nocallback nofree nounwind willreturn memory(argmem: readwrite)
declare void @llvm.memcpy.p0.p0.i32(ptr noalias nocapture writeonly, ptr noalias nocapture readonly, i32, i1 immarg) #9

; Function Attrs: noreturn
declare void @abort() #10

; Function Attrs: mustprogress noinline nounwind optnone sspstrong uwtable(sync)
define linkonce_odr hidden noundef i64 @_ZNKSt3__h4fposI11__mbstate_tEcvxB6v15004Ev(ptr noundef nonnull align 8 dereferenceable(16) %0) #0 comdat align 2 !dbg !4957 {
  %2 = alloca ptr, align 4
  store ptr %0, ptr %2, align 4
  call void @llvm.dbg.declare(metadata ptr %2, metadata !4958, metadata !DIExpression()), !dbg !4960
  %3 = load ptr, ptr %2, align 4
  %4 = getelementptr inbounds %"class.std::__h::fpos", ptr %3, i32 0, i32 1, !dbg !4961
  %5 = load i64, ptr %4, align 8, !dbg !4961
  ret i64 %5, !dbg !4962
}

; Function Attrs: mustprogress noinline nounwind optnone sspstrong uwtable(sync)
define linkonce_odr hidden void @_ZNKSt3__h4fposI11__mbstate_tE5stateB6v15004Ev(ptr noalias sret(%struct.__mbstate_t) align 4 %0, ptr noundef nonnull align 8 dereferenceable(16) %1) #0 comdat align 2 !dbg !4963 {
  %3 = alloca ptr, align 4
  store ptr %1, ptr %3, align 4
  call void @llvm.dbg.declare(metadata ptr %3, metadata !4964, metadata !DIExpression()), !dbg !4965
  %4 = load ptr, ptr %3, align 4
  %5 = getelementptr inbounds %"class.std::__h::fpos", ptr %4, i32 0, i32 0, !dbg !4966
  call void @llvm.memcpy.p0.p0.i32(ptr align 4 %0, ptr align 8 %5, i32 8, i1 false), !dbg !4966
  ret void, !dbg !4967
}

; Function Attrs: mustprogress noinline nounwind optnone sspstrong uwtable(sync)
define linkonce_odr hidden noundef ptr @_ZNKSt3__h15basic_streambufIcNS_11char_traitsIcEEE4pptrB6v15004Ev(ptr noundef nonnull align 4 dereferenceable(32) %0) #0 comdat align 2 !dbg !4968 {
  %2 = alloca ptr, align 4
  store ptr %0, ptr %2, align 4
  call void @llvm.dbg.declare(metadata ptr %2, metadata !4974, metadata !DIExpression()), !dbg !4976
  %3 = load ptr, ptr %2, align 4
  %4 = getelementptr inbounds %"class.std::__h::basic_streambuf", ptr %3, i32 0, i32 6, !dbg !4977
  %5 = load ptr, ptr %4, align 4, !dbg !4977
  ret ptr %5, !dbg !4978
}

; Function Attrs: mustprogress noinline nounwind optnone sspstrong uwtable(sync)
define linkonce_odr hidden noundef ptr @_ZNKSt3__h15basic_streambufIcNS_11char_traitsIcEEE5pbaseB6v15004Ev(ptr noundef nonnull align 4 dereferenceable(32) %0) #0 comdat align 2 !dbg !4979 {
  %2 = alloca ptr, align 4
  store ptr %0, ptr %2, align 4
  call void @llvm.dbg.declare(metadata ptr %2, metadata !4981, metadata !DIExpression()), !dbg !4982
  %3 = load ptr, ptr %2, align 4
  %4 = getelementptr inbounds %"class.std::__h::basic_streambuf", ptr %3, i32 0, i32 5, !dbg !4983
  %5 = load ptr, ptr %4, align 4, !dbg !4983
  ret ptr %5, !dbg !4984
}

; Function Attrs: mustprogress noinline nounwind optnone sspstrong uwtable(sync)
define linkonce_odr hidden noundef i32 @_ZNSt3__h11char_traitsIcE3eofEv() #0 comdat align 2 !dbg !4985 {
  ret i32 -1, !dbg !4986
}

; Function Attrs: mustprogress noinline nounwind optnone sspstrong uwtable(sync)
define linkonce_odr hidden noundef i32 @_ZNKSt3__h7codecvtIcc11__mbstate_tE7unshiftB6v15004ERS1_PcS4_RS4_(ptr noundef nonnull align 4 dereferenceable(8) %0, ptr noundef nonnull align 4 dereferenceable(8) %1, ptr noundef %2, ptr noundef %3, ptr noundef nonnull align 4 dereferenceable(4) %4) #0 comdat align 2 !dbg !4987 {
  %6 = alloca ptr, align 4
  %7 = alloca ptr, align 4
  %8 = alloca ptr, align 4
  %9 = alloca ptr, align 4
  %10 = alloca ptr, align 4
  store ptr %0, ptr %6, align 4
  call void @llvm.dbg.declare(metadata ptr %6, metadata !4996, metadata !DIExpression()), !dbg !4997
  store ptr %1, ptr %7, align 4
  call void @llvm.dbg.declare(metadata ptr %7, metadata !4998, metadata !DIExpression()), !dbg !4999
  store ptr %2, ptr %8, align 4
  call void @llvm.dbg.declare(metadata ptr %8, metadata !5000, metadata !DIExpression()), !dbg !5001
  store ptr %3, ptr %9, align 4
  call void @llvm.dbg.declare(metadata ptr %9, metadata !5002, metadata !DIExpression()), !dbg !5003
  store ptr %4, ptr %10, align 4
  call void @llvm.dbg.declare(metadata ptr %10, metadata !5004, metadata !DIExpression()), !dbg !5005
  %11 = load ptr, ptr %6, align 4
  %12 = load ptr, ptr %7, align 4, !dbg !5006
  %13 = load ptr, ptr %8, align 4, !dbg !5007
  %14 = load ptr, ptr %9, align 4, !dbg !5008
  %15 = load ptr, ptr %10, align 4, !dbg !5009
  %16 = load ptr, ptr %11, align 4, !dbg !5010
  %17 = getelementptr inbounds ptr, ptr %16, i64 5, !dbg !5010
  %18 = load ptr, ptr %17, align 4, !dbg !5010
  %19 = call noundef i32 %18(ptr noundef nonnull align 4 dereferenceable(8) %11, ptr noundef nonnull align 4 dereferenceable(8) %12, ptr noundef %13, ptr noundef %14, ptr noundef nonnull align 4 dereferenceable(4) %15), !dbg !5010
  ret i32 %19, !dbg !5011
}

declare i32 @fwrite(ptr noundef, i32 noundef, i32 noundef, ptr noundef) #5

declare i32 @fflush(ptr noundef) #5

; Function Attrs: mustprogress noinline nounwind optnone sspstrong uwtable(sync)
define linkonce_odr hidden noundef ptr @_ZNKSt3__h15basic_streambufIcNS_11char_traitsIcEEE5egptrB6v15004Ev(ptr noundef nonnull align 4 dereferenceable(32) %0) #0 comdat align 2 !dbg !5012 {
  %2 = alloca ptr, align 4
  store ptr %0, ptr %2, align 4
  call void @llvm.dbg.declare(metadata ptr %2, metadata !5014, metadata !DIExpression()), !dbg !5015
  %3 = load ptr, ptr %2, align 4
  %4 = getelementptr inbounds %"class.std::__h::basic_streambuf", ptr %3, i32 0, i32 4, !dbg !5016
  %5 = load ptr, ptr %4, align 4, !dbg !5016
  ret ptr %5, !dbg !5017
}

; Function Attrs: mustprogress noinline nounwind optnone sspstrong uwtable(sync)
define linkonce_odr hidden noundef ptr @_ZNKSt3__h15basic_streambufIcNS_11char_traitsIcEEE4gptrB6v15004Ev(ptr noundef nonnull align 4 dereferenceable(32) %0) #0 comdat align 2 !dbg !5018 {
  %2 = alloca ptr, align 4
  store ptr %0, ptr %2, align 4
  call void @llvm.dbg.declare(metadata ptr %2, metadata !5020, metadata !DIExpression()), !dbg !5021
  %3 = load ptr, ptr %2, align 4
  %4 = getelementptr inbounds %"class.std::__h::basic_streambuf", ptr %3, i32 0, i32 3, !dbg !5022
  %5 = load ptr, ptr %4, align 4, !dbg !5022
  ret ptr %5, !dbg !5023
}

; Function Attrs: mustprogress noinline nounwind optnone sspstrong uwtable(sync)
define linkonce_odr hidden noundef i32 @_ZNKSt3__h7codecvtIcc11__mbstate_tE6lengthB6v15004ERS1_PKcS5_j(ptr noundef nonnull align 4 dereferenceable(8) %0, ptr noundef nonnull align 4 dereferenceable(8) %1, ptr noundef %2, ptr noundef %3, i32 noundef %4) #0 comdat align 2 !dbg !5024 {
  %6 = alloca ptr, align 4
  %7 = alloca ptr, align 4
  %8 = alloca ptr, align 4
  %9 = alloca ptr, align 4
  %10 = alloca i32, align 4
  store ptr %0, ptr %6, align 4
  call void @llvm.dbg.declare(metadata ptr %6, metadata !5030, metadata !DIExpression()), !dbg !5031
  store ptr %1, ptr %7, align 4
  call void @llvm.dbg.declare(metadata ptr %7, metadata !5032, metadata !DIExpression()), !dbg !5033
  store ptr %2, ptr %8, align 4
  call void @llvm.dbg.declare(metadata ptr %8, metadata !5034, metadata !DIExpression()), !dbg !5035
  store ptr %3, ptr %9, align 4
  call void @llvm.dbg.declare(metadata ptr %9, metadata !5036, metadata !DIExpression()), !dbg !5037
  store i32 %4, ptr %10, align 4
  call void @llvm.dbg.declare(metadata ptr %10, metadata !5038, metadata !DIExpression()), !dbg !5039
  %11 = load ptr, ptr %6, align 4
  %12 = load ptr, ptr %7, align 4, !dbg !5040
  %13 = load ptr, ptr %8, align 4, !dbg !5041
  %14 = load ptr, ptr %9, align 4, !dbg !5042
  %15 = load i32, ptr %10, align 4, !dbg !5043
  %16 = load ptr, ptr %11, align 4, !dbg !5044
  %17 = getelementptr inbounds ptr, ptr %16, i64 8, !dbg !5044
  %18 = load ptr, ptr %17, align 4, !dbg !5044
  %19 = call noundef i32 %18(ptr noundef nonnull align 4 dereferenceable(8) %11, ptr noundef nonnull align 4 dereferenceable(8) %12, ptr noundef %13, ptr noundef %14, i32 noundef %15), !dbg !5044
  ret i32 %19, !dbg !5045
}

; Function Attrs: mustprogress noinline nounwind optnone sspstrong uwtable(sync)
define linkonce_odr hidden noundef ptr @_ZNKSt3__h15basic_streambufIcNS_11char_traitsIcEEE5ebackB6v15004Ev(ptr noundef nonnull align 4 dereferenceable(32) %0) #0 comdat align 2 !dbg !5046 {
  %2 = alloca ptr, align 4
  store ptr %0, ptr %2, align 4
  call void @llvm.dbg.declare(metadata ptr %2, metadata !5048, metadata !DIExpression()), !dbg !5049
  %3 = load ptr, ptr %2, align 4
  %4 = getelementptr inbounds %"class.std::__h::basic_streambuf", ptr %3, i32 0, i32 2, !dbg !5050
  %5 = load ptr, ptr %4, align 4, !dbg !5050
  ret ptr %5, !dbg !5051
}

; Function Attrs: mustprogress noinline nounwind optnone sspstrong uwtable(sync)
define linkonce_odr noundef zeroext i1 @_ZNSt3__h13basic_filebufIcNS_11char_traitsIcEEE11__read_modeEv(ptr noundef nonnull align 4 dereferenceable(99) %0) #0 comdat align 2 !dbg !5052 {
  %2 = alloca i1, align 1
  %3 = alloca ptr, align 4
  store ptr %0, ptr %3, align 4
  call void @llvm.dbg.declare(metadata ptr %3, metadata !5053, metadata !DIExpression()), !dbg !5054
  %4 = load ptr, ptr %3, align 4
  %5 = getelementptr inbounds %"class.std::__h::basic_filebuf", ptr %4, i32 0, i32 13, !dbg !5055
  %6 = load i32, ptr %5, align 4, !dbg !5055
  %7 = and i32 %6, 8, !dbg !5057
  %8 = icmp ne i32 %7, 0, !dbg !5058
  br i1 %8, label %41, label %9, !dbg !5059

9:                                                ; preds = %1
  call void @_ZNSt3__h15basic_streambufIcNS_11char_traitsIcEEE4setpB6v15004EPcS4_(ptr noundef nonnull align 4 dereferenceable(32) %4, ptr noundef null, ptr noundef null), !dbg !5060
  %10 = getelementptr inbounds %"class.std::__h::basic_filebuf", ptr %4, i32 0, i32 16, !dbg !5062
  %11 = load i8, ptr %10, align 2, !dbg !5062
  %12 = trunc i8 %11 to i1, !dbg !5062
  br i1 %12, label %13, label %26, !dbg !5064

13:                                               ; preds = %9
  %14 = getelementptr inbounds %"class.std::__h::basic_filebuf", ptr %4, i32 0, i32 1, !dbg !5065
  %15 = load ptr, ptr %14, align 4, !dbg !5065
  %16 = getelementptr inbounds %"class.std::__h::basic_filebuf", ptr %4, i32 0, i32 1, !dbg !5066
  %17 = load ptr, ptr %16, align 4, !dbg !5066
  %18 = getelementptr inbounds %"class.std::__h::basic_filebuf", ptr %4, i32 0, i32 5, !dbg !5067
  %19 = load i32, ptr %18, align 4, !dbg !5067
  %20 = getelementptr inbounds i8, ptr %17, i32 %19, !dbg !5068
  %21 = getelementptr inbounds %"class.std::__h::basic_filebuf", ptr %4, i32 0, i32 1, !dbg !5069
  %22 = load ptr, ptr %21, align 4, !dbg !5069
  %23 = getelementptr inbounds %"class.std::__h::basic_filebuf", ptr %4, i32 0, i32 5, !dbg !5070
  %24 = load i32, ptr %23, align 4, !dbg !5070
  %25 = getelementptr inbounds i8, ptr %22, i32 %24, !dbg !5071
  call void @_ZNSt3__h15basic_streambufIcNS_11char_traitsIcEEE4setgB6v15004EPcS4_S4_(ptr noundef nonnull align 4 dereferenceable(32) %4, ptr noundef %15, ptr noundef %20, ptr noundef %25), !dbg !5072
  br label %39, !dbg !5073

26:                                               ; preds = %9
  %27 = getelementptr inbounds %"class.std::__h::basic_filebuf", ptr %4, i32 0, i32 6, !dbg !5074
  %28 = load ptr, ptr %27, align 4, !dbg !5074
  %29 = getelementptr inbounds %"class.std::__h::basic_filebuf", ptr %4, i32 0, i32 6, !dbg !5075
  %30 = load ptr, ptr %29, align 4, !dbg !5075
  %31 = getelementptr inbounds %"class.std::__h::basic_filebuf", ptr %4, i32 0, i32 7, !dbg !5076
  %32 = load i32, ptr %31, align 4, !dbg !5076
  %33 = getelementptr inbounds i8, ptr %30, i32 %32, !dbg !5077
  %34 = getelementptr inbounds %"class.std::__h::basic_filebuf", ptr %4, i32 0, i32 6, !dbg !5078
  %35 = load ptr, ptr %34, align 4, !dbg !5078
  %36 = getelementptr inbounds %"class.std::__h::basic_filebuf", ptr %4, i32 0, i32 7, !dbg !5079
  %37 = load i32, ptr %36, align 4, !dbg !5079
  %38 = getelementptr inbounds i8, ptr %35, i32 %37, !dbg !5080
  call void @_ZNSt3__h15basic_streambufIcNS_11char_traitsIcEEE4setgB6v15004EPcS4_S4_(ptr noundef nonnull align 4 dereferenceable(32) %4, ptr noundef %28, ptr noundef %33, ptr noundef %38), !dbg !5081
  br label %39

39:                                               ; preds = %26, %13
  %40 = getelementptr inbounds %"class.std::__h::basic_filebuf", ptr %4, i32 0, i32 13, !dbg !5082
  store i32 8, ptr %40, align 4, !dbg !5083
  store i1 true, ptr %2, align 1, !dbg !5084
  br label %42, !dbg !5084

41:                                               ; preds = %1
  store i1 false, ptr %2, align 1, !dbg !5085
  br label %42, !dbg !5085

42:                                               ; preds = %41, %39
  %43 = load i1, ptr %2, align 1, !dbg !5086
  ret i1 %43, !dbg !5086
}

; Function Attrs: mustprogress noinline nounwind optnone sspstrong uwtable(sync)
define linkonce_odr hidden noundef nonnull align 4 dereferenceable(4) ptr @_ZNSt3__h3minB6v15004IjEERKT_S3_S3_(ptr noundef nonnull align 4 dereferenceable(4) %0, ptr noundef nonnull align 4 dereferenceable(4) %1) #0 comdat !dbg !5087 {
  %3 = alloca ptr, align 4
  %4 = alloca ptr, align 4
  %5 = alloca %"struct.std::__h::__less.5", align 1
  store ptr %0, ptr %3, align 4
  call void @llvm.dbg.declare(metadata ptr %3, metadata !5094, metadata !DIExpression()), !dbg !5095
  store ptr %1, ptr %4, align 4
  call void @llvm.dbg.declare(metadata ptr %4, metadata !5096, metadata !DIExpression()), !dbg !5097
  %6 = load ptr, ptr %3, align 4, !dbg !5098
  %7 = load ptr, ptr %4, align 4, !dbg !5099
  %8 = call noundef nonnull align 4 dereferenceable(4) ptr @_ZNSt3__h3minB6v15004IjNS_6__lessIjjEEEERKT_S5_S5_T0_(ptr noundef nonnull align 4 dereferenceable(4) %6, ptr noundef nonnull align 4 dereferenceable(4) %7), !dbg !5100
  ret ptr %8, !dbg !5101
}

; Function Attrs: nocallback nofree nounwind willreturn memory(argmem: readwrite)
declare void @llvm.memmove.p0.p0.i32(ptr nocapture writeonly, ptr nocapture readonly, i32, i1 immarg) #9

declare i32 @fread(ptr noundef, i32 noundef, i32 noundef, ptr noundef) #5

; Function Attrs: mustprogress noinline nounwind optnone sspstrong uwtable(sync)
define linkonce_odr hidden noundef i32 @_ZNSt3__h11char_traitsIcE11to_int_typeEc(i8 noundef zeroext %0) #0 comdat align 2 !dbg !5102 {
  %2 = alloca i8, align 1
  store i8 %0, ptr %2, align 1
  call void @llvm.dbg.declare(metadata ptr %2, metadata !5103, metadata !DIExpression()), !dbg !5104
  %3 = load i8, ptr %2, align 1, !dbg !5105
  %4 = zext i8 %3 to i32, !dbg !5106
  ret i32 %4, !dbg !5107
}

; Function Attrs: nocallback nofree nosync nounwind willreturn memory(inaccessiblemem: readwrite)
declare void @llvm.assume(i1 noundef) #11

; Function Attrs: mustprogress noinline nounwind optnone sspstrong uwtable(sync)
define linkonce_odr hidden noundef i32 @_ZNKSt3__h7codecvtIcc11__mbstate_tE2inB6v15004ERS1_PKcS5_RS5_PcS7_RS7_(ptr noundef nonnull align 4 dereferenceable(8) %0, ptr noundef nonnull align 4 dereferenceable(8) %1, ptr noundef %2, ptr noundef %3, ptr noundef nonnull align 4 dereferenceable(4) %4, ptr noundef %5, ptr noundef %6, ptr noundef nonnull align 4 dereferenceable(4) %7) #0 comdat align 2 !dbg !5108 {
  %9 = alloca ptr, align 4
  %10 = alloca ptr, align 4
  %11 = alloca ptr, align 4
  %12 = alloca ptr, align 4
  %13 = alloca ptr, align 4
  %14 = alloca ptr, align 4
  %15 = alloca ptr, align 4
  %16 = alloca ptr, align 4
  store ptr %0, ptr %9, align 4
  call void @llvm.dbg.declare(metadata ptr %9, metadata !5116, metadata !DIExpression()), !dbg !5117
  store ptr %1, ptr %10, align 4
  call void @llvm.dbg.declare(metadata ptr %10, metadata !5118, metadata !DIExpression()), !dbg !5119
  store ptr %2, ptr %11, align 4
  call void @llvm.dbg.declare(metadata ptr %11, metadata !5120, metadata !DIExpression()), !dbg !5121
  store ptr %3, ptr %12, align 4
  call void @llvm.dbg.declare(metadata ptr %12, metadata !5122, metadata !DIExpression()), !dbg !5123
  store ptr %4, ptr %13, align 4
  call void @llvm.dbg.declare(metadata ptr %13, metadata !5124, metadata !DIExpression()), !dbg !5125
  store ptr %5, ptr %14, align 4
  call void @llvm.dbg.declare(metadata ptr %14, metadata !5126, metadata !DIExpression()), !dbg !5127
  store ptr %6, ptr %15, align 4
  call void @llvm.dbg.declare(metadata ptr %15, metadata !5128, metadata !DIExpression()), !dbg !5129
  store ptr %7, ptr %16, align 4
  call void @llvm.dbg.declare(metadata ptr %16, metadata !5130, metadata !DIExpression()), !dbg !5131
  %17 = load ptr, ptr %9, align 4
  %18 = load ptr, ptr %10, align 4, !dbg !5132
  %19 = load ptr, ptr %11, align 4, !dbg !5133
  %20 = load ptr, ptr %12, align 4, !dbg !5134
  %21 = load ptr, ptr %13, align 4, !dbg !5135
  %22 = load ptr, ptr %14, align 4, !dbg !5136
  %23 = load ptr, ptr %15, align 4, !dbg !5137
  %24 = load ptr, ptr %16, align 4, !dbg !5138
  %25 = load ptr, ptr %17, align 4, !dbg !5139
  %26 = getelementptr inbounds ptr, ptr %25, i64 4, !dbg !5139
  %27 = load ptr, ptr %26, align 4, !dbg !5139
  %28 = call noundef i32 %27(ptr noundef nonnull align 4 dereferenceable(8) %17, ptr noundef nonnull align 4 dereferenceable(8) %18, ptr noundef %19, ptr noundef %20, ptr noundef nonnull align 4 dereferenceable(4) %21, ptr noundef %22, ptr noundef %23, ptr noundef nonnull align 4 dereferenceable(4) %24), !dbg !5139
  ret i32 %28, !dbg !5140
}

; Function Attrs: mustprogress noinline nounwind optnone sspstrong uwtable(sync)
define linkonce_odr hidden noundef nonnull align 4 dereferenceable(4) ptr @_ZNSt3__h3minB6v15004IjNS_6__lessIjjEEEERKT_S5_S5_T0_(ptr noundef nonnull align 4 dereferenceable(4) %0, ptr noundef nonnull align 4 dereferenceable(4) %1) #0 comdat !dbg !5141 {
  %3 = alloca %"struct.std::__h::__less.5", align 1
  %4 = alloca ptr, align 4
  %5 = alloca ptr, align 4
  store ptr %0, ptr %4, align 4
  call void @llvm.dbg.declare(metadata ptr %4, metadata !5156, metadata !DIExpression()), !dbg !5157
  store ptr %1, ptr %5, align 4
  call void @llvm.dbg.declare(metadata ptr %5, metadata !5158, metadata !DIExpression()), !dbg !5159
  call void @llvm.dbg.declare(metadata ptr %3, metadata !5160, metadata !DIExpression()), !dbg !5161
  %6 = load ptr, ptr %5, align 4, !dbg !5162
  %7 = load ptr, ptr %4, align 4, !dbg !5163
  %8 = call noundef zeroext i1 @_ZNKSt3__h6__lessIjjEclB6v15004ERKjS3_(ptr noundef nonnull align 1 dereferenceable(1) %3, ptr noundef nonnull align 4 dereferenceable(4) %6, ptr noundef nonnull align 4 dereferenceable(4) %7), !dbg !5164
  br i1 %8, label %9, label %11, !dbg !5164

9:                                                ; preds = %2
  %10 = load ptr, ptr %5, align 4, !dbg !5165
  br label %13, !dbg !5164

11:                                               ; preds = %2
  %12 = load ptr, ptr %4, align 4, !dbg !5166
  br label %13, !dbg !5164

13:                                               ; preds = %11, %9
  %14 = phi ptr [ %10, %9 ], [ %12, %11 ], !dbg !5164
  ret ptr %14, !dbg !5167
}

; Function Attrs: mustprogress noinline nounwind optnone sspstrong uwtable(sync)
define linkonce_odr hidden noundef zeroext i1 @_ZNKSt3__h6__lessIjjEclB6v15004ERKjS3_(ptr noundef nonnull align 1 dereferenceable(1) %0, ptr noundef nonnull align 4 dereferenceable(4) %1, ptr noundef nonnull align 4 dereferenceable(4) %2) #0 comdat align 2 !dbg !5168 {
  %4 = alloca ptr, align 4
  %5 = alloca ptr, align 4
  %6 = alloca ptr, align 4
  store ptr %0, ptr %4, align 4
  call void @llvm.dbg.declare(metadata ptr %4, metadata !5169, metadata !DIExpression()), !dbg !5171
  store ptr %1, ptr %5, align 4
  call void @llvm.dbg.declare(metadata ptr %5, metadata !5172, metadata !DIExpression()), !dbg !5173
  store ptr %2, ptr %6, align 4
  call void @llvm.dbg.declare(metadata ptr %6, metadata !5174, metadata !DIExpression()), !dbg !5175
  %7 = load ptr, ptr %4, align 4
  %8 = load ptr, ptr %5, align 4, !dbg !5176
  %9 = load i32, ptr %8, align 4, !dbg !5176
  %10 = load ptr, ptr %6, align 4, !dbg !5177
  %11 = load i32, ptr %10, align 4, !dbg !5177
  %12 = icmp ult i32 %9, %11, !dbg !5178
  ret i1 %12, !dbg !5179
}

; Function Attrs: mustprogress noinline nounwind optnone sspstrong uwtable(sync)
define linkonce_odr hidden noundef zeroext i1 @_ZNSt3__h11char_traitsIcE11eq_int_typeEii(i32 noundef %0, i32 noundef %1) #0 comdat align 2 !dbg !5180 {
  %3 = alloca i32, align 4
  %4 = alloca i32, align 4
  store i32 %0, ptr %3, align 4
  call void @llvm.dbg.declare(metadata ptr %3, metadata !5181, metadata !DIExpression()), !dbg !5182
  store i32 %1, ptr %4, align 4
  call void @llvm.dbg.declare(metadata ptr %4, metadata !5183, metadata !DIExpression()), !dbg !5184
  %5 = load i32, ptr %3, align 4, !dbg !5185
  %6 = load i32, ptr %4, align 4, !dbg !5186
  %7 = icmp eq i32 %5, %6, !dbg !5187
  ret i1 %7, !dbg !5188
}

; Function Attrs: mustprogress noinline nounwind optnone sspstrong uwtable(sync)
define linkonce_odr hidden void @_ZNSt3__h15basic_streambufIcNS_11char_traitsIcEEE5gbumpB6v15004Ei(ptr noundef nonnull align 4 dereferenceable(32) %0, i32 noundef %1) #0 comdat align 2 !dbg !5189 {
  %3 = alloca ptr, align 4
  %4 = alloca i32, align 4
  store ptr %0, ptr %3, align 4
  call void @llvm.dbg.declare(metadata ptr %3, metadata !5193, metadata !DIExpression()), !dbg !5194
  store i32 %1, ptr %4, align 4
  call void @llvm.dbg.declare(metadata ptr %4, metadata !5195, metadata !DIExpression()), !dbg !5196
  %5 = load ptr, ptr %3, align 4
  %6 = load i32, ptr %4, align 4, !dbg !5197
  %7 = getelementptr inbounds %"class.std::__h::basic_streambuf", ptr %5, i32 0, i32 3, !dbg !5198
  %8 = load ptr, ptr %7, align 4, !dbg !5199
  %9 = getelementptr inbounds i8, ptr %8, i32 %6, !dbg !5199
  store ptr %9, ptr %7, align 4, !dbg !5199
  ret void, !dbg !5200
}

; Function Attrs: mustprogress noinline nounwind optnone sspstrong uwtable(sync)
define linkonce_odr hidden noundef i32 @_ZNSt3__h11char_traitsIcE7not_eofEi(i32 noundef %0) #0 comdat align 2 !dbg !5201 {
  %2 = alloca i32, align 4
  store i32 %0, ptr %2, align 4
  call void @llvm.dbg.declare(metadata ptr %2, metadata !5202, metadata !DIExpression()), !dbg !5203
  %3 = load i32, ptr %2, align 4, !dbg !5204
  %4 = call noundef i32 @_ZNSt3__h11char_traitsIcE3eofEv() #12, !dbg !5205
  %5 = call noundef zeroext i1 @_ZNSt3__h11char_traitsIcE11eq_int_typeEii(i32 noundef %3, i32 noundef %4) #12, !dbg !5206
  br i1 %5, label %6, label %9, !dbg !5206

6:                                                ; preds = %1
  %7 = call noundef i32 @_ZNSt3__h11char_traitsIcE3eofEv() #12, !dbg !5207
  %8 = xor i32 %7, -1, !dbg !5208
  br label %11, !dbg !5206

9:                                                ; preds = %1
  %10 = load i32, ptr %2, align 4, !dbg !5209
  br label %11, !dbg !5206

11:                                               ; preds = %9, %6
  %12 = phi i32 [ %8, %6 ], [ %10, %9 ], !dbg !5206
  ret i32 %12, !dbg !5210
}

; Function Attrs: mustprogress noinline nounwind optnone sspstrong uwtable(sync)
define linkonce_odr hidden noundef zeroext i1 @_ZNSt3__h11char_traitsIcE2eqEcc(i8 noundef zeroext %0, i8 noundef zeroext %1) #0 comdat align 2 !dbg !5211 {
  %3 = alloca i8, align 1
  %4 = alloca i8, align 1
  store i8 %0, ptr %3, align 1
  call void @llvm.dbg.declare(metadata ptr %3, metadata !5212, metadata !DIExpression()), !dbg !5213
  store i8 %1, ptr %4, align 1
  call void @llvm.dbg.declare(metadata ptr %4, metadata !5214, metadata !DIExpression()), !dbg !5215
  %5 = load i8, ptr %3, align 1, !dbg !5216
  %6 = zext i8 %5 to i32, !dbg !5216
  %7 = load i8, ptr %4, align 1, !dbg !5217
  %8 = zext i8 %7 to i32, !dbg !5217
  %9 = icmp eq i32 %6, %8, !dbg !5218
  ret i1 %9, !dbg !5219
}

; Function Attrs: mustprogress noinline nounwind optnone sspstrong uwtable(sync)
define linkonce_odr hidden noundef zeroext i8 @_ZNSt3__h11char_traitsIcE12to_char_typeEi(i32 noundef %0) #0 comdat align 2 !dbg !5220 {
  %2 = alloca i32, align 4
  store i32 %0, ptr %2, align 4
  call void @llvm.dbg.declare(metadata ptr %2, metadata !5221, metadata !DIExpression()), !dbg !5222
  %3 = load i32, ptr %2, align 4, !dbg !5223
  %4 = trunc i32 %3 to i8, !dbg !5223
  ret i8 %4, !dbg !5224
}

; Function Attrs: mustprogress noinline nounwind optnone sspstrong uwtable(sync)
define linkonce_odr void @_ZNSt3__h13basic_filebufIcNS_11char_traitsIcEEE12__write_modeEv(ptr noundef nonnull align 4 dereferenceable(99) %0) #0 comdat align 2 !dbg !5225 {
  %2 = alloca ptr, align 4
  store ptr %0, ptr %2, align 4
  call void @llvm.dbg.declare(metadata ptr %2, metadata !5226, metadata !DIExpression()), !dbg !5227
  %3 = load ptr, ptr %2, align 4
  %4 = getelementptr inbounds %"class.std::__h::basic_filebuf", ptr %3, i32 0, i32 13, !dbg !5228
  %5 = load i32, ptr %4, align 4, !dbg !5228
  %6 = and i32 %5, 16, !dbg !5230
  %7 = icmp ne i32 %6, 0, !dbg !5231
  br i1 %7, label %38, label %8, !dbg !5232

8:                                                ; preds = %1
  call void @_ZNSt3__h15basic_streambufIcNS_11char_traitsIcEEE4setgB6v15004EPcS4_S4_(ptr noundef nonnull align 4 dereferenceable(32) %3, ptr noundef null, ptr noundef null, ptr noundef null), !dbg !5233
  %9 = getelementptr inbounds %"class.std::__h::basic_filebuf", ptr %3, i32 0, i32 5, !dbg !5235
  %10 = load i32, ptr %9, align 4, !dbg !5235
  %11 = icmp ugt i32 %10, 8, !dbg !5237
  br i1 %11, label %12, label %35, !dbg !5238

12:                                               ; preds = %8
  %13 = getelementptr inbounds %"class.std::__h::basic_filebuf", ptr %3, i32 0, i32 16, !dbg !5239
  %14 = load i8, ptr %13, align 2, !dbg !5239
  %15 = trunc i8 %14 to i1, !dbg !5239
  br i1 %15, label %16, label %25, !dbg !5242

16:                                               ; preds = %12
  %17 = getelementptr inbounds %"class.std::__h::basic_filebuf", ptr %3, i32 0, i32 1, !dbg !5243
  %18 = load ptr, ptr %17, align 4, !dbg !5243
  %19 = getelementptr inbounds %"class.std::__h::basic_filebuf", ptr %3, i32 0, i32 1, !dbg !5244
  %20 = load ptr, ptr %19, align 4, !dbg !5244
  %21 = getelementptr inbounds %"class.std::__h::basic_filebuf", ptr %3, i32 0, i32 5, !dbg !5245
  %22 = load i32, ptr %21, align 4, !dbg !5245
  %23 = sub i32 %22, 1, !dbg !5246
  %24 = getelementptr inbounds i8, ptr %20, i32 %23, !dbg !5247
  call void @_ZNSt3__h15basic_streambufIcNS_11char_traitsIcEEE4setpB6v15004EPcS4_(ptr noundef nonnull align 4 dereferenceable(32) %3, ptr noundef %18, ptr noundef %24), !dbg !5248
  br label %34, !dbg !5249

25:                                               ; preds = %12
  %26 = getelementptr inbounds %"class.std::__h::basic_filebuf", ptr %3, i32 0, i32 6, !dbg !5250
  %27 = load ptr, ptr %26, align 4, !dbg !5250
  %28 = getelementptr inbounds %"class.std::__h::basic_filebuf", ptr %3, i32 0, i32 6, !dbg !5251
  %29 = load ptr, ptr %28, align 4, !dbg !5251
  %30 = getelementptr inbounds %"class.std::__h::basic_filebuf", ptr %3, i32 0, i32 7, !dbg !5252
  %31 = load i32, ptr %30, align 4, !dbg !5252
  %32 = sub i32 %31, 1, !dbg !5253
  %33 = getelementptr inbounds i8, ptr %29, i32 %32, !dbg !5254
  call void @_ZNSt3__h15basic_streambufIcNS_11char_traitsIcEEE4setpB6v15004EPcS4_(ptr noundef nonnull align 4 dereferenceable(32) %3, ptr noundef %27, ptr noundef %33), !dbg !5255
  br label %34

34:                                               ; preds = %25, %16
  br label %36, !dbg !5256

35:                                               ; preds = %8
  call void @_ZNSt3__h15basic_streambufIcNS_11char_traitsIcEEE4setpB6v15004EPcS4_(ptr noundef nonnull align 4 dereferenceable(32) %3, ptr noundef null, ptr noundef null), !dbg !5257
  br label %36

36:                                               ; preds = %35, %34
  %37 = getelementptr inbounds %"class.std::__h::basic_filebuf", ptr %3, i32 0, i32 13, !dbg !5258
  store i32 16, ptr %37, align 4, !dbg !5259
  br label %38, !dbg !5260

38:                                               ; preds = %36, %1
  ret void, !dbg !5261
}

; Function Attrs: mustprogress noinline nounwind optnone sspstrong uwtable(sync)
define linkonce_odr hidden noundef ptr @_ZNKSt3__h15basic_streambufIcNS_11char_traitsIcEEE5epptrB6v15004Ev(ptr noundef nonnull align 4 dereferenceable(32) %0) #0 comdat align 2 !dbg !5262 {
  %2 = alloca ptr, align 4
  store ptr %0, ptr %2, align 4
  call void @llvm.dbg.declare(metadata ptr %2, metadata !5264, metadata !DIExpression()), !dbg !5265
  %3 = load ptr, ptr %2, align 4
  %4 = getelementptr inbounds %"class.std::__h::basic_streambuf", ptr %3, i32 0, i32 7, !dbg !5266
  %5 = load ptr, ptr %4, align 4, !dbg !5266
  ret ptr %5, !dbg !5267
}

; Function Attrs: mustprogress noinline nounwind optnone sspstrong uwtable(sync)
define linkonce_odr hidden void @_ZNSt3__h15basic_streambufIcNS_11char_traitsIcEEE5pbumpB6v15004Ei(ptr noundef nonnull align 4 dereferenceable(32) %0, i32 noundef %1) #0 comdat align 2 !dbg !5268 {
  %3 = alloca ptr, align 4
  %4 = alloca i32, align 4
  store ptr %0, ptr %3, align 4
  call void @llvm.dbg.declare(metadata ptr %3, metadata !5270, metadata !DIExpression()), !dbg !5271
  store i32 %1, ptr %4, align 4
  call void @llvm.dbg.declare(metadata ptr %4, metadata !5272, metadata !DIExpression()), !dbg !5273
  %5 = load ptr, ptr %3, align 4
  %6 = load i32, ptr %4, align 4, !dbg !5274
  %7 = getelementptr inbounds %"class.std::__h::basic_streambuf", ptr %5, i32 0, i32 6, !dbg !5275
  %8 = load ptr, ptr %7, align 4, !dbg !5276
  %9 = getelementptr inbounds i8, ptr %8, i32 %6, !dbg !5276
  store ptr %9, ptr %7, align 4, !dbg !5276
  ret void, !dbg !5277
}

; Function Attrs: mustprogress noinline nounwind optnone sspstrong uwtable(sync)
define linkonce_odr hidden noundef i32 @_ZNKSt3__h7codecvtIcc11__mbstate_tE3outB6v15004ERS1_PKcS5_RS5_PcS7_RS7_(ptr noundef nonnull align 4 dereferenceable(8) %0, ptr noundef nonnull align 4 dereferenceable(8) %1, ptr noundef %2, ptr noundef %3, ptr noundef nonnull align 4 dereferenceable(4) %4, ptr noundef %5, ptr noundef %6, ptr noundef nonnull align 4 dereferenceable(4) %7) #0 comdat align 2 !dbg !5278 {
  %9 = alloca ptr, align 4
  %10 = alloca ptr, align 4
  %11 = alloca ptr, align 4
  %12 = alloca ptr, align 4
  %13 = alloca ptr, align 4
  %14 = alloca ptr, align 4
  %15 = alloca ptr, align 4
  %16 = alloca ptr, align 4
  store ptr %0, ptr %9, align 4
  call void @llvm.dbg.declare(metadata ptr %9, metadata !5285, metadata !DIExpression()), !dbg !5286
  store ptr %1, ptr %10, align 4
  call void @llvm.dbg.declare(metadata ptr %10, metadata !5287, metadata !DIExpression()), !dbg !5288
  store ptr %2, ptr %11, align 4
  call void @llvm.dbg.declare(metadata ptr %11, metadata !5289, metadata !DIExpression()), !dbg !5290
  store ptr %3, ptr %12, align 4
  call void @llvm.dbg.declare(metadata ptr %12, metadata !5291, metadata !DIExpression()), !dbg !5292
  store ptr %4, ptr %13, align 4
  call void @llvm.dbg.declare(metadata ptr %13, metadata !5293, metadata !DIExpression()), !dbg !5294
  store ptr %5, ptr %14, align 4
  call void @llvm.dbg.declare(metadata ptr %14, metadata !5295, metadata !DIExpression()), !dbg !5296
  store ptr %6, ptr %15, align 4
  call void @llvm.dbg.declare(metadata ptr %15, metadata !5297, metadata !DIExpression()), !dbg !5298
  store ptr %7, ptr %16, align 4
  call void @llvm.dbg.declare(metadata ptr %16, metadata !5299, metadata !DIExpression()), !dbg !5300
  %17 = load ptr, ptr %9, align 4
  %18 = load ptr, ptr %10, align 4, !dbg !5301
  %19 = load ptr, ptr %11, align 4, !dbg !5302
  %20 = load ptr, ptr %12, align 4, !dbg !5303
  %21 = load ptr, ptr %13, align 4, !dbg !5304
  %22 = load ptr, ptr %14, align 4, !dbg !5305
  %23 = load ptr, ptr %15, align 4, !dbg !5306
  %24 = load ptr, ptr %16, align 4, !dbg !5307
  %25 = load ptr, ptr %17, align 4, !dbg !5308
  %26 = getelementptr inbounds ptr, ptr %25, i64 3, !dbg !5308
  %27 = load ptr, ptr %26, align 4, !dbg !5308
  %28 = call noundef i32 %27(ptr noundef nonnull align 4 dereferenceable(8) %17, ptr noundef nonnull align 4 dereferenceable(8) %18, ptr noundef %19, ptr noundef %20, ptr noundef nonnull align 4 dereferenceable(4) %21, ptr noundef %22, ptr noundef %23, ptr noundef nonnull align 4 dereferenceable(4) %24), !dbg !5308
  ret i32 %28, !dbg !5309
}

; Function Attrs: mustprogress noinline nounwind optnone sspstrong uwtable(sync)
define linkonce_odr hidden void @_ZNSt3__h15basic_streambufIcNS_11char_traitsIcEEE7__pbumpB6v15004Ei(ptr noundef nonnull align 4 dereferenceable(32) %0, i32 noundef %1) #0 comdat align 2 !dbg !5310 {
  %3 = alloca ptr, align 4
  %4 = alloca i32, align 4
  store ptr %0, ptr %3, align 4
  call void @llvm.dbg.declare(metadata ptr %3, metadata !5314, metadata !DIExpression()), !dbg !5315
  store i32 %1, ptr %4, align 4
  call void @llvm.dbg.declare(metadata ptr %4, metadata !5316, metadata !DIExpression()), !dbg !5317
  %5 = load ptr, ptr %3, align 4
  %6 = load i32, ptr %4, align 4, !dbg !5318
  %7 = getelementptr inbounds %"class.std::__h::basic_streambuf", ptr %5, i32 0, i32 6, !dbg !5319
  %8 = load ptr, ptr %7, align 4, !dbg !5320
  %9 = getelementptr inbounds i8, ptr %8, i32 %6, !dbg !5320
  store ptr %9, ptr %7, align 4, !dbg !5320
  ret void, !dbg !5321
}

; Function Attrs: noinline nounwind optnone sspstrong uwtable(sync)
define linkonce_odr hidden noundef ptr @_ZNSt3__h14basic_ifstreamIcNS_11char_traitsIcEEED2Ev(ptr noundef nonnull returned align 4 dereferenceable(108) %0, ptr noundef %1) unnamed_addr #3 comdat align 2 !dbg !5322 {
  %3 = alloca ptr, align 4
  %4 = alloca ptr, align 4
  store ptr %0, ptr %3, align 4
  call void @llvm.dbg.declare(metadata ptr %3, metadata !5323, metadata !DIExpression()), !dbg !5324
  store ptr %1, ptr %4, align 4
  call void @llvm.dbg.declare(metadata ptr %4, metadata !5325, metadata !DIExpression()), !dbg !5324
  %5 = load ptr, ptr %3, align 4
  %6 = load ptr, ptr %4, align 4
  %7 = load ptr, ptr %6, align 4, !dbg !5326
  store ptr %7, ptr %5, align 4, !dbg !5326
  %8 = getelementptr inbounds ptr, ptr %6, i64 3, !dbg !5326
  %9 = load ptr, ptr %8, align 4, !dbg !5326
  %10 = load ptr, ptr %5, align 4, !dbg !5326
  %11 = getelementptr i8, ptr %10, i64 -12, !dbg !5326
  %12 = load i32, ptr %11, align 4, !dbg !5326
  %13 = getelementptr inbounds i8, ptr %5, i32 %12, !dbg !5326
  store ptr %9, ptr %13, align 4, !dbg !5326
  %14 = getelementptr inbounds %"class.std::__h::basic_ifstream", ptr %5, i32 0, i32 1, !dbg !5327
  %15 = call noundef ptr @_ZNSt3__h13basic_filebufIcNS_11char_traitsIcEEED2Ev(ptr noundef nonnull align 4 dereferenceable(99) %14) #12, !dbg !5327
  %16 = getelementptr inbounds ptr, ptr %6, i64 1, !dbg !5327
  %17 = call noundef ptr @_ZNSt3__h13basic_istreamIcNS_11char_traitsIcEEED2Ev(ptr noundef nonnull align 4 dereferenceable(8) %5, ptr noundef %16) #12, !dbg !5327
  ret ptr %5, !dbg !5326
}

; Function Attrs: noinline nounwind optnone sspstrong uwtable(sync)
define linkonce_odr hidden noundef ptr @_ZTv0_n12_NSt3__h14basic_ifstreamIcNS_11char_traitsIcEEED1Ev(ptr noundef %0) unnamed_addr #3 comdat align 2 !dbg !5329 {
  %2 = alloca ptr, align 4
  %3 = alloca ptr, align 4
  store ptr %0, ptr %3, align 4
  %4 = load ptr, ptr %3, align 4, !dbg !5330
  store ptr %4, ptr %2, align 4, !dbg !5330
  %5 = load ptr, ptr %4, align 4, !dbg !5330
  %6 = getelementptr inbounds i8, ptr %5, i64 -12, !dbg !5330
  %7 = load i32, ptr %6, align 4, !dbg !5330
  %8 = getelementptr inbounds i8, ptr %4, i32 %7, !dbg !5330
  %9 = tail call noundef ptr @_ZNSt3__h14basic_ifstreamIcNS_11char_traitsIcEEED1Ev(ptr noundef nonnull align 4 dereferenceable(108) %8) #12, !dbg !5330
  ret ptr undef, !dbg !5330
}

; Function Attrs: nounwind
declare noundef ptr @_ZNSt3__h13basic_istreamIcNS_11char_traitsIcEEED1Ev(ptr noundef nonnull returned align 4 dereferenceable(8)) unnamed_addr #4

; Function Attrs: nounwind
declare void @_ZNSt3__h13basic_istreamIcNS_11char_traitsIcEEED0Ev(ptr noundef nonnull align 4 dereferenceable(8)) unnamed_addr #4

; Function Attrs: nounwind
declare noundef ptr @_ZTv0_n12_NSt3__h13basic_istreamIcNS_11char_traitsIcEEED1Ev(ptr noundef) unnamed_addr #4

; Function Attrs: nounwind
declare void @_ZTv0_n12_NSt3__h13basic_istreamIcNS_11char_traitsIcEEED0Ev(ptr noundef) unnamed_addr #4

; Function Attrs: noinline nounwind optnone sspstrong uwtable(sync)
define linkonce_odr hidden void @_ZNSt3__h14basic_ifstreamIcNS_11char_traitsIcEEED0Ev(ptr noundef nonnull align 4 dereferenceable(108) %0) unnamed_addr #3 comdat align 2 !dbg !5331 {
  %2 = alloca ptr, align 4
  store ptr %0, ptr %2, align 4
  call void @llvm.dbg.declare(metadata ptr %2, metadata !5332, metadata !DIExpression()), !dbg !5333
  %3 = load ptr, ptr %2, align 4
  %4 = call noundef ptr @_ZNSt3__h14basic_ifstreamIcNS_11char_traitsIcEEED1Ev(ptr noundef nonnull align 4 dereferenceable(108) %3) #12, !dbg !5334
  call void @_ZdlPv(ptr noundef %3) #13, !dbg !5334
  ret void, !dbg !5334
}

; Function Attrs: noinline nounwind optnone sspstrong uwtable(sync)
define linkonce_odr hidden void @_ZTv0_n12_NSt3__h14basic_ifstreamIcNS_11char_traitsIcEEED0Ev(ptr noundef %0) unnamed_addr #3 comdat align 2 !dbg !5335 {
  %2 = alloca ptr, align 4
  store ptr %0, ptr %2, align 4
  %3 = load ptr, ptr %2, align 4, !dbg !5336
  %4 = load ptr, ptr %3, align 4, !dbg !5336
  %5 = getelementptr inbounds i8, ptr %4, i64 -12, !dbg !5336
  %6 = load i32, ptr %5, align 4, !dbg !5336
  %7 = getelementptr inbounds i8, ptr %3, i32 %6, !dbg !5336
  tail call void @_ZNSt3__h14basic_ifstreamIcNS_11char_traitsIcEEED0Ev(ptr noundef nonnull align 4 dereferenceable(108) %7) #12, !dbg !5336
  ret void, !dbg !5336
}

; Function Attrs: nounwind
declare noundef ptr @_ZNSt3__h13basic_istreamIcNS_11char_traitsIcEEED2Ev(ptr noundef nonnull returned align 4 dereferenceable(8), ptr noundef) unnamed_addr #4

; Function Attrs: noinline nounwind optnone sspstrong uwtable(sync)
