; ModuleID = 'llvm-link'
source_filename = "llvm-link"
target datalayout = "e-m:e-p:32:32-Fi8-i64:64-v128:64:128-a:0:32-n32-S64"
target triple = "thumbv7-unknown-linux-ohos"

%"class.std::__h::basic_ostream" = type { ptr, %"class.std::__h::basic_ios" }
%"class.std::__h::basic_ios" = type { %"class.std::__h::ios_base", ptr, i32 }
%"class.std::__h::ios_base" = type { ptr, i32, i32, i32, i32, i32, ptr, ptr, ptr, ptr, i32, i32, ptr, i32, i32, ptr, i32, i32 }
%"class.std::__h::locale::id" = type { %struct.anon, i32 }
%struct.anon = type { i32 }
%"class.std::__h::basic_ifstream" = type { %"class.std::__h::basic_istream.base", %"class.std::__h::basic_filebuf", %"class.std::__h::basic_ios" }
%"class.std::__h::basic_istream.base" = type { ptr, i32 }
%"class.std::__h::basic_filebuf" = type <{ %"class.std::__h::basic_streambuf", ptr, ptr, ptr, [8 x i8], i32, ptr, i32, ptr, ptr, %struct.__mbstate_t, %struct.__mbstate_t, i32, i32, i8, i8, i8, i8 }>
%"class.std::__h::basic_streambuf" = type { ptr, %"class.std::__h::locale", ptr, ptr, ptr, ptr, ptr, ptr }
%"class.std::__h::locale" = type { ptr }
%struct.__mbstate_t = type { i32, i32 }
%"class.std::__h::basic_ofstream" = type { %"class.std::__h::locale", %"class.std::__h::basic_filebuf", %"class.std::__h::basic_ios" }
%"class.std::__h::basic_string" = type { %"class.std::__h::__compressed_pair" }
%"class.std::__h::__compressed_pair" = type { %"struct.std::__h::__compressed_pair_elem" }
%"struct.std::__h::__compressed_pair_elem" = type { %"struct.std::__h::basic_string<char>::__rep" }
%"struct.std::__h::basic_string<char>::__rep" = type { %union.anon }
%union.anon = type { %"struct.std::__h::basic_string<char>::__long" }
%"struct.std::__h::basic_string<char>::__long" = type { %struct.anon, i32, ptr }
%"struct.std::__h::__less.5" = type { i8 }
%"class.std::__h::unique_ptr" = type { %"class.std::__h::__compressed_pair.2" }
%"class.std::__h::__compressed_pair.2" = type { %"class.std::__h::locale", %"class.std::__h::locale" }
%"class.std::__h::fpos" = type { %struct.__mbstate_t, i64 }
%"class.std::__h::basic_ostream<char>::sentry" = type { i8, ptr }
%"struct.std::__h::basic_string<char>::__short" = type { %"struct.std::__h::__less.5", [0 x i8], [11 x i8] }
%"class.std::__h::basic_istream" = type { ptr, i32, %"class.std::__h::basic_ios" }
%"struct.std::__h::basic_string<char16_t>::__short" = type { %"struct.std::__h::__less.5", [1 x i8], [5 x i16] }
%"struct.std::__h::pair" = type { ptr, ptr }

$_ZNSt3__h14basic_ifstreamIcNS_11char_traitsIcEEEC1EPKcj = comdat any

$_ZNSt3__h14basic_ofstreamIcNS_11char_traitsIcEEEC1EPKcj = comdat any

$_ZNSt3__h12basic_stringIcNS_11char_traitsIcEENS_9allocatorIcEEEC2B6v15004Ev = comdat any

$_ZNKSt3__h14basic_ifstreamIcNS_11char_traitsIcEEE7is_openEv = comdat any

$_ZNKSt3__h14basic_ofstreamIcNS_11char_traitsIcEEE7is_openEv = comdat any

$_ZNSt3__h7getlineB6v15004IcNS_11char_traitsIcEENS_9allocatorIcEEEERNS_13basic_istreamIT_T0_EES9_RNS_12basic_stringIS6_S7_T1_EE = comdat any

$_ZNKSt3__h9basic_iosIcNS_11char_traitsIcEEEcvbB6v15004Ev = comdat any

$_ZNSt3__hlsIcNS_11char_traitsIcEENS_9allocatorIcEEEERNS_13basic_ostreamIT_T0_EES9_RKNS_12basic_stringIS6_S7_T1_EE = comdat any

$_ZNSt3__h4endlIcNS_11char_traitsIcEEEERNS_13basic_ostreamIT_T0_EES7_ = comdat any

$_ZNSt3__h13basic_ostreamIcNS_11char_traitsIcEEElsB6v15004EPFRS3_S4_E = comdat any

$_ZNSt3__h14basic_ofstreamIcNS_11char_traitsIcEEED1Ev = comdat any

$_ZNSt3__h14basic_ifstreamIcNS_11char_traitsIcEEED1Ev = comdat any

$_ZNSt3__h14basic_ifstreamIcNS_11char_traitsIcEEED2Ev = comdat any

$_ZNSt3__h13basic_filebufIcNS_11char_traitsIcEEED2Ev = comdat any

$_ZNSt3__h13basic_filebufIcNS_11char_traitsIcEEE5closeEv = comdat any

$_ZNSt3__h10unique_ptrI8_IO_FILEPFiPS1_EEC2B6v15004ILb1EvEES2_NS_16__dependent_typeINS_27__unique_ptr_deleter_sfinaeIS4_EEXT_EE20__good_rval_ref_typeE = comdat any

$_ZNSt3__h10unique_ptrI8_IO_FILEPFiPS1_EE7releaseB6v15004Ev = comdat any

$_ZNSt3__h10unique_ptrI8_IO_FILEPFiPS1_EED2B6v15004Ev = comdat any

$_ZNSt3__h10unique_ptrI8_IO_FILEPFiPS1_EE5resetB6v15004ES2_ = comdat any

$_ZNSt3__h17__compressed_pairIP8_IO_FILEPFiS2_EE5firstB6v15004Ev = comdat any

$_ZNSt3__h17__compressed_pairIP8_IO_FILEPFiS2_EE6secondB6v15004Ev = comdat any

$_ZNSt3__h22__compressed_pair_elemIPFiP8_IO_FILEELi1ELb0EE5__getB6v15004Ev = comdat any

$_ZNSt3__h22__compressed_pair_elemIP8_IO_FILELi0ELb0EE5__getB6v15004Ev = comdat any

$_ZNSt3__h17__compressed_pairIP8_IO_FILEPFiS2_EEC2B6v15004IRS2_S4_EEOT_OT0_ = comdat any

$_ZNSt3__h22__compressed_pair_elemIP8_IO_FILELi0ELb0EEC2B6v15004IRS2_vEEOT_ = comdat any

$_ZNSt3__h22__compressed_pair_elemIPFiP8_IO_FILEELi1ELb0EEC2B6v15004IS4_vEEOT_ = comdat any

$_ZNSt3__h13basic_filebufIcNS_11char_traitsIcEEED0Ev = comdat any

$_ZNSt3__h13basic_filebufIcNS_11char_traitsIcEEE5imbueERKNS_6localeE = comdat any

$_ZNSt3__h13basic_filebufIcNS_11char_traitsIcEEE6setbufEPci = comdat any

$_ZNSt3__h13basic_filebufIcNS_11char_traitsIcEEE7seekoffExNS_8ios_base7seekdirEj = comdat any

$_ZNSt3__h13basic_filebufIcNS_11char_traitsIcEEE7seekposENS_4fposI11__mbstate_tEEj = comdat any

$_ZNSt3__h13basic_filebufIcNS_11char_traitsIcEEE4syncEv = comdat any

$_ZNSt3__h13basic_filebufIcNS_11char_traitsIcEEE9underflowEv = comdat any

$_ZNSt3__h13basic_filebufIcNS_11char_traitsIcEEE9pbackfailEi = comdat any

$_ZNSt3__h13basic_filebufIcNS_11char_traitsIcEEE8overflowEi = comdat any

$_ZNSt3__h11char_traitsIcE3eofEv = comdat any

$_ZNSt3__h13basic_filebufIcNS_11char_traitsIcEEE12__write_modeEv = comdat any

$_ZNKSt3__h15basic_streambufIcNS_11char_traitsIcEEE5pbaseB6v15004Ev = comdat any

$_ZNKSt3__h15basic_streambufIcNS_11char_traitsIcEEE5epptrB6v15004Ev = comdat any

$_ZNSt3__h11char_traitsIcE11eq_int_typeEii = comdat any

$_ZNKSt3__h15basic_streambufIcNS_11char_traitsIcEEE4pptrB6v15004Ev = comdat any

$_ZNSt3__h15basic_streambufIcNS_11char_traitsIcEEE4setpB6v15004EPcS4_ = comdat any

$_ZNSt3__h11char_traitsIcE12to_char_typeEi = comdat any

$_ZNSt3__h15basic_streambufIcNS_11char_traitsIcEEE5pbumpB6v15004Ei = comdat any

$_ZNSt3__h16__throw_bad_castB6v15004Ev = comdat any

$_ZNKSt3__h7codecvtIcc11__mbstate_tE3outB6v15004ERS1_PKcS5_RS5_PcS7_RS7_ = comdat any

$_ZNSt3__h15basic_streambufIcNS_11char_traitsIcEEE7__pbumpB6v15004Ei = comdat any

$_ZNSt3__h11char_traitsIcE7not_eofEi = comdat any

$_ZNSt3__h15basic_streambufIcNS_11char_traitsIcEEE4setgB6v15004EPcS4_S4_ = comdat any

$_ZNKSt3__h15basic_streambufIcNS_11char_traitsIcEEE5ebackB6v15004Ev = comdat any

$_ZNKSt3__h15basic_streambufIcNS_11char_traitsIcEEE4gptrB6v15004Ev = comdat any

$_ZNSt3__h15basic_streambufIcNS_11char_traitsIcEEE5gbumpB6v15004Ei = comdat any

$_ZNSt3__h11char_traitsIcE2eqEcc = comdat any

$_ZNSt3__h13basic_filebufIcNS_11char_traitsIcEEE11__read_modeEv = comdat any

$_ZNKSt3__h15basic_streambufIcNS_11char_traitsIcEEE5egptrB6v15004Ev = comdat any

$_ZNSt3__h3minB6v15004IjEERKT_S3_S3_ = comdat any

$_ZNSt3__h11char_traitsIcE11to_int_typeEc = comdat any

$_ZNKSt3__h7codecvtIcc11__mbstate_tE2inB6v15004ERS1_PKcS5_RS5_PcS7_RS7_ = comdat any

$_ZNSt3__h3minB6v15004IjNS_6__lessIjjEEEERKT_S5_S5_T0_ = comdat any

$_ZNKSt3__h6__lessIjjEclB6v15004ERKjS3_ = comdat any

$_ZNKSt3__h7codecvtIcc11__mbstate_tE7unshiftB6v15004ERS1_PcS4_RS4_ = comdat any

$_ZNKSt3__h7codecvtIcc11__mbstate_tE8encodingB6v15004Ev = comdat any

$_ZNKSt3__h7codecvtIcc11__mbstate_tE6lengthB6v15004ERS1_PKcS5_j = comdat any

$_ZNSt3__h4fposI11__mbstate_tEC2B6v15004Ex = comdat any

$_ZNKSt3__h4fposI11__mbstate_tEcvxB6v15004Ev = comdat any

$_ZNKSt3__h4fposI11__mbstate_tE5stateB6v15004Ev = comdat any

$_ZNSt3__h4fposI11__mbstate_tE5stateB6v15004ES1_ = comdat any

$_ZNSt3__h3maxB6v15004IiEERKT_S3_S3_ = comdat any

$_ZNSt3__h3maxB6v15004IiNS_6__lessIiiEEEERKT_S5_S5_T0_ = comdat any

$_ZNKSt3__h6__lessIiiEclB6v15004ERKiS3_ = comdat any

$_ZNSt3__h9use_facetB6v15004INS_7codecvtIcc11__mbstate_tEEEERKT_RKNS_6localeE = comdat any

$_ZNKSt3__h7codecvtIcc11__mbstate_tE13always_noconvB6v15004Ev = comdat any

$_ZNSt3__h14basic_ifstreamIcNS_11char_traitsIcEEED0Ev = comdat any

$_ZTv0_n12_NSt3__h14basic_ifstreamIcNS_11char_traitsIcEEED1Ev = comdat any

$_ZTv0_n12_NSt3__h14basic_ifstreamIcNS_11char_traitsIcEEED0Ev = comdat any

$_ZNSt3__h14basic_ofstreamIcNS_11char_traitsIcEEED2Ev = comdat any

$_ZNSt3__h14basic_ofstreamIcNS_11char_traitsIcEEED0Ev = comdat any

$_ZTv0_n12_NSt3__h14basic_ofstreamIcNS_11char_traitsIcEEED1Ev = comdat any

$_ZTv0_n12_NSt3__h14basic_ofstreamIcNS_11char_traitsIcEEED0Ev = comdat any

$_ZNKSt3__h9basic_iosIcNS_11char_traitsIcEEE5widenB6v15004Ec = comdat any

$_ZNSt3__h9use_facetB6v15004INS_5ctypeIcEEEERKT_RKNS_6localeE = comdat any

$_ZNKSt3__h5ctypeIcE5widenB6v15004Ec = comdat any

$_ZNKSt3__h12basic_stringIcNS_11char_traitsIcEENS_9allocatorIcEEE4dataB6v15004Ev = comdat any

$_ZNKSt3__h12basic_stringIcNS_11char_traitsIcEENS_9allocatorIcEEE4sizeB6v15004Ev = comdat any

$_ZNSt3__h24__put_character_sequenceIcNS_11char_traitsIcEEEERNS_13basic_ostreamIT_T0_EES7_PKS4_j = comdat any

$_ZNKSt3__h13basic_ostreamIcNS_11char_traitsIcEEE6sentrycvbB6v15004Ev = comdat any

$_ZNSt3__h19ostreambuf_iteratorIcNS_11char_traitsIcEEEC2B6v15004ERNS_13basic_ostreamIcS2_EE = comdat any

$_ZNKSt3__h8ios_base5flagsB6v15004Ev = comdat any

$_ZNKSt3__h9basic_iosIcNS_11char_traitsIcEEE4fillB6v15004Ev = comdat any

$_ZNSt3__h16__pad_and_outputIcNS_11char_traitsIcEEEENS_19ostreambuf_iteratorIT_T0_EES6_PKS4_S8_S8_RNS_8ios_baseES4_ = comdat any

$_ZNKSt3__h19ostreambuf_iteratorIcNS_11char_traitsIcEEE6failedB6v15004Ev = comdat any

$_ZNSt3__h9basic_iosIcNS_11char_traitsIcEEE8setstateB6v15004Ej = comdat any

$_ZNSt3__h8ios_base8setstateB6v15004Ej = comdat any

$_ZNKSt3__h8ios_base5widthB6v15004Ev = comdat any

$_ZNSt3__h15basic_streambufIcNS_11char_traitsIcEEE5sputnB6v15004EPKci = comdat any

$_ZNSt3__h12basic_stringIcNS_11char_traitsIcEENS_9allocatorIcEEEC2B6v15004Ejc = comdat any

$_ZNSt3__h12basic_stringIcNS_11char_traitsIcEENS_9allocatorIcEEE4dataB6v15004Ev = comdat any

$_ZNSt3__h8ios_base5widthB6v15004Ei = comdat any

$_ZNSt3__h12basic_stringIcNS_11char_traitsIcEENS_9allocatorIcEEE13__get_pointerB6v15004Ev = comdat any

$_ZNSt3__h12__to_addressB6v15004IcEEPT_S2_ = comdat any

$_ZNKSt3__h12basic_stringIcNS_11char_traitsIcEENS_9allocatorIcEEE9__is_longB6v15004Ev = comdat any

$_ZNSt3__h12basic_stringIcNS_11char_traitsIcEENS_9allocatorIcEEE18__get_long_pointerB6v15004Ev = comdat any

$_ZNSt3__h12basic_stringIcNS_11char_traitsIcEENS_9allocatorIcEEE19__get_short_pointerB6v15004Ev = comdat any

$_ZNSt3__h17__compressed_pairINS_12basic_stringIcNS_11char_traitsIcEENS_9allocatorIcEEE5__repES5_E5firstB6v15004Ev = comdat any

$_ZNSt3__h14pointer_traitsIPcE10pointer_toB6v15004ERc = comdat any

$_ZNSt3__h22__compressed_pair_elemINS_12basic_stringIcNS_11char_traitsIcEENS_9allocatorIcEEE5__repELi0ELb0EE5__getB6v15004Ev = comdat any

$_ZNKSt3__h17__compressed_pairINS_12basic_stringIcNS_11char_traitsIcEENS_9allocatorIcEEE5__repES5_E5firstB6v15004Ev = comdat any

$_ZNKSt3__h22__compressed_pair_elemINS_12basic_stringIcNS_11char_traitsIcEENS_9allocatorIcEEE5__repELi0ELb0EE5__getB6v15004Ev = comdat any

$_ZNSt3__h17__compressed_pairINS_12basic_stringIcNS_11char_traitsIcEENS_9allocatorIcEEE5__repES5_EC2B6v15004INS_18__default_init_tagESA_EEOT_OT0_ = comdat any

$_ZNSt3__h19__debug_db_insert_cB6v15004INS_12basic_stringIcNS_11char_traitsIcEENS_9allocatorIcEEEEEEvPT_ = comdat any

$_ZNSt3__h22__compressed_pair_elemINS_12basic_stringIcNS_11char_traitsIcEENS_9allocatorIcEEE5__repELi0ELb0EEC2B6v15004ENS_18__default_init_tagE = comdat any

$_ZNSt3__h22__compressed_pair_elemINS_9allocatorIcEELi1ELb1EEC2B6v15004ENS_18__default_init_tagE = comdat any

$_ZNSt3__h9allocatorIcEC2B6v15004Ev = comdat any

$_ZNSt3__h16__non_trivial_ifILb1ENS_9allocatorIcEEEC2B6v15004Ev = comdat any

$_ZNKSt3__h9basic_iosIcNS_11char_traitsIcEEE5rdbufB6v15004Ev = comdat any

$_ZNKSt3__h8ios_base5rdbufB6v15004Ev = comdat any

$_ZNKSt3__h12basic_stringIcNS_11char_traitsIcEENS_9allocatorIcEEE15__get_long_sizeB6v15004Ev = comdat any

$_ZNKSt3__h12basic_stringIcNS_11char_traitsIcEENS_9allocatorIcEEE16__get_short_sizeB6v15004Ev = comdat any

$_ZNKSt3__h12basic_stringIcNS_11char_traitsIcEENS_9allocatorIcEEE13__get_pointerB6v15004Ev = comdat any

$_ZNSt3__h12__to_addressB6v15004IKcEEPT_S3_ = comdat any

$_ZNKSt3__h12basic_stringIcNS_11char_traitsIcEENS_9allocatorIcEEE18__get_long_pointerB6v15004Ev = comdat any

$_ZNKSt3__h12basic_stringIcNS_11char_traitsIcEENS_9allocatorIcEEE19__get_short_pointerB6v15004Ev = comdat any

$_ZNSt3__h14pointer_traitsIPKcE10pointer_toB6v15004ERS1_ = comdat any

$_ZNKSt3__h9basic_iosIcNS_11char_traitsIcEEE4failB6v15004Ev = comdat any

$_ZNKSt3__h8ios_base4failB6v15004Ev = comdat any

$_ZNSt3__h7getlineIcNS_11char_traitsIcEENS_9allocatorIcEEEERNS_13basic_istreamIT_T0_EES9_RNS_12basic_stringIS6_S7_T1_EES6_ = comdat any

$_ZNKSt3__h13basic_istreamIcNS_11char_traitsIcEEE6sentrycvbB6v15004Ev = comdat any

$_ZNSt3__h12basic_stringIcNS_11char_traitsIcEENS_9allocatorIcEEE5clearB6v15004Ev = comdat any

$_ZNSt3__h15basic_streambufIcNS_11char_traitsIcEEE6sbumpcB6v15004Ev = comdat any

$_ZNKSt3__h12basic_stringIcNS_11char_traitsIcEENS_9allocatorIcEEE8max_sizeB6v15004Ev = comdat any

$_ZNKSt3__h12basic_stringIcNS_11char_traitsIcEENS_9allocatorIcEEE7__allocB6v15004Ev = comdat any

$_ZNSt3__h16allocator_traitsINS_9allocatorIcEEE8max_sizeB6v15004IS2_vEEjRKS2_ = comdat any

$_ZNSt3__h14numeric_limitsIjE3maxB6v15004Ev = comdat any

$_ZNSt3__h23__libcpp_numeric_limitsIjLb1EE3maxB6v15004Ev = comdat any

$_ZNKSt3__h9allocatorIcE8max_sizeB6v15004Ev = comdat any

$_ZNKSt3__h17__compressed_pairINS_12basic_stringIcNS_11char_traitsIcEENS_9allocatorIcEEE5__repES5_E6secondB6v15004Ev = comdat any

$_ZNKSt3__h22__compressed_pair_elemINS_9allocatorIcEELi1ELb1EE5__getB6v15004Ev = comdat any

$_ZNSt3__h25__debug_db_invalidate_allB6v15004INS_12basic_stringIcNS_11char_traitsIcEENS_9allocatorIcEEEEEEvPT_ = comdat any

$_ZNSt3__h11char_traitsIcE6assignERcRKc = comdat any

$_ZNSt3__h12basic_stringIcNS_11char_traitsIcEENS_9allocatorIcEEE15__set_long_sizeB6v15004Ej = comdat any

$_ZNSt3__h12basic_stringIcNS_11char_traitsIcEENS_9allocatorIcEEE16__set_short_sizeB6v15004Ej = comdat any

$_ZNKSt3__h13basic_filebufIcNS_11char_traitsIcEEE7is_openEv = comdat any

$_ZNSt3__h12basic_stringIcNS_11char_traitsIcEENS_9allocatorIcEEE14__default_initB6v15004Ev = comdat any

$_ZNSt3__h12basic_stringIcNS_11char_traitsIcEENS_9allocatorIcEEE6__zeroB6v15004Ev = comdat any

$_ZNSt3__h9basic_iosIcNS_11char_traitsIcEEEC2B6v15004Ev = comdat any

$_ZNSt3__h13basic_ostreamIcNS_11char_traitsIcEEEC2B6v15004EPNS_15basic_streambufIcS2_EE = comdat any

$_ZNSt3__h13basic_filebufIcNS_11char_traitsIcEEEC2Ev = comdat any

$_ZNSt3__h13basic_filebufIcNS_11char_traitsIcEEE4openEPKcj = comdat any

$_ZNSt3__h13basic_filebufIcNS_11char_traitsIcEEE15__make_mdstringEj = comdat any

$_ZNKSt3__h15basic_streambufIcNS_11char_traitsIcEEE6getlocB6v15004Ev = comdat any

$_ZNSt3__h9has_facetB6v15004INS_7codecvtIcc11__mbstate_tEEEEbRKNS_6localeE = comdat any

$_ZNSt3__h9basic_iosIcNS_11char_traitsIcEEE4initB6v15004EPNS_15basic_streambufIcS2_EE = comdat any

$_ZNSt3__h8ios_baseC2B6v15004Ev = comdat any

$_ZNSt3__h13basic_istreamIcNS_11char_traitsIcEEEC2B6v15004EPNS_15basic_streambufIcS2_EE = comdat any

$_ZNSt3__hlsINS_11char_traitsIcEEEERNS_13basic_ostreamIcT_EES6_PKc = comdat any

$_ZNSt3__h11char_traitsIcE6lengthEPKc = comdat any

$_ZNK4OHOS13IPCObjectStub13IsProxyObjectEv = comdat any

$_ZN4OHOS11IRemoteStubINS_5SDemo13ISDemoServiceEE11AsInterfaceEv = comdat any

$_ZN4OHOS11IRemoteStubINS_5SDemo13ISDemoServiceEE8AsObjectEv = comdat any

$_ZThn60_N4OHOS11IRemoteStubINS_5SDemo13ISDemoServiceEE8AsObjectEv = comdat any

$_ZN4OHOS4sptrINS_13IRemoteObjectEEC2EPS1_ = comdat any

$_ZN4OHOS5SDemo13ISDemoService13GetDescriptorEv = comdat any

$_ZNSt3__hneB6v15004IDsNS_11char_traitsIDsEENS_9allocatorIDsEEEEbRKNS_12basic_stringIT_T0_T1_EESB_ = comdat any

$_ZNSt3__h12basic_stringIDsNS_11char_traitsIDsEENS_9allocatorIDsEEED2Ev = comdat any

$_ZNSt3__h18__debug_db_erase_cB6v15004INS_12basic_stringIDsNS_11char_traitsIDsEENS_9allocatorIDsEEEEEEvPT_ = comdat any

$_ZNKSt3__h12basic_stringIDsNS_11char_traitsIDsEENS_9allocatorIDsEEE9__is_longB6v15004Ev = comdat any

$_ZNSt3__h12basic_stringIDsNS_11char_traitsIDsEENS_9allocatorIDsEEE7__allocB6v15004Ev = comdat any

$_ZNSt3__h12basic_stringIDsNS_11char_traitsIDsEENS_9allocatorIDsEEE18__get_long_pointerB6v15004Ev = comdat any

$_ZNKSt3__h12basic_stringIDsNS_11char_traitsIDsEENS_9allocatorIDsEEE14__get_long_capB6v15004Ev = comdat any

$_ZNSt3__h16allocator_traitsINS_9allocatorIDsEEE10deallocateB6v15004ERS2_PDsj = comdat any

$_ZNSt3__h9allocatorIDsE10deallocateB6v15004EPDsj = comdat any

$_ZNSt3__h19__libcpp_deallocateB6v15004EPvjj = comdat any

$_ZNSt3__h24__is_overaligned_for_newB6v15004Ej = comdat any

$_ZNSt3__h27__do_deallocate_handle_sizeB6v15004IJSt11align_val_tEEEvPvjDpT_ = comdat any

$_ZNSt3__h27__do_deallocate_handle_sizeB6v15004IJEEEvPvjDpT_ = comdat any

$_ZNSt3__h24__libcpp_operator_deleteB6v15004IJPvEEEvDpT_ = comdat any

$_ZNSt3__h24__libcpp_operator_deleteB6v15004IJPvSt11align_val_tEEEvDpT_ = comdat any

$_ZNKSt3__h17__compressed_pairINS_12basic_stringIDsNS_11char_traitsIDsEENS_9allocatorIDsEEE5__repES5_E5firstB6v15004Ev = comdat any

$_ZNKSt3__h22__compressed_pair_elemINS_12basic_stringIDsNS_11char_traitsIDsEENS_9allocatorIDsEEE5__repELi0ELb0EE5__getB6v15004Ev = comdat any

$_ZNSt3__h17__compressed_pairINS_12basic_stringIDsNS_11char_traitsIDsEENS_9allocatorIDsEEE5__repES5_E5firstB6v15004Ev = comdat any

$_ZNSt3__h22__compressed_pair_elemINS_12basic_stringIDsNS_11char_traitsIDsEENS_9allocatorIDsEEE5__repELi0ELb0EE5__getB6v15004Ev = comdat any

$_ZNSt3__h17__compressed_pairINS_12basic_stringIDsNS_11char_traitsIDsEENS_9allocatorIDsEEE5__repES5_E6secondB6v15004Ev = comdat any

$_ZNSt3__h22__compressed_pair_elemINS_9allocatorIDsEELi1ELb1EE5__getB6v15004Ev = comdat any

$_ZNSt3__heqB6v15004IDsNS_11char_traitsIDsEENS_9allocatorIDsEEEEbRKNS_12basic_stringIT_T0_T1_EESB_ = comdat any

$_ZNKSt3__h12basic_stringIDsNS_11char_traitsIDsEENS_9allocatorIDsEEE4sizeB6v15004Ev = comdat any

$_ZNKSt3__h12basic_stringIDsNS_11char_traitsIDsEENS_9allocatorIDsEEE4dataB6v15004Ev = comdat any

$_ZNSt3__h11char_traitsIDsE7compareB6v15004EPKDsS3_j = comdat any

$_ZNSt3__h11char_traitsIDsE2ltEDsDs = comdat any

$_ZNKSt3__h12basic_stringIDsNS_11char_traitsIDsEENS_9allocatorIDsEEE13__get_pointerB6v15004Ev = comdat any

$_ZNSt3__h12__to_addressB6v15004IKDsEEPT_S3_ = comdat any

$_ZNKSt3__h12basic_stringIDsNS_11char_traitsIDsEENS_9allocatorIDsEEE18__get_long_pointerB6v15004Ev = comdat any

$_ZNKSt3__h12basic_stringIDsNS_11char_traitsIDsEENS_9allocatorIDsEEE19__get_short_pointerB6v15004Ev = comdat any

$_ZNSt3__h14pointer_traitsIPKDsE10pointer_toB6v15004ERS1_ = comdat any

$_ZNKSt3__h12basic_stringIDsNS_11char_traitsIDsEENS_9allocatorIDsEEE15__get_long_sizeB6v15004Ev = comdat any

$_ZNKSt3__h12basic_stringIDsNS_11char_traitsIDsEENS_9allocatorIDsEEE16__get_short_sizeB6v15004Ev = comdat any

$_ZNSt3__h12basic_stringIDsNS_11char_traitsIDsEENS_9allocatorIDsEEEC2B6v15004IDnEEPKDs = comdat any

$_ZNSt3__h17__compressed_pairINS_12basic_stringIDsNS_11char_traitsIDsEENS_9allocatorIDsEEE5__repES5_EC2B6v15004INS_18__default_init_tagESA_EEOT_OT0_ = comdat any

$_ZNSt3__h11char_traitsIDsE6lengthB6v15004EPKDs = comdat any

$_ZNSt3__h12basic_stringIDsNS_11char_traitsIDsEENS_9allocatorIDsEEE6__initEPKDsj = comdat any

$_ZNSt3__h19__debug_db_insert_cB6v15004INS_12basic_stringIDsNS_11char_traitsIDsEENS_9allocatorIDsEEEEEEvPT_ = comdat any

$_ZNKSt3__h12basic_stringIDsNS_11char_traitsIDsEENS_9allocatorIDsEEE8max_sizeEv = comdat any

$_ZNKSt3__h12basic_stringIDsNS_11char_traitsIDsEENS_9allocatorIDsEEE20__throw_length_errorB6v15004Ev = comdat any

$_ZNSt3__h12basic_stringIDsNS_11char_traitsIDsEENS_9allocatorIDsEEE13__fits_in_ssoB6v15004Ej = comdat any

$_ZNSt3__h12basic_stringIDsNS_11char_traitsIDsEENS_9allocatorIDsEEE16__set_short_sizeB6v15004Ej = comdat any

$_ZNSt3__h12basic_stringIDsNS_11char_traitsIDsEENS_9allocatorIDsEEE19__get_short_pointerB6v15004Ev = comdat any

$_ZNSt3__h12basic_stringIDsNS_11char_traitsIDsEENS_9allocatorIDsEEE11__recommendB6v15004Ej = comdat any

$_ZNSt3__h19__allocate_at_leastB6v15004INS_9allocatorIDsEEEENS_19__allocation_resultINS_16allocator_traitsIT_E7pointerEEERS5_j = comdat any

$_ZNSt3__h12basic_stringIDsNS_11char_traitsIDsEENS_9allocatorIDsEEE16__begin_lifetimeB6v15004EPDsj = comdat any

$_ZNSt3__h12basic_stringIDsNS_11char_traitsIDsEENS_9allocatorIDsEEE18__set_long_pointerB6v15004EPDs = comdat any

$_ZNSt3__h12basic_stringIDsNS_11char_traitsIDsEENS_9allocatorIDsEEE14__set_long_capB6v15004Ej = comdat any

$_ZNSt3__h12basic_stringIDsNS_11char_traitsIDsEENS_9allocatorIDsEEE15__set_long_sizeB6v15004Ej = comdat any

$_ZNSt3__h12__to_addressB6v15004IDsEEPT_S2_ = comdat any

$_ZNSt3__h11char_traitsIDsE4copyB6v15004EPDsPKDsj = comdat any

$_ZNSt3__h11char_traitsIDsE6assignERDsRKDs = comdat any

$_ZNSt3__h6copy_nB6v15004IPKDsjPDsEENS_9enable_ifIXsr33__is_cpp17_random_access_iteratorIT_EE5valueET1_E4typeES5_T0_S6_ = comdat any

$_ZNSt3__h4copyB6v15004IPKDsPDsEET0_T_S5_S4_ = comdat any

$_ZNSt3__h6__copyB6v15004IPKDsS2_PDsLi0EEENS_4pairIT_T1_EES5_T0_S6_ = comdat any

$_ZNSt3__h14__unwrap_rangeB6v15004IPKDsS2_EENS_4pairIT0_S4_EET_S6_ = comdat any

$_ZNSt3__h13__unwrap_iterB6v15004IPDsNS_18__unwrap_iter_implIS1_Lb1EEELi0EEEDTclsrT0_8__unwrapclsr3stdE7declvalIT_EEEES5_ = comdat any

$_ZNSt3__h11__copy_implB6v15004IKDsDsvEENS_4pairIPT_PT0_EES4_S4_S6_ = comdat any

$_ZNSt3__h14__rewrap_rangeB6v15004IPKDsS2_EET_S3_T0_ = comdat any

$_ZNSt3__h13__rewrap_iterB6v15004IPDsS1_NS_18__unwrap_iter_implIS1_Lb1EEEEET_S4_T0_ = comdat any

$_ZNSt3__h9make_pairB6v15004IPKDsPDsEENS_4pairINS_18__unwrap_ref_decayIT_E4typeENS5_IT0_E4typeEEEOS6_OS9_ = comdat any

$_ZNSt3__h4pairIPKDsPDsEC2B6v15004IS2_S3_LPv0EEEOT_OT0_ = comdat any

$_ZNSt3__h18__unwrap_iter_implIPDsLb1EE8__rewrapB6v15004ES1_S1_ = comdat any

$_ZNSt3__h13__rewrap_iterB6v15004IPKDsS2_NS_18__unwrap_iter_implIS2_Lb1EEEEET_S5_T0_ = comdat any

$_ZNSt3__h18__unwrap_iter_implIPKDsLb1EE8__rewrapB6v15004ES2_S2_ = comdat any

$_ZNSt3__h18__unwrap_iter_implIPDsLb1EE8__unwrapB6v15004ES1_ = comdat any

$_ZNSt3__h13__unwrap_iterB6v15004IPKDsNS_18__unwrap_iter_implIS2_Lb1EEELi0EEEDTclsrT0_8__unwrapclsr3stdE7declvalIT_EEEES6_ = comdat any

$_ZNSt3__h9make_pairB6v15004IPKDsS2_EENS_4pairINS_18__unwrap_ref_decayIT_E4typeENS4_IT0_E4typeEEEOS5_OS8_ = comdat any

$_ZNSt3__h4pairIPKDsS2_EC2B6v15004IS2_S2_LPv0EEEOT_OT0_ = comdat any

$_ZNSt3__h18__unwrap_iter_implIPKDsLb1EE8__unwrapB6v15004ES2_ = comdat any

$_ZNSt3__h9allocatorIDsE8allocateB6v15004Ej = comdat any

$_ZNSt3__h16allocator_traitsINS_9allocatorIDsEEE8max_sizeB6v15004IS2_vEEjRKS2_ = comdat any

$_ZSt28__throw_bad_array_new_lengthB6v15004v = comdat any

$_ZNSt3__h17__libcpp_allocateB6v15004Ejj = comdat any

$_ZNSt3__h21__libcpp_operator_newB6v15004IJjSt11align_val_tEEEPvDpT_ = comdat any

$_ZNSt3__h21__libcpp_operator_newB6v15004IJjEEEPvDpT_ = comdat any

$_ZNKSt3__h9allocatorIDsE8max_sizeB6v15004Ev = comdat any

$_ZNSt3__h12basic_stringIDsNS_11char_traitsIDsEENS_9allocatorIDsEEE10__align_itB6v15004ILj8EEEjj = comdat any

$_ZNSt3__h14pointer_traitsIPDsE10pointer_toB6v15004ERDs = comdat any

$_ZNSt3__h20__throw_length_errorB6v15004EPKc = comdat any

$_ZNKSt3__h12basic_stringIDsNS_11char_traitsIDsEENS_9allocatorIDsEEE7__allocB6v15004Ev = comdat any

$_ZNKSt3__h17__compressed_pairINS_12basic_stringIDsNS_11char_traitsIDsEENS_9allocatorIDsEEE5__repES5_E6secondB6v15004Ev = comdat any

$_ZNKSt3__h22__compressed_pair_elemINS_9allocatorIDsEELi1ELb1EE5__getB6v15004Ev = comdat any

$_ZNSt3__h11char_traitsIDsE2eqEDsDs = comdat any

$_ZNSt3__h22__compressed_pair_elemINS_12basic_stringIDsNS_11char_traitsIDsEENS_9allocatorIDsEEE5__repELi0ELb0EEC2B6v15004ENS_18__default_init_tagE = comdat any

$_ZNSt3__h22__compressed_pair_elemINS_9allocatorIDsEELi1ELb1EEC2B6v15004ENS_18__default_init_tagE = comdat any

$_ZNSt3__h9allocatorIDsEC2B6v15004Ev = comdat any

$_ZNSt3__h16__non_trivial_ifILb1ENS_9allocatorIDsEEEC2B6v15004Ev = comdat any

$_ZN4OHOS4sptrINS_13IRemoteBrokerEEC2EPS1_ = comdat any

$_ZN4OHOS10ParcelableD1Ev = comdat any

$_ZN4OHOS10ParcelableD0Ev = comdat any

$_ZTv0_n12_N4OHOS10ParcelableD1Ev = comdat any

$_ZTv0_n12_N4OHOS10ParcelableD0Ev = comdat any

$_ZN4OHOS13IRemoteBrokerD1Ev = comdat any

$_ZN4OHOS13IRemoteBrokerD0Ev = comdat any

$_ZTv0_n12_N4OHOS13IRemoteBrokerD1Ev = comdat any

$_ZTv0_n12_N4OHOS13IRemoteBrokerD0Ev = comdat any

$_ZN4OHOS5SDemo13ISDemoServiceD1Ev = comdat any

$_ZN4OHOS5SDemo13ISDemoServiceD0Ev = comdat any

$_ZTv0_n12_N4OHOS5SDemo13ISDemoServiceD1Ev = comdat any

$_ZTv0_n12_N4OHOS5SDemo13ISDemoServiceD0Ev = comdat any

$_ZN4OHOS13IRemoteObjectD1Ev = comdat any

$_ZN4OHOS13IRemoteObjectD0Ev = comdat any

$_ZTv0_n16_N4OHOS13IRemoteObjectD1Ev = comdat any

$_ZTv0_n16_N4OHOS13IRemoteObjectD0Ev = comdat any

$_ZTv0_n12_N4OHOS13IRemoteObjectD1Ev = comdat any

$_ZTv0_n12_N4OHOS13IRemoteObjectD0Ev = comdat any

$_ZN4OHOS11IRemoteStubINS_5SDemo13ISDemoServiceEED1Ev = comdat any

$_ZN4OHOS11IRemoteStubINS_5SDemo13ISDemoServiceEED0Ev = comdat any

$_ZThn60_N4OHOS11IRemoteStubINS_5SDemo13ISDemoServiceEED1Ev = comdat any

$_ZThn60_N4OHOS11IRemoteStubINS_5SDemo13ISDemoServiceEED0Ev = comdat any

$_ZTv0_n16_N4OHOS11IRemoteStubINS_5SDemo13ISDemoServiceEED1Ev = comdat any

$_ZTv0_n16_N4OHOS11IRemoteStubINS_5SDemo13ISDemoServiceEED0Ev = comdat any

$_ZTv0_n12_N4OHOS11IRemoteStubINS_5SDemo13ISDemoServiceEED1Ev = comdat any

$_ZTv0_n12_N4OHOS11IRemoteStubINS_5SDemo13ISDemoServiceEED0Ev = comdat any

$_ZN4OHOS11IRemoteStubINS_5SDemo13ISDemoServiceEEC2Eb = comdat any

$_ZN4OHOS5SDemo13ISDemoServiceC2Ev = comdat any

$_ZN4OHOS13IRemoteBrokerC2Ev = comdat any

$_ZN4OHOS11IRemoteStubINS_5SDemo13ISDemoServiceEED2Ev = comdat any

$_ZN4OHOS5SDemo13ISDemoServiceD2Ev = comdat any

$_ZN4OHOS13IRemoteBrokerD2Ev = comdat any

$_ZN4OHOS5SDemo12SDemoService12GetClassNameEv = comdat any

$_ZN4OHOS10ParcelableD2Ev = comdat any

$_ZN4OHOS4sptrINS_13IRemoteObjectEED2Ev = comdat any

$_ZNSt3__h12basic_stringIcNS_11char_traitsIcEENS_9allocatorIcEEEC2B6v15004IDnEEPKc = comdat any

$_ZTVNSt3__h14basic_ofstreamIcNS_11char_traitsIcEEEE = comdat any

$_ZTTNSt3__h14basic_ofstreamIcNS_11char_traitsIcEEEE = comdat any

$_ZTCNSt3__h14basic_ofstreamIcNS_11char_traitsIcEEEE0_NS_13basic_ostreamIcS2_EE = comdat any

$_ZTVNSt3__h13basic_filebufIcNS_11char_traitsIcEEEE = comdat any

$_ZTVNSt3__h14basic_ifstreamIcNS_11char_traitsIcEEEE = comdat any

$_ZTTNSt3__h14basic_ifstreamIcNS_11char_traitsIcEEEE = comdat any

$_ZTCNSt3__h14basic_ifstreamIcNS_11char_traitsIcEEEE0_NS_13basic_istreamIcS2_EE = comdat any

@.str = private unnamed_addr constant [12 x i8] c"/etc/shadow\00", align 1, !dbg !0
@.str.1 = private unnamed_addr constant [17 x i8] c"/home/ubuntu/log\00", align 1, !dbg !8
@.str.2 = private unnamed_addr constant [11 x i8] c"hello word\00", align 1, !dbg !13
@_ZNSt3__h4coutE = external global %"class.std::__h::basic_ostream", align 4
@.str.3 = private unnamed_addr constant [10 x i8] c"HelloWord\00", align 1, !dbg !18
@.str.4 = private unnamed_addr constant [2 x i8] c"r\00", align 1, !dbg !23
@.str.5 = private unnamed_addr constant [2 x i8] c"a\00", align 1, !dbg !28
@.str.6 = private unnamed_addr constant [3 x i8] c"%s\00", align 1, !dbg !30
@.str.7 = private unnamed_addr constant [4 x i8] c"%d\0A\00", align 1, !dbg !35
@.str.8 = private unnamed_addr constant [12 x i8] c"hello word\0A\00", align 1, !dbg !40
@_ZTVNSt3__h14basic_ofstreamIcNS_11char_traitsIcEEEE = linkonce_odr unnamed_addr constant { [5 x ptr], [5 x ptr] } { [5 x ptr] [ptr inttoptr (i32 104 to ptr), ptr null, ptr null, ptr @_ZNSt3__h14basic_ofstreamIcNS_11char_traitsIcEEED1Ev, ptr @_ZNSt3__h14basic_ofstreamIcNS_11char_traitsIcEEED0Ev], [5 x ptr] [ptr inttoptr (i32 -104 to ptr), ptr inttoptr (i32 -104 to ptr), ptr null, ptr @_ZTv0_n12_NSt3__h14basic_ofstreamIcNS_11char_traitsIcEEED1Ev, ptr @_ZTv0_n12_NSt3__h14basic_ofstreamIcNS_11char_traitsIcEEED0Ev] }, comdat, align 4, !type !42, !type !43, !type !44, !type !45
@_ZTTNSt3__h14basic_ofstreamIcNS_11char_traitsIcEEEE = linkonce_odr unnamed_addr constant [4 x ptr] [ptr getelementptr inbounds ({ [5 x ptr], [5 x ptr] }, ptr @_ZTVNSt3__h14basic_ofstreamIcNS_11char_traitsIcEEEE, i32 0, inrange i32 0, i32 3), ptr getelementptr inbounds ({ [5 x ptr], [5 x ptr] }, ptr @_ZTCNSt3__h14basic_ofstreamIcNS_11char_traitsIcEEEE0_NS_13basic_ostreamIcS2_EE, i32 0, inrange i32 0, i32 3), ptr getelementptr inbounds ({ [5 x ptr], [5 x ptr] }, ptr @_ZTCNSt3__h14basic_ofstreamIcNS_11char_traitsIcEEEE0_NS_13basic_ostreamIcS2_EE, i32 0, inrange i32 1, i32 3), ptr getelementptr inbounds ({ [5 x ptr], [5 x ptr] }, ptr @_ZTVNSt3__h14basic_ofstreamIcNS_11char_traitsIcEEEE, i32 0, inrange i32 1, i32 3)], comdat, align 4
@_ZTCNSt3__h14basic_ofstreamIcNS_11char_traitsIcEEEE0_NS_13basic_ostreamIcS2_EE = linkonce_odr unnamed_addr constant { [5 x ptr], [5 x ptr] } { [5 x ptr] [ptr inttoptr (i32 104 to ptr), ptr null, ptr null, ptr @_ZNSt3__h13basic_ostreamIcNS_11char_traitsIcEEED1Ev, ptr @_ZNSt3__h13basic_ostreamIcNS_11char_traitsIcEEED0Ev], [5 x ptr] [ptr inttoptr (i32 -104 to ptr), ptr inttoptr (i32 -104 to ptr), ptr null, ptr @_ZTv0_n12_NSt3__h13basic_ostreamIcNS_11char_traitsIcEEED1Ev, ptr @_ZTv0_n12_NSt3__h13basic_ostreamIcNS_11char_traitsIcEEED0Ev] }, comdat, align 4, !type !42, !type !44, !type !45
@_ZTVNSt3__h13basic_filebufIcNS_11char_traitsIcEEEE = linkonce_odr unnamed_addr constant { [16 x ptr] } { [16 x ptr] [ptr null, ptr null, ptr @_ZNSt3__h13basic_filebufIcNS_11char_traitsIcEEED2Ev, ptr @_ZNSt3__h13basic_filebufIcNS_11char_traitsIcEEED0Ev, ptr @_ZNSt3__h13basic_filebufIcNS_11char_traitsIcEEE5imbueERKNS_6localeE, ptr @_ZNSt3__h13basic_filebufIcNS_11char_traitsIcEEE6setbufEPci, ptr @_ZNSt3__h13basic_filebufIcNS_11char_traitsIcEEE7seekoffExNS_8ios_base7seekdirEj, ptr @_ZNSt3__h13basic_filebufIcNS_11char_traitsIcEEE7seekposENS_4fposI11__mbstate_tEEj, ptr @_ZNSt3__h13basic_filebufIcNS_11char_traitsIcEEE4syncEv, ptr @_ZNSt3__h15basic_streambufIcNS_11char_traitsIcEEE9showmanycEv, ptr @_ZNSt3__h15basic_streambufIcNS_11char_traitsIcEEE6xsgetnEPci, ptr @_ZNSt3__h13basic_filebufIcNS_11char_traitsIcEEE9underflowEv, ptr @_ZNSt3__h15basic_streambufIcNS_11char_traitsIcEEE5uflowEv, ptr @_ZNSt3__h13basic_filebufIcNS_11char_traitsIcEEE9pbackfailEi, ptr @_ZNSt3__h15basic_streambufIcNS_11char_traitsIcEEE6xsputnEPKci, ptr @_ZNSt3__h13basic_filebufIcNS_11char_traitsIcEEE8overflowEi] }, comdat, align 4, !type !46, !type !47, !type !48, !type !49, !type !50, !type !51, !type !52, !type !53, !type !54, !type !55, !type !56, !type !57, !type !58, !type !59, !type !60, !type !61, !type !62, !type !63, !type !64, !type !65, !type !66, !type !67, !type !68, !type !69, !type !70, !type !71
@_ZNSt3__h7codecvtIcc11__mbstate_tE2idE = external global %"class.std::__h::locale::id", align 4
@_ZTVNSt3__h14basic_ifstreamIcNS_11char_traitsIcEEEE = linkonce_odr unnamed_addr constant { [5 x ptr], [5 x ptr] } { [5 x ptr] [ptr inttoptr (i32 108 to ptr), ptr null, ptr null, ptr @_ZNSt3__h14basic_ifstreamIcNS_11char_traitsIcEEED1Ev, ptr @_ZNSt3__h14basic_ifstreamIcNS_11char_traitsIcEEED0Ev], [5 x ptr] [ptr inttoptr (i32 -108 to ptr), ptr inttoptr (i32 -108 to ptr), ptr null, ptr @_ZTv0_n12_NSt3__h14basic_ifstreamIcNS_11char_traitsIcEEED1Ev, ptr @_ZTv0_n12_NSt3__h14basic_ifstreamIcNS_11char_traitsIcEEED0Ev] }, comdat, align 4, !type !72, !type !73, !type !44, !type !45
@_ZTTNSt3__h14basic_ifstreamIcNS_11char_traitsIcEEEE = linkonce_odr unnamed_addr constant [4 x ptr] [ptr getelementptr inbounds ({ [5 x ptr], [5 x ptr] }, ptr @_ZTVNSt3__h14basic_ifstreamIcNS_11char_traitsIcEEEE, i32 0, inrange i32 0, i32 3), ptr getelementptr inbounds ({ [5 x ptr], [5 x ptr] }, ptr @_ZTCNSt3__h14basic_ifstreamIcNS_11char_traitsIcEEEE0_NS_13basic_istreamIcS2_EE, i32 0, inrange i32 0, i32 3), ptr getelementptr inbounds ({ [5 x ptr], [5 x ptr] }, ptr @_ZTCNSt3__h14basic_ifstreamIcNS_11char_traitsIcEEEE0_NS_13basic_istreamIcS2_EE, i32 0, inrange i32 1, i32 3), ptr getelementptr inbounds ({ [5 x ptr], [5 x ptr] }, ptr @_ZTVNSt3__h14basic_ifstreamIcNS_11char_traitsIcEEEE, i32 0, inrange i32 1, i32 3)], comdat, align 4
@_ZTCNSt3__h14basic_ifstreamIcNS_11char_traitsIcEEEE0_NS_13basic_istreamIcS2_EE = linkonce_odr unnamed_addr constant { [5 x ptr], [5 x ptr] } { [5 x ptr] [ptr inttoptr (i32 108 to ptr), ptr null, ptr null, ptr @_ZNSt3__h13basic_istreamIcNS_11char_traitsIcEEED1Ev, ptr @_ZNSt3__h13basic_istreamIcNS_11char_traitsIcEEED0Ev], [5 x ptr] [ptr inttoptr (i32 -108 to ptr), ptr inttoptr (i32 -108 to ptr), ptr null, ptr @_ZTv0_n12_NSt3__h13basic_istreamIcNS_11char_traitsIcEEED1Ev, ptr @_ZTv0_n12_NSt3__h13basic_istreamIcNS_11char_traitsIcEEED0Ev] }, comdat, align 4, !type !72, !type !44, !type !45
@_ZTVNSt3__h9basic_iosIcNS_11char_traitsIcEEEE = external unnamed_addr constant { [4 x ptr] }, align 4
@_ZTVNSt3__h8ios_baseE = external unnamed_addr constant { [4 x ptr] }, align 4
@.str.9 = private unnamed_addr constant [2 x i8] c"w\00", align 1, !dbg !74
@.str.10 = private unnamed_addr constant [3 x i8] c"r+\00", align 1, !dbg !77
@.str.11 = private unnamed_addr constant [3 x i8] c"w+\00", align 1, !dbg !79
@.str.12 = private unnamed_addr constant [3 x i8] c"a+\00", align 1, !dbg !81
@.str.13 = private unnamed_addr constant [3 x i8] c"wb\00", align 1, !dbg !83
@.str.14 = private unnamed_addr constant [3 x i8] c"ab\00", align 1, !dbg !85
@.str.15 = private unnamed_addr constant [3 x i8] c"rb\00", align 1, !dbg !87
@.str.16 = private unnamed_addr constant [4 x i8] c"r+b\00", align 1, !dbg !89
@.str.17 = private unnamed_addr constant [4 x i8] c"w+b\00", align 1, !dbg !91
@.str.18 = private unnamed_addr constant [4 x i8] c"a+b\00", align 1, !dbg !93
@_ZNSt3__h5ctypeIcE2idE = external global %"class.std::__h::locale::id", align 4
@_ZTVN4OHOS5SDemo9SDemoStubE = unnamed_addr constant { [25 x ptr], [13 x ptr], [8 x ptr], [15 x ptr] } { [25 x ptr] [ptr inttoptr (i32 72 to ptr), ptr inttoptr (i32 64 to ptr), ptr null, ptr null, ptr @_ZN4OHOS13IPCObjectStub17GetObjectRefCountEv, ptr @_ZN4OHOS13IPCObjectStub11SendRequestEjRNS_13MessageParcelES2_RNS_13MessageOptionE, ptr @_ZNK4OHOS13IPCObjectStub13IsProxyObjectEv, ptr @_ZNK4OHOS13IRemoteObject12IsObjectDeadEv, ptr @_ZN4OHOS13IRemoteObject22GetInterfaceDescriptorEv, ptr @_ZNK4OHOS13IRemoteObject19CheckObjectLegalityEv, ptr @_ZN4OHOS13IPCObjectStub17AddDeathRecipientERKNS_4sptrINS_13IRemoteObject14DeathRecipientEEE, ptr @_ZN4OHOS13IPCObjectStub20RemoveDeathRecipientERKNS_4sptrINS_13IRemoteObject14DeathRecipientEEE, ptr @_ZNK4OHOS13IRemoteObject11MarshallingERNS_6ParcelE, ptr @_ZN4OHOS11IRemoteStubINS_5SDemo13ISDemoServiceEE11AsInterfaceEv, ptr @_ZN4OHOS13IPCObjectStub4DumpEiRKNSt3__h6vectorINS1_12basic_stringIDsNS1_11char_traitsIDsEENS1_9allocatorIDsEEEENS6_IS8_EEEE, ptr @_ZN4OHOS5SDemo9SDemoStubD1Ev, ptr @_ZN4OHOS5SDemo9SDemoStubD0Ev, ptr @_ZN4OHOS5SDemo9SDemoStub15OnRemoteRequestEjRNS_13MessageParcelES3_RNS_13MessageOptionE, ptr @_ZN4OHOS13IPCObjectStub16OnFirstStrongRefEPKv, ptr @_ZN4OHOS13IPCObjectStub15OnLastStrongRefEPKv, ptr @_ZN4OHOS13IPCObjectStub12OnRemoteDumpEjRNS_13MessageParcelES2_RNS_13MessageOptionE, ptr @_ZN4OHOS13IPCObjectStub12ProcessProtoEjRNS_13MessageParcelES2_RNS_13MessageOptionE, ptr @_ZNK4OHOS13IPCObjectStub13GetObjectTypeEv, ptr @_ZN4OHOS13IPCObjectStub21GetAndSaveDBinderDataEij, ptr @_ZN4OHOS11IRemoteStubINS_5SDemo13ISDemoServiceEE8AsObjectEv], [13 x ptr] [ptr inttoptr (i32 12 to ptr), ptr inttoptr (i32 -60 to ptr), ptr null, ptr @_ZThn60_N4OHOS5SDemo9SDemoStubD1Ev, ptr @_ZThn60_N4OHOS5SDemo9SDemoStubD0Ev, ptr @_ZThn60_N4OHOS11IRemoteStubINS_5SDemo13ISDemoServiceEE8AsObjectEv, ptr @__cxa_pure_virtual, ptr @__cxa_pure_virtual, ptr @__cxa_pure_virtual, ptr @__cxa_pure_virtual, ptr @__cxa_pure_virtual, ptr @__cxa_pure_virtual, ptr @__cxa_pure_virtual], [8 x ptr] [ptr inttoptr (i32 -64 to ptr), ptr inttoptr (i32 -64 to ptr), ptr inttoptr (i32 8 to ptr), ptr inttoptr (i32 -64 to ptr), ptr null, ptr @_ZTv0_n16_N4OHOS5SDemo9SDemoStubD1Ev, ptr @_ZTv0_n16_N4OHOS5SDemo9SDemoStubD0Ev, ptr @_ZTv0_n20_NK4OHOS13IRemoteObject11MarshallingERNS_6ParcelE], [15 x ptr] [ptr null, ptr null, ptr inttoptr (i32 -72 to ptr), ptr inttoptr (i32 -72 to ptr), ptr null, ptr inttoptr (i32 -72 to ptr), ptr inttoptr (i32 -72 to ptr), ptr null, ptr @_ZTv0_n12_N4OHOS5SDemo9SDemoStubD1Ev, ptr @_ZTv0_n12_N4OHOS5SDemo9SDemoStubD0Ev, ptr @_ZN4OHOS7RefBase14RefPtrCallbackEv, ptr @_ZTv0_n20_N4OHOS13IPCObjectStub16OnFirstStrongRefEPKv, ptr @_ZTv0_n24_N4OHOS13IPCObjectStub15OnLastStrongRefEPKv, ptr @_ZN4OHOS7RefBase13OnLastWeakRefEPKv, ptr @_ZN4OHOS7RefBase17OnAttemptPromotedEPKv] }, align 4, !type !95, !type !96, !type !97, !type !98, !type !99, !type !100, !type !101, !type !102, !type !103, !type !104, !type !105, !type !106, !type !107, !type !108, !type !109, !type !110, !type !111, !type !112, !type !113, !type !114, !type !115, !type !116, !type !117, !type !118, !type !119, !type !120, !type !121, !type !122, !type !123, !type !124, !type !125, !type !126, !type !127, !type !128, !type !129, !type !130, !type !131, !type !132, !type !133, !type !134, !type !135, !type !136, !type !137, !type !138, !type !139, !type !140, !type !141, !type !142, !type !143, !type !144, !type !145, !type !146, !type !147, !type !148, !type !149, !type !150, !type !151, !type !152, !type !153, !type !154, !type !155, !type !156, !type !157, !type !158, !type !159, !type !160, !type !161, !type !162, !type !163, !type !164, !type !165, !type !166, !type !167, !type !168, !type !169, !type !170, !type !171, !type !172, !type !173, !type !174, !type !175, !type !176, !type !177, !type !178, !type !179, !type !180, !type !181, !type !182, !type !183, !type !184, !type !185, !type !186, !type !187, !type !188, !type !189, !type !190, !type !191, !type !192, !type !193, !type !194, !type !195, !type !196, !type !197, !type !198, !type !199, !type !200, !type !201, !type !202, !type !203, !type !204, !type !205, !type !206, !type !207, !type !208, !type !209, !type !210, !type !211, !type !212, !type !213, !type !214, !type !215, !type !216, !type !217, !type !218, !type !219, !type !220, !type !221, !type !222, !type !223, !type !224, !type !225, !type !226, !type !227, !type !228, !type !229, !type !230, !type !231, !type !232, !type !233, !type !234, !type !235, !type !236, !type !237, !type !238, !type !239, !type !240, !type !241, !type !242, !type !243, !type !244, !type !245, !type !246, !type !247, !type !248, !type !249, !type !250, !type !251, !type !252, !type !253, !type !254, !type !255, !type !256, !type !257, !type !258, !type !259, !type !260, !type !261, !type !262, !type !263, !type !264, !type !265, !type !266, !type !267, !type !268, !type !269, !type !270, !type !271, !type !272, !type !273, !type !274, !type !275, !type !276, !type !277, !type !278, !type !279, !type !280, !type !281, !type !282, !type !283, !type !284, !type !285, !type !286, !type !287, !type !288, !type !289, !type !290, !type !291, !type !292, !type !293, !type !294, !type !295, !type !296, !type !297, !type !298, !type !299, !type !300, !type !301, !type !302, !type !303, !type !304, !type !305, !type !306, !type !307, !type !308, !type !309, !type !310, !type !311, !type !312, !type !313, !type !314, !type !315, !type !316, !type !317, !type !318, !type !319, !type !320, !type !321, !type !322, !type !323, !type !324, !type !325, !type !326, !type !327, !type !328, !type !329, !type !330, !type !331, !type !332, !type !333, !type !334, !type !335, !type !336, !type !337, !type !338, !type !339, !type !340, !type !341, !type !342, !type !343, !type !344, !type !345, !type !346, !type !347, !type !348, !type !349, !type !350, !type !351, !type !352, !type !353, !type !354, !type !355, !type !356, !type !357, !type !358, !type !359, !type !360, !type !361, !type !362, !type !363, !type !364, !type !365, !type !366
@_ZTTN4OHOS5SDemo9SDemoStubE = unnamed_addr constant [20 x ptr] [ptr getelementptr inbounds ({ [25 x ptr], [13 x ptr], [8 x ptr], [15 x ptr] }, ptr @_ZTVN4OHOS5SDemo9SDemoStubE, i32 0, inrange i32 0, i32 4), ptr getelementptr inbounds ({ [25 x ptr], [13 x ptr], [8 x ptr], [15 x ptr] }, ptr @_ZTCN4OHOS5SDemo9SDemoStubE0_NS_11IRemoteStubINS0_13ISDemoServiceEEE, i32 0, inrange i32 0, i32 4), ptr getelementptr inbounds ({ [24 x ptr], [8 x ptr], [15 x ptr] }, ptr @_ZTCN4OHOS5SDemo9SDemoStubE0_NS_13IPCObjectStubE, i32 0, inrange i32 0, i32 4), ptr getelementptr inbounds ({ [17 x ptr], [8 x ptr], [15 x ptr] }, ptr @_ZTCN4OHOS5SDemo9SDemoStubE0_NS_13IRemoteObjectE, i32 0, inrange i32 0, i32 4), ptr getelementptr inbounds ({ [17 x ptr], [8 x ptr], [15 x ptr] }, ptr @_ZTCN4OHOS5SDemo9SDemoStubE0_NS_13IRemoteObjectE, i32 0, inrange i32 1, i32 5), ptr getelementptr inbounds ({ [17 x ptr], [8 x ptr], [15 x ptr] }, ptr @_ZTCN4OHOS5SDemo9SDemoStubE0_NS_13IRemoteObjectE, i32 0, inrange i32 2, i32 8), ptr getelementptr inbounds ({ [24 x ptr], [8 x ptr], [15 x ptr] }, ptr @_ZTCN4OHOS5SDemo9SDemoStubE0_NS_13IPCObjectStubE, i32 0, inrange i32 1, i32 5), ptr getelementptr inbounds ({ [24 x ptr], [8 x ptr], [15 x ptr] }, ptr @_ZTCN4OHOS5SDemo9SDemoStubE0_NS_13IPCObjectStubE, i32 0, inrange i32 2, i32 8), ptr getelementptr inbounds ({ [13 x ptr], [15 x ptr] }, ptr @_ZTCN4OHOS5SDemo9SDemoStubE60_NS0_13ISDemoServiceE, i32 0, inrange i32 0, i32 3), ptr getelementptr inbounds ({ [6 x ptr], [15 x ptr] }, ptr @_ZTCN4OHOS5SDemo9SDemoStubE60_NS_13IRemoteBrokerE, i32 0, inrange i32 0, i32 3), ptr getelementptr inbounds ({ [6 x ptr], [15 x ptr] }, ptr @_ZTCN4OHOS5SDemo9SDemoStubE60_NS_13IRemoteBrokerE, i32 0, inrange i32 1, i32 8), ptr getelementptr inbounds ({ [13 x ptr], [15 x ptr] }, ptr @_ZTCN4OHOS5SDemo9SDemoStubE60_NS0_13ISDemoServiceE, i32 0, inrange i32 1, i32 8), ptr getelementptr inbounds ({ [25 x ptr], [13 x ptr], [8 x ptr], [15 x ptr] }, ptr @_ZTCN4OHOS5SDemo9SDemoStubE0_NS_11IRemoteStubINS0_13ISDemoServiceEEE, i32 0, inrange i32 2, i32 5), ptr getelementptr inbounds ({ [25 x ptr], [13 x ptr], [8 x ptr], [15 x ptr] }, ptr @_ZTCN4OHOS5SDemo9SDemoStubE0_NS_11IRemoteStubINS0_13ISDemoServiceEEE, i32 0, inrange i32 3, i32 8), ptr getelementptr inbounds ({ [25 x ptr], [13 x ptr], [8 x ptr], [15 x ptr] }, ptr @_ZTCN4OHOS5SDemo9SDemoStubE0_NS_11IRemoteStubINS0_13ISDemoServiceEEE, i32 0, inrange i32 1, i32 3), ptr getelementptr inbounds ({ [25 x ptr], [13 x ptr], [8 x ptr], [15 x ptr] }, ptr @_ZTVN4OHOS5SDemo9SDemoStubE, i32 0, inrange i32 2, i32 5), ptr getelementptr inbounds ({ [25 x ptr], [13 x ptr], [8 x ptr], [15 x ptr] }, ptr @_ZTVN4OHOS5SDemo9SDemoStubE, i32 0, inrange i32 3, i32 8), ptr getelementptr inbounds ({ [25 x ptr], [13 x ptr], [8 x ptr], [15 x ptr] }, ptr @_ZTVN4OHOS5SDemo9SDemoStubE, i32 0, inrange i32 1, i32 3), ptr getelementptr inbounds ({ [8 x ptr], [15 x ptr] }, ptr @_ZTCN4OHOS5SDemo9SDemoStubE64_NS_10ParcelableE, i32 0, inrange i32 0, i32 5), ptr getelementptr inbounds ({ [8 x ptr], [15 x ptr] }, ptr @_ZTCN4OHOS5SDemo9SDemoStubE64_NS_10ParcelableE, i32 0, inrange i32 1, i32 8)], align 4
@_ZTCN4OHOS5SDemo9SDemoStubE0_NS_11IRemoteStubINS0_13ISDemoServiceEEE = unnamed_addr constant { [25 x ptr], [13 x ptr], [8 x ptr], [15 x ptr] } { [25 x ptr] [ptr inttoptr (i32 72 to ptr), ptr inttoptr (i32 64 to ptr), ptr null, ptr null, ptr @_ZN4OHOS13IPCObjectStub17GetObjectRefCountEv, ptr @_ZN4OHOS13IPCObjectStub11SendRequestEjRNS_13MessageParcelES2_RNS_13MessageOptionE, ptr @_ZNK4OHOS13IPCObjectStub13IsProxyObjectEv, ptr @_ZNK4OHOS13IRemoteObject12IsObjectDeadEv, ptr @_ZN4OHOS13IRemoteObject22GetInterfaceDescriptorEv, ptr @_ZNK4OHOS13IRemoteObject19CheckObjectLegalityEv, ptr @_ZN4OHOS13IPCObjectStub17AddDeathRecipientERKNS_4sptrINS_13IRemoteObject14DeathRecipientEEE, ptr @_ZN4OHOS13IPCObjectStub20RemoveDeathRecipientERKNS_4sptrINS_13IRemoteObject14DeathRecipientEEE, ptr @_ZNK4OHOS13IRemoteObject11MarshallingERNS_6ParcelE, ptr @_ZN4OHOS11IRemoteStubINS_5SDemo13ISDemoServiceEE11AsInterfaceEv, ptr @_ZN4OHOS13IPCObjectStub4DumpEiRKNSt3__h6vectorINS1_12basic_stringIDsNS1_11char_traitsIDsEENS1_9allocatorIDsEEEENS6_IS8_EEEE, ptr @_ZN4OHOS11IRemoteStubINS_5SDemo13ISDemoServiceEED1Ev, ptr @_ZN4OHOS11IRemoteStubINS_5SDemo13ISDemoServiceEED0Ev, ptr @_ZN4OHOS13IPCObjectStub15OnRemoteRequestEjRNS_13MessageParcelES2_RNS_13MessageOptionE, ptr @_ZN4OHOS13IPCObjectStub16OnFirstStrongRefEPKv, ptr @_ZN4OHOS13IPCObjectStub15OnLastStrongRefEPKv, ptr @_ZN4OHOS13IPCObjectStub12OnRemoteDumpEjRNS_13MessageParcelES2_RNS_13MessageOptionE, ptr @_ZN4OHOS13IPCObjectStub12ProcessProtoEjRNS_13MessageParcelES2_RNS_13MessageOptionE, ptr @_ZNK4OHOS13IPCObjectStub13GetObjectTypeEv, ptr @_ZN4OHOS13IPCObjectStub21GetAndSaveDBinderDataEij, ptr @_ZN4OHOS11IRemoteStubINS_5SDemo13ISDemoServiceEE8AsObjectEv], [13 x ptr] [ptr inttoptr (i32 12 to ptr), ptr inttoptr (i32 -60 to ptr), ptr null, ptr @_ZThn60_N4OHOS11IRemoteStubINS_5SDemo13ISDemoServiceEED1Ev, ptr @_ZThn60_N4OHOS11IRemoteStubINS_5SDemo13ISDemoServiceEED0Ev, ptr @_ZThn60_N4OHOS11IRemoteStubINS_5SDemo13ISDemoServiceEE8AsObjectEv, ptr @__cxa_pure_virtual, ptr @__cxa_pure_virtual, ptr @__cxa_pure_virtual, ptr @__cxa_pure_virtual, ptr @__cxa_pure_virtual, ptr @__cxa_pure_virtual, ptr @__cxa_pure_virtual], [8 x ptr] [ptr inttoptr (i32 -64 to ptr), ptr inttoptr (i32 -64 to ptr), ptr inttoptr (i32 8 to ptr), ptr inttoptr (i32 -64 to ptr), ptr null, ptr @_ZTv0_n16_N4OHOS11IRemoteStubINS_5SDemo13ISDemoServiceEED1Ev, ptr @_ZTv0_n16_N4OHOS11IRemoteStubINS_5SDemo13ISDemoServiceEED0Ev, ptr @_ZTv0_n20_NK4OHOS13IRemoteObject11MarshallingERNS_6ParcelE], [15 x ptr] [ptr null, ptr null, ptr inttoptr (i32 -72 to ptr), ptr inttoptr (i32 -72 to ptr), ptr null, ptr inttoptr (i32 -72 to ptr), ptr inttoptr (i32 -72 to ptr), ptr null, ptr @_ZTv0_n12_N4OHOS11IRemoteStubINS_5SDemo13ISDemoServiceEED1Ev, ptr @_ZTv0_n12_N4OHOS11IRemoteStubINS_5SDemo13ISDemoServiceEED0Ev, ptr @_ZN4OHOS7RefBase14RefPtrCallbackEv, ptr @_ZTv0_n20_N4OHOS13IPCObjectStub16OnFirstStrongRefEPKv, ptr @_ZTv0_n24_N4OHOS13IPCObjectStub15OnLastStrongRefEPKv, ptr @_ZN4OHOS7RefBase13OnLastWeakRefEPKv, ptr @_ZN4OHOS7RefBase17OnAttemptPromotedEPKv] }, align 4, !type !95, !type !96, !type !97, !type !98, !type !99, !type !100, !type !101, !type !102, !type !103, !type !104, !type !105, !type !106, !type !107, !type !108, !type !109, !type !110, !type !111, !type !112, !type !113, !type !114, !type !115, !type !116, !type !117, !type !118, !type !119, !type !120, !type !121, !type !122, !type !123, !type !124, !type !125, !type !126, !type !127, !type !128, !type !129, !type !130, !type !131, !type !132, !type !133, !type !134, !type !135, !type !136, !type !137, !type !138, !type !139, !type !140, !type !141, !type !142, !type !143, !type !144, !type !145, !type !146, !type !147, !type !148, !type !149, !type !150, !type !151, !type !152, !type !153, !type !154, !type !155, !type !156, !type !157, !type !158, !type !159, !type !160, !type !161, !type !162, !type !163, !type !164, !type !165, !type !166, !type !167, !type !168, !type !169, !type !170, !type !171, !type !172, !type !173, !type !174, !type !175, !type !176, !type !177, !type !178, !type !179, !type !180, !type !181, !type !182, !type !183, !type !184, !type !185, !type !186, !type !187, !type !188, !type !189, !type !190, !type !191, !type !192, !type !193, !type !194, !type !195, !type !196, !type !197, !type !198, !type !199, !type !200, !type !201, !type !202, !type !203, !type !204, !type !205, !type !206, !type !207, !type !208, !type !209, !type !210, !type !211, !type !212, !type !213, !type !214, !type !215, !type !216, !type !217, !type !218, !type !219, !type !220, !type !221, !type !222, !type !223, !type !224, !type !225, !type !226, !type !227, !type !228, !type !229, !type !230, !type !231, !type !232, !type !233, !type !234, !type !235, !type !236, !type !237, !type !238, !type !239, !type !240, !type !241, !type !242, !type !243, !type !244, !type !245, !type !246, !type !247, !type !248, !type !249, !type !250, !type !251, !type !252, !type !253, !type !254, !type !255, !type !256, !type !257, !type !258, !type !259, !type !260, !type !261, !type !262, !type !263, !type !264, !type !265, !type !266, !type !267, !type !268, !type !269, !type !270, !type !271, !type !272, !type !273, !type !274, !type !275, !type !276, !type !277, !type !278, !type !279, !type !280, !type !281, !type !282, !type !283, !type !284, !type !285, !type !286, !type !287, !type !288, !type !289, !type !290, !type !291, !type !292, !type !293, !type !294, !type !295, !type !296, !type !297, !type !298, !type !333, !type !334, !type !335, !type !336, !type !337, !type !338, !type !339, !type !340, !type !341, !type !342, !type !343, !type !344, !type !345, !type !346, !type !347, !type !348, !type !349, !type !350, !type !351, !type !352, !type !353, !type !354, !type !355, !type !356, !type !357, !type !358, !type !359, !type !360, !type !361, !type !362, !type !363, !type !364, !type !365, !type !366, !type !95, !type !96, !type !97, !type !98, !type !99, !type !100, !type !101, !type !102, !type !103, !type !104, !type !105, !type !106, !type !107, !type !108, !type !109, !type !110, !type !111, !type !112, !type !113, !type !114, !type !115, !type !116, !type !117, !type !118, !type !119, !type !120, !type !121, !type !122, !type !123, !type !124, !type !125, !type !126, !type !127, !type !128, !type !129, !type !130, !type !131, !type !132, !type !133, !type !134, !type !135, !type !136, !type !137, !type !138, !type !139, !type !140, !type !141, !type !142, !type !143, !type !144, !type !145, !type !146, !type !147, !type !148, !type !149, !type !150, !type !151, !type !152, !type !153, !type !154, !type !155, !type !156, !type !157, !type !158, !type !159, !type !160, !type !161, !type !162, !type !163, !type !164, !type !165, !type !166, !type !167, !type !168, !type !169, !type !170, !type !171, !type !172, !type !173, !type !174, !type !175, !type !176, !type !177, !type !178, !type !179, !type !180, !type !181, !type !182, !type !183, !type !184, !type !185, !type !186, !type !187, !type !188, !type !189, !type !190, !type !191, !type !192, !type !193, !type !194, !type !195, !type !196, !type !197, !type !198, !type !199, !type !200, !type !201, !type !202, !type !203, !type !204, !type !205, !type !206, !type !207, !type !208, !type !209, !type !210, !type !211, !type !212, !type !213, !type !214, !type !215, !type !216, !type !217, !type !218, !type !219, !type !220, !type !221, !type !222, !type !223, !type !224, !type !225, !type !226, !type !227, !type !228, !type !229, !type !230, !type !231, !type !232, !type !233, !type !234, !type !235, !type !236, !type !237, !type !238, !type !239, !type !240, !type !241, !type !242, !type !243, !type !244, !type !245, !type !246, !type !247, !type !248, !type !249, !type !250, !type !251, !type !252, !type !253, !type !254, !type !255, !type !256, !type !257, !type !258, !type !259, !type !260, !type !261, !type !262, !type !263, !type !264, !type !265, !type !266, !type !267, !type !268, !type !269, !type !270, !type !271, !type !272, !type !273, !type !274, !type !275, !type !276, !type !277, !type !278, !type !279, !type !280, !type !281, !type !282, !type !283, !type !284, !type !285, !type !286, !type !287, !type !288, !type !289, !type !290, !type !291, !type !292, !type !293, !type !294, !type !295, !type !296, !type !297, !type !298, !type !333, !type !334, !type !335, !type !336, !type !337, !type !338, !type !339, !type !340, !type !341, !type !342, !type !343, !type !344, !type !345, !type !346, !type !347, !type !348, !type !349, !type !350, !type !351, !type !352, !type !353, !type !354, !type !355, !type !356, !type !357, !type !358, !type !359, !type !360, !type !361, !type !362, !type !363, !type !364, !type !365, !type !366, !type !95, !type !96, !type !97, !type !98, !type !99, !type !100, !type !101, !type !102, !type !103, !type !104, !type !105, !type !106, !type !107, !type !108, !type !109, !type !110, !type !111, !type !112, !type !113, !type !114, !type !115, !type !116, !type !117, !type !118, !type !119, !type !120, !type !121, !type !122, !type !123, !type !124, !type !125, !type !126, !type !127, !type !128, !type !129, !type !130, !type !131, !type !132, !type !133, !type !134, !type !135, !type !136, !type !137, !type !138, !type !139, !type !140, !type !141, !type !142, !type !143, !type !144, !type !145, !type !146, !type !147, !type !148, !type !149, !type !150, !type !151, !type !152, !type !153, !type !154, !type !155, !type !156, !type !157, !type !158, !type !159, !type !160, !type !161, !type !162, !type !163, !type !164, !type !165, !type !166, !type !167, !type !168, !type !169, !type !170, !type !171, !type !172, !type !173, !type !174, !type !175, !type !176, !type !177, !type !178, !type !179, !type !180, !type !181, !type !182, !type !183, !type !184, !type !185, !type !186, !type !187, !type !188, !type !189, !type !190, !type !191, !type !192, !type !193, !type !194, !type !195, !type !196, !type !197, !type !198, !type !199, !type !200, !type !201, !type !202, !type !203, !type !204, !type !205, !type !206, !type !207, !type !208, !type !209, !type !210, !type !211, !type !212, !type !213, !type !214, !type !215, !type !216, !type !217, !type !218, !type !219, !type !220, !type !221, !type !222, !type !223, !type !224, !type !225, !type !226, !type !227, !type !228, !type !229, !type !230, !type !231, !type !232, !type !233, !type !234, !type !235, !type !236, !type !237, !type !238, !type !239, !type !240, !type !241, !type !242, !type !243, !type !244, !type !245, !type !246, !type !247, !type !248, !type !249, !type !250, !type !251, !type !252, !type !253, !type !254, !type !255, !type !256, !type !257, !type !258, !type !259, !type !260, !type !261, !type !262, !type !263, !type !264, !type !265, !type !266, !type !267, !type !268, !type !269, !type !270, !type !271, !type !272, !type !273, !type !274, !type !275, !type !276, !type !277, !type !278, !type !279, !type !280, !type !281, !type !282, !type !283, !type !284, !type !285, !type !286, !type !287, !type !288, !type !289, !type !290, !type !291, !type !292, !type !293, !type !294, !type !295, !type !296, !type !297, !type !298, !type !333, !type !334, !type !335, !type !336, !type !337, !type !338, !type !339, !type !340, !type !341, !type !342, !type !343, !type !344, !type !345, !type !346, !type !347, !type !348, !type !349, !type !350, !type !351, !type !352, !type !353, !type !354, !type !355, !type !356, !type !357, !type !358, !type !359, !type !360, !type !361, !type !362, !type !363, !type !364, !type !365, !type !366
@_ZTCN4OHOS5SDemo9SDemoStubE0_NS_13IPCObjectStubE = unnamed_addr constant { [24 x ptr], [8 x ptr], [15 x ptr] } { [24 x ptr] [ptr inttoptr (i32 72 to ptr), ptr inttoptr (i32 64 to ptr), ptr null, ptr null, ptr @_ZN4OHOS13IPCObjectStub17GetObjectRefCountEv, ptr @_ZN4OHOS13IPCObjectStub11SendRequestEjRNS_13MessageParcelES2_RNS_13MessageOptionE, ptr @_ZNK4OHOS13IPCObjectStub13IsProxyObjectEv, ptr @_ZNK4OHOS13IRemoteObject12IsObjectDeadEv, ptr @_ZN4OHOS13IRemoteObject22GetInterfaceDescriptorEv, ptr @_ZNK4OHOS13IRemoteObject19CheckObjectLegalityEv, ptr @_ZN4OHOS13IPCObjectStub17AddDeathRecipientERKNS_4sptrINS_13IRemoteObject14DeathRecipientEEE, ptr @_ZN4OHOS13IPCObjectStub20RemoveDeathRecipientERKNS_4sptrINS_13IRemoteObject14DeathRecipientEEE, ptr @_ZNK4OHOS13IRemoteObject11MarshallingERNS_6ParcelE, ptr @_ZN4OHOS13IRemoteObject11AsInterfaceEv, ptr @_ZN4OHOS13IPCObjectStub4DumpEiRKNSt3__h6vectorINS1_12basic_stringIDsNS1_11char_traitsIDsEENS1_9allocatorIDsEEEENS6_IS8_EEEE, ptr @_ZN4OHOS13IPCObjectStubD1Ev, ptr @_ZN4OHOS13IPCObjectStubD0Ev, ptr @_ZN4OHOS13IPCObjectStub15OnRemoteRequestEjRNS_13MessageParcelES2_RNS_13MessageOptionE, ptr @_ZN4OHOS13IPCObjectStub16OnFirstStrongRefEPKv, ptr @_ZN4OHOS13IPCObjectStub15OnLastStrongRefEPKv, ptr @_ZN4OHOS13IPCObjectStub12OnRemoteDumpEjRNS_13MessageParcelES2_RNS_13MessageOptionE, ptr @_ZN4OHOS13IPCObjectStub12ProcessProtoEjRNS_13MessageParcelES2_RNS_13MessageOptionE, ptr @_ZNK4OHOS13IPCObjectStub13GetObjectTypeEv, ptr @_ZN4OHOS13IPCObjectStub21GetAndSaveDBinderDataEij], [8 x ptr] [ptr inttoptr (i32 -64 to ptr), ptr inttoptr (i32 -64 to ptr), ptr inttoptr (i32 8 to ptr), ptr inttoptr (i32 -64 to ptr), ptr null, ptr @_ZTv0_n16_N4OHOS13IPCObjectStubD1Ev, ptr @_ZTv0_n16_N4OHOS13IPCObjectStubD0Ev, ptr @_ZTv0_n20_NK4OHOS13IRemoteObject11MarshallingERNS_6ParcelE], [15 x ptr] [ptr null, ptr null, ptr inttoptr (i32 -72 to ptr), ptr inttoptr (i32 -72 to ptr), ptr null, ptr inttoptr (i32 -72 to ptr), ptr inttoptr (i32 -72 to ptr), ptr null, ptr @_ZTv0_n12_N4OHOS13IPCObjectStubD1Ev, ptr @_ZTv0_n12_N4OHOS13IPCObjectStubD0Ev, ptr @_ZN4OHOS7RefBase14RefPtrCallbackEv, ptr @_ZTv0_n20_N4OHOS13IPCObjectStub16OnFirstStrongRefEPKv, ptr @_ZTv0_n24_N4OHOS13IPCObjectStub15OnLastStrongRefEPKv, ptr @_ZN4OHOS7RefBase13OnLastWeakRefEPKv, ptr @_ZN4OHOS7RefBase17OnAttemptPromotedEPKv] }, align 4, !type !367, !type !96, !type !97, !type !98, !type !99, !type !100, !type !101, !type !102, !type !103, !type !104, !type !105, !type !106, !type !107, !type !108, !type !109, !type !110, !type !111, !type !112, !type !113, !type !368, !type !369, !type !370, !type !371, !type !372, !type !373, !type !163, !type !164, !type !165, !type !166, !type !167, !type !168, !type !169, !type !170, !type !171, !type !172, !type !173, !type !174, !type !175, !type !176, !type !177, !type !178, !type !179, !type !180, !type !181, !type !374, !type !375, !type !376, !type !377, !type !378, !type !379, !type !231, !type !232, !type !233, !type !234, !type !235, !type !236, !type !237, !type !238, !type !239, !type !240, !type !241, !type !242, !type !243, !type !244, !type !245, !type !246, !type !247, !type !248, !type !249, !type !380, !type !381, !type !382, !type !383, !type !384, !type !385, !type !386, !type !334, !type !335, !type !336, !type !337, !type !338, !type !339, !type !340, !type !341, !type !342, !type !343, !type !344, !type !345, !type !346, !type !347, !type !348, !type !349, !type !350, !type !351, !type !387, !type !388, !type !389, !type !390, !type !391, !type !392, !type !367, !type !96, !type !97, !type !98, !type !99, !type !100, !type !101, !type !102, !type !103, !type !104, !type !105, !type !106, !type !107, !type !108, !type !109, !type !110, !type !111, !type !112, !type !113, !type !368, !type !369, !type !370, !type !371, !type !372, !type !373, !type !163, !type !164, !type !165, !type !166, !type !167, !type !168, !type !169, !type !170, !type !171, !type !172, !type !173, !type !174, !type !175, !type !176, !type !177, !type !178, !type !179, !type !180, !type !181, !type !374, !type !375, !type !376, !type !377, !type !378, !type !379, !type !231, !type !232, !type !233, !type !234, !type !235, !type !236, !type !237, !type !238, !type !239, !type !240, !type !241, !type !242, !type !243, !type !244, !type !245, !type !246, !type !247, !type !248, !type !249, !type !380, !type !381, !type !382, !type !383, !type !384, !type !385, !type !386, !type !334, !type !335, !type !336, !type !337, !type !338, !type !339, !type !340, !type !341, !type !342, !type !343, !type !344, !type !345, !type !346, !type !347, !type !348, !type !349, !type !350, !type !351, !type !387, !type !388, !type !389, !type !390, !type !391, !type !392, !type !367, !type !96, !type !97, !type !98, !type !99, !type !100, !type !101, !type !102, !type !103, !type !104, !type !105, !type !106, !type !107, !type !108, !type !109, !type !110, !type !111, !type !112, !type !113, !type !368, !type !369, !type !370, !type !371, !type !372, !type !373, !type !163, !type !164, !type !165, !type !166, !type !167, !type !168, !type !169, !type !170, !type !171, !type !172, !type !173, !type !174, !type !175, !type !176, !type !177, !type !178, !type !179, !type !180, !type !181, !type !374, !type !375, !type !376, !type !377, !type !378, !type !379, !type !231, !type !232, !type !233, !type !234, !type !235, !type !236, !type !237, !type !238, !type !239, !type !240, !type !241, !type !242, !type !243, !type !244, !type !245, !type !246, !type !247, !type !248, !type !249, !type !380, !type !381, !type !382, !type !383, !type !384, !type !385, !type !386, !type !334, !type !335, !type !336, !type !337, !type !338, !type !339, !type !340, !type !341, !type !342, !type !343, !type !344, !type !345, !type !346, !type !347, !type !348, !type !349, !type !350, !type !351, !type !387, !type !388, !type !389, !type !390, !type !391, !type !392
@_ZTCN4OHOS5SDemo9SDemoStubE0_NS_13IRemoteObjectE = unnamed_addr constant { [17 x ptr], [8 x ptr], [15 x ptr] } { [17 x ptr] [ptr inttoptr (i32 72 to ptr), ptr inttoptr (i32 64 to ptr), ptr null, ptr null, ptr @__cxa_pure_virtual, ptr @__cxa_pure_virtual, ptr @_ZNK4OHOS13IRemoteObject13IsProxyObjectEv, ptr @_ZNK4OHOS13IRemoteObject12IsObjectDeadEv, ptr @_ZN4OHOS13IRemoteObject22GetInterfaceDescriptorEv, ptr @_ZNK4OHOS13IRemoteObject19CheckObjectLegalityEv, ptr @__cxa_pure_virtual, ptr @__cxa_pure_virtual, ptr @_ZNK4OHOS13IRemoteObject11MarshallingERNS_6ParcelE, ptr @_ZN4OHOS13IRemoteObject11AsInterfaceEv, ptr @__cxa_pure_virtual, ptr @_ZN4OHOS13IRemoteObjectD1Ev, ptr @_ZN4OHOS13IRemoteObjectD0Ev], [8 x ptr] [ptr inttoptr (i32 -64 to ptr), ptr inttoptr (i32 -64 to ptr), ptr inttoptr (i32 8 to ptr), ptr inttoptr (i32 -64 to ptr), ptr null, ptr @_ZTv0_n16_N4OHOS13IRemoteObjectD1Ev, ptr @_ZTv0_n16_N4OHOS13IRemoteObjectD0Ev, ptr @_ZTv0_n20_NK4OHOS13IRemoteObject11MarshallingERNS_6ParcelE], [15 x ptr] [ptr null, ptr null, ptr null, ptr null, ptr null, ptr inttoptr (i32 -72 to ptr), ptr inttoptr (i32 -72 to ptr), ptr null, ptr @_ZTv0_n12_N4OHOS13IRemoteObjectD1Ev, ptr @_ZTv0_n12_N4OHOS13IRemoteObjectD0Ev, ptr @_ZN4OHOS7RefBase14RefPtrCallbackEv, ptr @_ZN4OHOS7RefBase16OnFirstStrongRefEPKv, ptr @_ZN4OHOS7RefBase15OnLastStrongRefEPKv, ptr @_ZN4OHOS7RefBase13OnLastWeakRefEPKv, ptr @_ZN4OHOS7RefBase17OnAttemptPromotedEPKv] }, align 4, !type !393, !type !96, !type !97, !type !98, !type !99, !type !100, !type !101, !type !102, !type !103, !type !104, !type !105, !type !106, !type !394, !type !395, !type !396, !type !397, !type !398, !type !399, !type !231, !type !232, !type !233, !type !234, !type !235, !type !236, !type !237, !type !238, !type !239, !type !240, !type !241, !type !242, !type !400, !type !401, !type !402, !type !403, !type !404, !type !405, !type !406, !type !334, !type !335, !type !336, !type !337, !type !338, !type !339, !type !340, !type !341, !type !342, !type !343, !type !344, !type !407, !type !408, !type !409, !type !410, !type !411, !type !412, !type !393, !type !96, !type !97, !type !98, !type !99, !type !100, !type !101, !type !102, !type !103, !type !104, !type !105, !type !106, !type !394, !type !395, !type !396, !type !397, !type !398, !type !399, !type !231, !type !232, !type !233, !type !234, !type !235, !type !236, !type !237, !type !238, !type !239, !type !240, !type !241, !type !242, !type !400, !type !401, !type !402, !type !403, !type !404, !type !405, !type !406, !type !334, !type !335, !type !336, !type !337, !type !338, !type !339, !type !340, !type !341, !type !342, !type !343, !type !344, !type !407, !type !408, !type !409, !type !410, !type !411, !type !412, !type !393, !type !96, !type !97, !type !98, !type !99, !type !100, !type !101, !type !102, !type !103, !type !104, !type !105, !type !106, !type !394, !type !395, !type !396, !type !397, !type !398, !type !399, !type !231, !type !232, !type !233, !type !234, !type !235, !type !236, !type !237, !type !238, !type !239, !type !240, !type !241, !type !242, !type !400, !type !401, !type !402, !type !403, !type !404, !type !405, !type !406, !type !334, !type !335, !type !336, !type !337, !type !338, !type !339, !type !340, !type !341, !type !342, !type !343, !type !344, !type !407, !type !408, !type !409, !type !410, !type !411, !type !412
@_ZTCN4OHOS5SDemo9SDemoStubE60_NS0_13ISDemoServiceE = unnamed_addr constant { [13 x ptr], [15 x ptr] } { [13 x ptr] [ptr inttoptr (i32 12 to ptr), ptr null, ptr null, ptr @_ZN4OHOS5SDemo13ISDemoServiceD1Ev, ptr @_ZN4OHOS5SDemo13ISDemoServiceD0Ev, ptr @__cxa_pure_virtual, ptr @__cxa_pure_virtual, ptr @__cxa_pure_virtual, ptr @__cxa_pure_virtual, ptr @__cxa_pure_virtual, ptr @__cxa_pure_virtual, ptr @__cxa_pure_virtual, ptr @__cxa_pure_virtual], [15 x ptr] [ptr null, ptr null, ptr null, ptr null, ptr null, ptr inttoptr (i32 -12 to ptr), ptr inttoptr (i32 -12 to ptr), ptr null, ptr @_ZTv0_n12_N4OHOS5SDemo13ISDemoServiceD1Ev, ptr @_ZTv0_n12_N4OHOS5SDemo13ISDemoServiceD0Ev, ptr @_ZN4OHOS7RefBase14RefPtrCallbackEv, ptr @_ZN4OHOS7RefBase16OnFirstStrongRefEPKv, ptr @_ZN4OHOS7RefBase15OnLastStrongRefEPKv, ptr @_ZN4OHOS7RefBase13OnLastWeakRefEPKv, ptr @_ZN4OHOS7RefBase17OnAttemptPromotedEPKv] }, align 4, !type !413, !type !414, !type !415, !type !416, !type !417, !type !418, !type !419, !type !420, !type !421, !type !422, !type !423, !type !424, !type !425, !type !426, !type !427, !type !428, !type !429, !type !430, !type !431, !type !432, !type !433, !type !434, !type !435, !type !436, !type !437, !type !438, !type !439, !type !440, !type !441, !type !442, !type !443, !type !444, !type !445, !type !446, !type !447, !type !448, !type !449, !type !450, !type !451, !type !452, !type !453, !type !454, !type !413, !type !414, !type !415, !type !416, !type !417, !type !418, !type !419, !type !420, !type !421, !type !422, !type !423, !type !424, !type !425, !type !426, !type !427, !type !428, !type !429, !type !430, !type !431, !type !432, !type !433, !type !434, !type !435, !type !436, !type !437, !type !438, !type !439, !type !440, !type !441, !type !442, !type !443, !type !444, !type !445, !type !446, !type !447, !type !448, !type !449, !type !450, !type !451, !type !452, !type !453, !type !454, !type !413, !type !414, !type !415, !type !416, !type !417, !type !418, !type !419, !type !420, !type !421, !type !422, !type !423, !type !424, !type !425, !type !426, !type !427, !type !428, !type !429, !type !430, !type !431, !type !432, !type !433, !type !434, !type !435, !type !436, !type !437, !type !438, !type !439, !type !440, !type !441, !type !442, !type !443, !type !444, !type !445, !type !446, !type !447, !type !448, !type !449, !type !450, !type !451, !type !452, !type !453, !type !454
@_ZTCN4OHOS5SDemo9SDemoStubE60_NS_13IRemoteBrokerE = unnamed_addr constant { [6 x ptr], [15 x ptr] } { [6 x ptr] [ptr inttoptr (i32 12 to ptr), ptr null, ptr null, ptr @_ZN4OHOS13IRemoteBrokerD1Ev, ptr @_ZN4OHOS13IRemoteBrokerD0Ev, ptr @__cxa_pure_virtual], [15 x ptr] [ptr null, ptr null, ptr null, ptr null, ptr null, ptr inttoptr (i32 -12 to ptr), ptr inttoptr (i32 -12 to ptr), ptr null, ptr @_ZTv0_n12_N4OHOS13IRemoteBrokerD1Ev, ptr @_ZTv0_n12_N4OHOS13IRemoteBrokerD0Ev, ptr @_ZN4OHOS7RefBase14RefPtrCallbackEv, ptr @_ZN4OHOS7RefBase16OnFirstStrongRefEPKv, ptr @_ZN4OHOS7RefBase15OnLastStrongRefEPKv, ptr @_ZN4OHOS7RefBase13OnLastWeakRefEPKv, ptr @_ZN4OHOS7RefBase17OnAttemptPromotedEPKv] }, align 4, !type !413, !type !414, !type !455, !type !456, !type !210, !type !211, !type !457, !type !458, !type !442, !type !459, !type !460, !type !346, !type !347, !type !461, !type !413, !type !414, !type !455, !type !456, !type !210, !type !211, !type !457, !type !458, !type !442, !type !459, !type !460, !type !346, !type !347, !type !461, !type !413, !type !414, !type !455, !type !456, !type !210, !type !211, !type !457, !type !458, !type !442, !type !459, !type !460, !type !346, !type !347, !type !461
@_ZTCN4OHOS5SDemo9SDemoStubE64_NS_10ParcelableE = unnamed_addr constant { [8 x ptr], [15 x ptr] } { [8 x ptr] [ptr null, ptr null, ptr inttoptr (i32 8 to ptr), ptr null, ptr null, ptr @_ZN4OHOS10ParcelableD1Ev, ptr @_ZN4OHOS10ParcelableD0Ev, ptr @__cxa_pure_virtual], [15 x ptr] [ptr null, ptr null, ptr null, ptr null, ptr null, ptr inttoptr (i32 -8 to ptr), ptr inttoptr (i32 -8 to ptr), ptr null, ptr @_ZTv0_n12_N4OHOS10ParcelableD1Ev, ptr @_ZTv0_n12_N4OHOS10ParcelableD0Ev, ptr @_ZN4OHOS7RefBase14RefPtrCallbackEv, ptr @_ZN4OHOS7RefBase16OnFirstStrongRefEPKv, ptr @_ZN4OHOS7RefBase15OnLastStrongRefEPKv, ptr @_ZN4OHOS7RefBase13OnLastWeakRefEPKv, ptr @_ZN4OHOS7RefBase17OnAttemptPromotedEPKv] }, align 4, !type !462, !type !463, !type !464, !type !109, !type !465, !type !466, !type !467, !type !468, !type !469, !type !470, !type !347, !type !471, !type !472, !type !473, !type !462, !type !463, !type !464, !type !109, !type !465, !type !466, !type !467, !type !468, !type !469, !type !470, !type !347, !type !471, !type !472, !type !473, !type !462, !type !463, !type !464, !type !109, !type !465, !type !466, !type !467, !type !468, !type !469, !type !470, !type !347, !type !471, !type !472, !type !473
@.str.19 = private unnamed_addr constant [25 x i16] [i16 79, i16 72, i16 79, i16 83, i16 46, i16 83, i16 68, i16 101, i16 109, i16 111, i16 46, i16 73, i16 83, i16 68, i16 101, i16 109, i16 111, i16 83, i16 101, i16 114, i16 118, i16 105, i16 99, i16 101, i16 0], align 2, !dbg !474
@.str.1.20 = private unnamed_addr constant [13 x i8] c"basic_string\00", align 1, !dbg !482
@llvm.global_ctors = appending global [1 x { i32, ptr, ptr }] [{ i32, ptr, ptr } { i32 65535, ptr @_GLOBAL__sub_I_sdemo_service.cpp, ptr null }]
@_ZN4OHOS5SDemoL27SDemoService_RegisterResultE = internal global i8 0, align 1, !dbg !488
@_ZTVN4OHOS5SDemo12SDemoServiceE = unnamed_addr constant { [25 x ptr], [25 x ptr], [13 x ptr], [8 x ptr], [15 x ptr] } { [25 x ptr] [ptr inttoptr (i32 176 to ptr), ptr inttoptr (i32 168 to ptr), ptr null, ptr null, ptr @_ZN4OHOS5SDemo12SDemoService12GetClassNameEv, ptr @_ZN4OHOS13SystemAbility6OnDumpEv, ptr @_ZN4OHOS5SDemo12SDemoService7OnStartEv, ptr @_ZN4OHOS13SystemAbility7OnStartERKNS_27SystemAbilityOnDemandReasonE, ptr @_ZN4OHOS13SystemAbility6OnIdleERKNS_27SystemAbilityOnDemandReasonE, ptr @_ZN4OHOS13SystemAbility8OnActiveERKNS_27SystemAbilityOnDemandReasonE, ptr @_ZN4OHOS5SDemo12SDemoService6OnStopEv, ptr @_ZN4OHOS13SystemAbility6OnStopERKNS_27SystemAbilityOnDemandReasonE, ptr @_ZN4OHOS13SystemAbility18OnAddSystemAbilityEiRKNSt3__h12basic_stringIcNS1_11char_traitsIcEENS1_9allocatorIcEEEE, ptr @_ZN4OHOS13SystemAbility21OnRemoveSystemAbilityEiRKNSt3__h12basic_stringIcNS1_11char_traitsIcEENS1_9allocatorIcEEEE, ptr @_ZN4OHOS5SDemo12SDemoServiceD1Ev, ptr @_ZN4OHOS5SDemo12SDemoServiceD0Ev, ptr @_ZN4OHOS13SystemAbility20OnDeviceLevelChangedEiiRNSt3__h12basic_stringIcNS1_11char_traitsIcEENS1_9allocatorIcEEEE, ptr @_ZN4OHOS13SystemAbility11OnExtensionERKNSt3__h12basic_stringIcNS1_11char_traitsIcEENS1_9allocatorIcEEEERNS_13MessageParcelESB_, ptr @_ZN4OHOS5SDemo12SDemoService20tureIllegalInforFlowEi, ptr @_ZN4OHOS5SDemo12SDemoService19mayIllegalInforFlowEi, ptr @_ZN4OHOS5SDemo12SDemoService21falseIllegalInforFlowEi, ptr @_ZN4OHOS5SDemo12SDemoService9helloWordEv, ptr @_ZN4OHOS5SDemo12SDemoService22tureIllegalInforFlow_cEi, ptr @_ZN4OHOS5SDemo12SDemoService21mayIllegalInforFlow_cEi, ptr @_ZN4OHOS5SDemo12SDemoService23falseIllegalInforFlow_cEi], [25 x ptr] [ptr inttoptr (i32 72 to ptr), ptr inttoptr (i32 64 to ptr), ptr inttoptr (i32 -104 to ptr), ptr null, ptr @_ZN4OHOS13IPCObjectStub17GetObjectRefCountEv, ptr @_ZN4OHOS13IPCObjectStub11SendRequestEjRNS_13MessageParcelES2_RNS_13MessageOptionE, ptr @_ZNK4OHOS13IPCObjectStub13IsProxyObjectEv, ptr @_ZNK4OHOS13IRemoteObject12IsObjectDeadEv, ptr @_ZN4OHOS13IRemoteObject22GetInterfaceDescriptorEv, ptr @_ZNK4OHOS13IRemoteObject19CheckObjectLegalityEv, ptr @_ZN4OHOS13IPCObjectStub17AddDeathRecipientERKNS_4sptrINS_13IRemoteObject14DeathRecipientEEE, ptr @_ZN4OHOS13IPCObjectStub20RemoveDeathRecipientERKNS_4sptrINS_13IRemoteObject14DeathRecipientEEE, ptr @_ZNK4OHOS13IRemoteObject11MarshallingERNS_6ParcelE, ptr @_ZN4OHOS11IRemoteStubINS_5SDemo13ISDemoServiceEE11AsInterfaceEv, ptr @_ZN4OHOS13IPCObjectStub4DumpEiRKNSt3__h6vectorINS1_12basic_stringIDsNS1_11char_traitsIDsEENS1_9allocatorIDsEEEENS6_IS8_EEEE, ptr @_ZThn104_N4OHOS5SDemo12SDemoServiceD1Ev, ptr @_ZThn104_N4OHOS5SDemo12SDemoServiceD0Ev, ptr @_ZN4OHOS5SDemo9SDemoStub15OnRemoteRequestEjRNS_13MessageParcelES3_RNS_13MessageOptionE, ptr @_ZN4OHOS13IPCObjectStub16OnFirstStrongRefEPKv, ptr @_ZN4OHOS13IPCObjectStub15OnLastStrongRefEPKv, ptr @_ZN4OHOS13IPCObjectStub12OnRemoteDumpEjRNS_13MessageParcelES2_RNS_13MessageOptionE, ptr @_ZN4OHOS13IPCObjectStub12ProcessProtoEjRNS_13MessageParcelES2_RNS_13MessageOptionE, ptr @_ZNK4OHOS13IPCObjectStub13GetObjectTypeEv, ptr @_ZN4OHOS13IPCObjectStub21GetAndSaveDBinderDataEij, ptr @_ZN4OHOS11IRemoteStubINS_5SDemo13ISDemoServiceEE8AsObjectEv], [13 x ptr] [ptr inttoptr (i32 12 to ptr), ptr inttoptr (i32 -164 to ptr), ptr null, ptr @_ZThn164_N4OHOS5SDemo12SDemoServiceD1Ev, ptr @_ZThn164_N4OHOS5SDemo12SDemoServiceD0Ev, ptr @_ZThn60_N4OHOS11IRemoteStubINS_5SDemo13ISDemoServiceEE8AsObjectEv, ptr @_ZThn164_N4OHOS5SDemo12SDemoService20tureIllegalInforFlowEi, ptr @_ZThn164_N4OHOS5SDemo12SDemoService19mayIllegalInforFlowEi, ptr @_ZThn164_N4OHOS5SDemo12SDemoService21falseIllegalInforFlowEi, ptr @_ZThn164_N4OHOS5SDemo12SDemoService9helloWordEv, ptr @_ZThn164_N4OHOS5SDemo12SDemoService22tureIllegalInforFlow_cEi, ptr @_ZThn164_N4OHOS5SDemo12SDemoService21mayIllegalInforFlow_cEi, ptr @_ZThn164_N4OHOS5SDemo12SDemoService23falseIllegalInforFlow_cEi], [8 x ptr] [ptr inttoptr (i32 -64 to ptr), ptr inttoptr (i32 -168 to ptr), ptr inttoptr (i32 8 to ptr), ptr inttoptr (i32 -168 to ptr), ptr null, ptr @_ZTv0_n16_N4OHOS5SDemo12SDemoServiceD1Ev, ptr @_ZTv0_n16_N4OHOS5SDemo12SDemoServiceD0Ev, ptr @_ZTv0_n20_NK4OHOS13IRemoteObject11MarshallingERNS_6ParcelE], [15 x ptr] [ptr null, ptr null, ptr inttoptr (i32 -72 to ptr), ptr inttoptr (i32 -72 to ptr), ptr null, ptr inttoptr (i32 -176 to ptr), ptr inttoptr (i32 -176 to ptr), ptr null, ptr @_ZTv0_n12_N4OHOS5SDemo12SDemoServiceD1Ev, ptr @_ZTv0_n12_N4OHOS5SDemo12SDemoServiceD0Ev, ptr @_ZN4OHOS7RefBase14RefPtrCallbackEv, ptr @_ZTv0_n20_N4OHOS13IPCObjectStub16OnFirstStrongRefEPKv, ptr @_ZTv0_n24_N4OHOS13IPCObjectStub15OnLastStrongRefEPKv, ptr @_ZN4OHOS7RefBase13OnLastWeakRefEPKv, ptr @_ZN4OHOS7RefBase17OnAttemptPromotedEPKv] }, align 4, !type !495, !type !496, !type !497, !type !498, !type !499, !type !500, !type !501, !type !502, !type !503, !type !504, !type !505, !type !506, !type !507, !type !508, !type !509, !type !510, !type !511, !type !512, !type !513, !type !514, !type !515, !type !516, !type !517, !type !518, !type !519, !type !520, !type !521, !type !522, !type !523, !type !524, !type !525, !type !526, !type !370, !type !371, !type !527, !type !528, !type !529, !type !530, !type !531, !type !532, !type !533, !type !534, !type !535, !type !536, !type !537, !type !538, !type !539, !type !540, !type !541, !type !542, !type !543, !type !544, !type !545, !type !546, !type !547, !type !548, !type !549, !type !550, !type !551, !type !552, !type !553, !type !554, !type !555, !type !556, !type !557, !type !558, !type !559, !type !560, !type !561, !type !562, !type !563, !type !564, !type !565, !type !566, !type !567, !type !568, !type !569, !type !570, !type !571, !type !572, !type !573, !type !574, !type !575, !type !576, !type !577, !type !578, !type !579, !type !580, !type !581, !type !582, !type !583, !type !584, !type !585, !type !586, !type !587, !type !588, !type !589, !type !590, !type !591, !type !592, !type !593, !type !594, !type !595, !type !596, !type !597, !type !598, !type !599, !type !600, !type !601, !type !602, !type !603, !type !604, !type !605, !type !606, !type !607, !type !608, !type !609, !type !610, !type !611, !type !612, !type !613, !type !614, !type !615, !type !616, !type !617, !type !618, !type !619, !type !620, !type !621, !type !622, !type !623, !type !624, !type !625, !type !626, !type !627, !type !628, !type !629, !type !630, !type !376, !type !377, !type !631, !type !632, !type !633, !type !634, !type !635, !type !636, !type !637, !type !638, !type !639, !type !640, !type !641, !type !642, !type !643, !type !644, !type !645, !type !646, !type !647, !type !648, !type !649, !type !650, !type !651, !type !652, !type !653, !type !654, !type !655, !type !656, !type !657, !type !658, !type !659, !type !660, !type !661, !type !662, !type !663, !type !664, !type !665, !type !666, !type !667, !type !668, !type !669, !type !670, !type !671, !type !672, !type !673, !type !674, !type !675, !type !676, !type !677, !type !678, !type !679, !type !680, !type !681, !type !682, !type !683, !type !684, !type !685, !type !686, !type !687, !type !688, !type !689, !type !690, !type !691, !type !692, !type !693, !type !694, !type !695, !type !696, !type !697, !type !698, !type !699, !type !700, !type !701, !type !702, !type !703, !type !704, !type !705, !type !706, !type !707, !type !708, !type !709, !type !710, !type !711, !type !712, !type !713, !type !714, !type !715, !type !716, !type !717, !type !718, !type !719, !type !720, !type !721, !type !722, !type !723, !type !724, !type !725, !type !726, !type !727, !type !728, !type !729, !type !730, !type !731, !type !732, !type !733, !type !734, !type !382, !type !383, !type !735, !type !736, !type !737, !type !738, !type !739, !type !740, !type !741, !type !742, !type !743, !type !744, !type !745, !type !746, !type !747, !type !748, !type !749, !type !750, !type !751, !type !752, !type !753, !type !754, !type !755, !type !756, !type !757, !type !758, !type !759, !type !760, !type !761, !type !762, !type !763, !type !764, !type !765, !type !766, !type !767, !type !768, !type !769, !type !770, !type !771, !type !772, !type !773, !type !774, !type !775, !type !776, !type !777, !type !778, !type !779, !type !780, !type !781, !type !782, !type !783, !type !784, !type !785, !type !786, !type !787, !type !788, !type !789, !type !790, !type !791, !type !792, !type !793, !type !794, !type !795, !type !796, !type !797, !type !798, !type !799, !type !800, !type !801, !type !802, !type !803, !type !804, !type !805, !type !806, !type !807, !type !808, !type !809, !type !810, !type !811, !type !812, !type !813, !type !814, !type !815, !type !816, !type !817, !type !818, !type !819, !type !820, !type !821, !type !822, !type !823, !type !824, !type !825, !type !826, !type !827, !type !828, !type !829, !type !830, !type !831, !type !832, !type !833, !type !834, !type !835, !type !836, !type !837, !type !838, !type !839, !type !840, !type !841, !type !842, !type !843, !type !844, !type !845, !type !846, !type !847, !type !848, !type !849, !type !850, !type !851, !type !852, !type !853, !type !854, !type !855, !type !856, !type !857, !type !858, !type !859, !type !860, !type !861, !type !862, !type !863, !type !864, !type !865, !type !866, !type !867, !type !868, !type !869, !type !870, !type !871, !type !872, !type !873, !type !874, !type !875, !type !876, !type !877, !type !878, !type !879, !type !880, !type !881, !type !882, !type !883, !type !884, !type !885, !type !886, !type !887, !type !888, !type !889, !type !890, !type !891, !type !892, !type !893, !type !894, !type !895, !type !896, !type !897, !type !898, !type !899, !type !900, !type !901, !type !902, !type !903, !type !904, !type !905, !type !906, !type !907, !type !908, !type !909, !type !910, !type !911, !type !912, !type !913, !type !914, !type !915, !type !916, !type !917, !type !918, !type !919, !type !920, !type !921, !type !922, !type !923, !type !924, !type !925, !type !926, !type !927, !type !928, !type !929, !type !930, !type !931, !type !932, !type !933, !type !934, !type !935, !type !936, !type !937, !type !938, !type !939, !type !940, !type !941, !type !942, !type !943, !type !944, !type !945, !type !946, !type !947, !type !948, !type !949, !type !950, !type !951, !type !952, !type !953, !type !954, !type !955, !type !956, !type !957, !type !958, !type !959, !type !960, !type !961, !type !962, !type !963, !type !964, !type !965, !type !966, !type !967, !type !968, !type !969, !type !970, !type !971, !type !972, !type !973, !type !974, !type !975, !type !976, !type !977, !type !978, !type !979, !type !980, !type !981, !type !982, !type !983, !type !984, !type !985, !type !986, !type !987, !type !988, !type !989, !type !990, !type !991, !type !992, !type !993, !type !994, !type !995, !type !996, !type !997, !type !389, !type !390, !type !998, !type !999, !type !1000, !type !1001, !type !1002, !type !1003, !type !1004, !type !1005, !type !1006, !type !1007, !type !1008, !type !1009, !type !1010, !type !1011, !type !1012, !type !1013, !type !1014, !type !1015, !type !1016
@_ZTTN4OHOS5SDemo12SDemoServiceE = unnamed_addr constant [25 x ptr] [ptr getelementptr inbounds ({ [25 x ptr], [25 x ptr], [13 x ptr], [8 x ptr], [15 x ptr] }, ptr @_ZTVN4OHOS5SDemo12SDemoServiceE, i32 0, inrange i32 0, i32 4), ptr getelementptr inbounds ({ [25 x ptr], [13 x ptr], [8 x ptr], [15 x ptr] }, ptr @_ZTCN4OHOS5SDemo12SDemoServiceE104_NS0_9SDemoStubE, i32 0, inrange i32 0, i32 4), ptr getelementptr inbounds ({ [25 x ptr], [13 x ptr], [8 x ptr], [15 x ptr] }, ptr @_ZTCN4OHOS5SDemo12SDemoServiceE104_NS_11IRemoteStubINS0_13ISDemoServiceEEE, i32 0, inrange i32 0, i32 4), ptr getelementptr inbounds ({ [24 x ptr], [8 x ptr], [15 x ptr] }, ptr @_ZTCN4OHOS5SDemo12SDemoServiceE104_NS_13IPCObjectStubE, i32 0, inrange i32 0, i32 4), ptr getelementptr inbounds ({ [17 x ptr], [8 x ptr], [15 x ptr] }, ptr @_ZTCN4OHOS5SDemo12SDemoServiceE104_NS_13IRemoteObjectE, i32 0, inrange i32 0, i32 4), ptr getelementptr inbounds ({ [17 x ptr], [8 x ptr], [15 x ptr] }, ptr @_ZTCN4OHOS5SDemo12SDemoServiceE104_NS_13IRemoteObjectE, i32 0, inrange i32 1, i32 5), ptr getelementptr inbounds ({ [17 x ptr], [8 x ptr], [15 x ptr] }, ptr @_ZTCN4OHOS5SDemo12SDemoServiceE104_NS_13IRemoteObjectE, i32 0, inrange i32 2, i32 8), ptr getelementptr inbounds ({ [24 x ptr], [8 x ptr], [15 x ptr] }, ptr @_ZTCN4OHOS5SDemo12SDemoServiceE104_NS_13IPCObjectStubE, i32 0, inrange i32 1, i32 5), ptr getelementptr inbounds ({ [24 x ptr], [8 x ptr], [15 x ptr] }, ptr @_ZTCN4OHOS5SDemo12SDemoServiceE104_NS_13IPCObjectStubE, i32 0, inrange i32 2, i32 8), ptr getelementptr inbounds ({ [13 x ptr], [15 x ptr] }, ptr @_ZTCN4OHOS5SDemo12SDemoServiceE164_NS0_13ISDemoServiceE, i32 0, inrange i32 0, i32 3), ptr getelementptr inbounds ({ [6 x ptr], [15 x ptr] }, ptr @_ZTCN4OHOS5SDemo12SDemoServiceE164_NS_13IRemoteBrokerE, i32 0, inrange i32 0, i32 3), ptr getelementptr inbounds ({ [6 x ptr], [15 x ptr] }, ptr @_ZTCN4OHOS5SDemo12SDemoServiceE164_NS_13IRemoteBrokerE, i32 0, inrange i32 1, i32 8), ptr getelementptr inbounds ({ [13 x ptr], [15 x ptr] }, ptr @_ZTCN4OHOS5SDemo12SDemoServiceE164_NS0_13ISDemoServiceE, i32 0, inrange i32 1, i32 8), ptr getelementptr inbounds ({ [25 x ptr], [13 x ptr], [8 x ptr], [15 x ptr] }, ptr @_ZTCN4OHOS5SDemo12SDemoServiceE104_NS_11IRemoteStubINS0_13ISDemoServiceEEE, i32 0, inrange i32 2, i32 5), ptr getelementptr inbounds ({ [25 x ptr], [13 x ptr], [8 x ptr], [15 x ptr] }, ptr @_ZTCN4OHOS5SDemo12SDemoServiceE104_NS_11IRemoteStubINS0_13ISDemoServiceEEE, i32 0, inrange i32 3, i32 8), ptr getelementptr inbounds ({ [25 x ptr], [13 x ptr], [8 x ptr], [15 x ptr] }, ptr @_ZTCN4OHOS5SDemo12SDemoServiceE104_NS_11IRemoteStubINS0_13ISDemoServiceEEE, i32 0, inrange i32 1, i32 3), ptr getelementptr inbounds ({ [25 x ptr], [13 x ptr], [8 x ptr], [15 x ptr] }, ptr @_ZTCN4OHOS5SDemo12SDemoServiceE104_NS0_9SDemoStubE, i32 0, inrange i32 2, i32 5), ptr getelementptr inbounds ({ [25 x ptr], [13 x ptr], [8 x ptr], [15 x ptr] }, ptr @_ZTCN4OHOS5SDemo12SDemoServiceE104_NS0_9SDemoStubE, i32 0, inrange i32 3, i32 8), ptr getelementptr inbounds ({ [25 x ptr], [13 x ptr], [8 x ptr], [15 x ptr] }, ptr @_ZTCN4OHOS5SDemo12SDemoServiceE104_NS0_9SDemoStubE, i32 0, inrange i32 1, i32 3), ptr getelementptr inbounds ({ [25 x ptr], [25 x ptr], [13 x ptr], [8 x ptr], [15 x ptr] }, ptr @_ZTVN4OHOS5SDemo12SDemoServiceE, i32 0, inrange i32 1, i32 4), ptr getelementptr inbounds ({ [25 x ptr], [25 x ptr], [13 x ptr], [8 x ptr], [15 x ptr] }, ptr @_ZTVN4OHOS5SDemo12SDemoServiceE, i32 0, inrange i32 3, i32 5), ptr getelementptr inbounds ({ [25 x ptr], [25 x ptr], [13 x ptr], [8 x ptr], [15 x ptr] }, ptr @_ZTVN4OHOS5SDemo12SDemoServiceE, i32 0, inrange i32 4, i32 8), ptr getelementptr inbounds ({ [25 x ptr], [25 x ptr], [13 x ptr], [8 x ptr], [15 x ptr] }, ptr @_ZTVN4OHOS5SDemo12SDemoServiceE, i32 0, inrange i32 2, i32 3), ptr getelementptr inbounds ({ [8 x ptr], [15 x ptr] }, ptr @_ZTCN4OHOS5SDemo12SDemoServiceE168_NS_10ParcelableE, i32 0, inrange i32 0, i32 5), ptr getelementptr inbounds ({ [8 x ptr], [15 x ptr] }, ptr @_ZTCN4OHOS5SDemo12SDemoServiceE168_NS_10ParcelableE, i32 0, inrange i32 1, i32 8)], align 4
@_ZTCN4OHOS5SDemo12SDemoServiceE104_NS0_9SDemoStubE = unnamed_addr constant { [25 x ptr], [13 x ptr], [8 x ptr], [15 x ptr] } { [25 x ptr] [ptr inttoptr (i32 72 to ptr), ptr inttoptr (i32 64 to ptr), ptr null, ptr null, ptr @_ZN4OHOS13IPCObjectStub17GetObjectRefCountEv, ptr @_ZN4OHOS13IPCObjectStub11SendRequestEjRNS_13MessageParcelES2_RNS_13MessageOptionE, ptr @_ZNK4OHOS13IPCObjectStub13IsProxyObjectEv, ptr @_ZNK4OHOS13IRemoteObject12IsObjectDeadEv, ptr @_ZN4OHOS13IRemoteObject22GetInterfaceDescriptorEv, ptr @_ZNK4OHOS13IRemoteObject19CheckObjectLegalityEv, ptr @_ZN4OHOS13IPCObjectStub17AddDeathRecipientERKNS_4sptrINS_13IRemoteObject14DeathRecipientEEE, ptr @_ZN4OHOS13IPCObjectStub20RemoveDeathRecipientERKNS_4sptrINS_13IRemoteObject14DeathRecipientEEE, ptr @_ZNK4OHOS13IRemoteObject11MarshallingERNS_6ParcelE, ptr @_ZN4OHOS11IRemoteStubINS_5SDemo13ISDemoServiceEE11AsInterfaceEv, ptr @_ZN4OHOS13IPCObjectStub4DumpEiRKNSt3__h6vectorINS1_12basic_stringIDsNS1_11char_traitsIDsEENS1_9allocatorIDsEEEENS6_IS8_EEEE, ptr @_ZN4OHOS5SDemo9SDemoStubD1Ev, ptr @_ZN4OHOS5SDemo9SDemoStubD0Ev, ptr @_ZN4OHOS5SDemo9SDemoStub15OnRemoteRequestEjRNS_13MessageParcelES3_RNS_13MessageOptionE, ptr @_ZN4OHOS13IPCObjectStub16OnFirstStrongRefEPKv, ptr @_ZN4OHOS13IPCObjectStub15OnLastStrongRefEPKv, ptr @_ZN4OHOS13IPCObjectStub12OnRemoteDumpEjRNS_13MessageParcelES2_RNS_13MessageOptionE, ptr @_ZN4OHOS13IPCObjectStub12ProcessProtoEjRNS_13MessageParcelES2_RNS_13MessageOptionE, ptr @_ZNK4OHOS13IPCObjectStub13GetObjectTypeEv, ptr @_ZN4OHOS13IPCObjectStub21GetAndSaveDBinderDataEij, ptr @_ZN4OHOS11IRemoteStubINS_5SDemo13ISDemoServiceEE8AsObjectEv], [13 x ptr] [ptr inttoptr (i32 12 to ptr), ptr inttoptr (i32 -60 to ptr), ptr null, ptr @_ZThn60_N4OHOS5SDemo9SDemoStubD1Ev, ptr @_ZThn60_N4OHOS5SDemo9SDemoStubD0Ev, ptr @_ZThn60_N4OHOS11IRemoteStubINS_5SDemo13ISDemoServiceEE8AsObjectEv, ptr @__cxa_pure_virtual, ptr @__cxa_pure_virtual, ptr @__cxa_pure_virtual, ptr @__cxa_pure_virtual, ptr @__cxa_pure_virtual, ptr @__cxa_pure_virtual, ptr @__cxa_pure_virtual], [8 x ptr] [ptr inttoptr (i32 -64 to ptr), ptr inttoptr (i32 -64 to ptr), ptr inttoptr (i32 8 to ptr), ptr inttoptr (i32 -64 to ptr), ptr null, ptr @_ZTv0_n16_N4OHOS5SDemo9SDemoStubD1Ev, ptr @_ZTv0_n16_N4OHOS5SDemo9SDemoStubD0Ev, ptr @_ZTv0_n20_NK4OHOS13IRemoteObject11MarshallingERNS_6ParcelE], [15 x ptr] [ptr null, ptr null, ptr inttoptr (i32 -72 to ptr), ptr inttoptr (i32 -72 to ptr), ptr null, ptr inttoptr (i32 -72 to ptr), ptr inttoptr (i32 -72 to ptr), ptr null, ptr @_ZTv0_n12_N4OHOS5SDemo9SDemoStubD1Ev, ptr @_ZTv0_n12_N4OHOS5SDemo9SDemoStubD0Ev, ptr @_ZN4OHOS7RefBase14RefPtrCallbackEv, ptr @_ZTv0_n20_N4OHOS13IPCObjectStub16OnFirstStrongRefEPKv, ptr @_ZTv0_n24_N4OHOS13IPCObjectStub15OnLastStrongRefEPKv, ptr @_ZN4OHOS7RefBase13OnLastWeakRefEPKv, ptr @_ZN4OHOS7RefBase17OnAttemptPromotedEPKv] }, align 4, !type !95, !type !96, !type !97, !type !98, !type !99, !type !100, !type !101, !type !102, !type !103, !type !104, !type !105, !type !106, !type !107, !type !108, !type !109, !type !110, !type !111, !type !112, !type !113, !type !114, !type !115, !type !116, !type !117, !type !118, !type !119, !type !120, !type !121, !type !122, !type !123, !type !124, !type !125, !type !126, !type !127, !type !128, !type !129, !type !130, !type !131, !type !132, !type !133, !type !134, !type !135, !type !136, !type !137, !type !138, !type !139, !type !140, !type !141, !type !142, !type !143, !type !144, !type !145, !type !146, !type !147, !type !148, !type !149, !type !150, !type !151, !type !152, !type !153, !type !154, !type !155, !type !156, !type !157, !type !158, !type !159, !type !160, !type !161, !type !162, !type !163, !type !164, !type !165, !type !166, !type !167, !type !168, !type !169, !type !170, !type !171, !type !172, !type !173, !type !174, !type !175, !type !176, !type !177, !type !178, !type !179, !type !180, !type !181, !type !182, !type !183, !type !184, !type !185, !type !186, !type !187, !type !188, !type !189, !type !190, !type !191, !type !192, !type !193, !type !194, !type !195, !type !196, !type !197, !type !198, !type !199, !type !200, !type !201, !type !202, !type !203, !type !204, !type !205, !type !206, !type !207, !type !208, !type !209, !type !210, !type !211, !type !212, !type !213, !type !214, !type !215, !type !216, !type !217, !type !218, !type !219, !type !220, !type !221, !type !222, !type !223, !type !224, !type !225, !type !226, !type !227, !type !228, !type !229, !type !230, !type !231, !type !232, !type !233, !type !234, !type !235, !type !236, !type !237, !type !238, !type !239, !type !240, !type !241, !type !242, !type !243, !type !244, !type !245, !type !246, !type !247, !type !248, !type !249, !type !250, !type !251, !type !252, !type !253, !type !254, !type !255, !type !256, !type !257, !type !258, !type !259, !type !260, !type !261, !type !262, !type !263, !type !264, !type !265, !type !266, !type !267, !type !268, !type !269, !type !270, !type !271, !type !272, !type !273, !type !274, !type !275, !type !276, !type !277, !type !278, !type !279, !type !280, !type !281, !type !282, !type !283, !type !284, !type !285, !type !286, !type !287, !type !288, !type !289, !type !290, !type !291, !type !292, !type !293, !type !294, !type !295, !type !296, !type !297, !type !298, !type !299, !type !300, !type !301, !type !302, !type !303, !type !304, !type !305, !type !306, !type !307, !type !308, !type !309, !type !310, !type !311, !type !312, !type !313, !type !314, !type !315, !type !316, !type !317, !type !318, !type !319, !type !320, !type !321, !type !322, !type !323, !type !324, !type !325, !type !326, !type !327, !type !328, !type !329, !type !330, !type !331, !type !332, !type !333, !type !334, !type !335, !type !336, !type !337, !type !338, !type !339, !type !340, !type !341, !type !342, !type !343, !type !344, !type !345, !type !346, !type !347, !type !348, !type !349, !type !350, !type !351, !type !352, !type !353, !type !354, !type !355, !type !356, !type !357, !type !358, !type !359, !type !360, !type !361, !type !362, !type !363, !type !364, !type !365, !type !366, !type !95, !type !96, !type !97, !type !98, !type !99, !type !100, !type !101, !type !102, !type !103, !type !104, !type !105, !type !106, !type !107, !type !108, !type !109, !type !110, !type !111, !type !112, !type !113, !type !114, !type !115, !type !116, !type !117, !type !118, !type !119, !type !120, !type !121, !type !122, !type !123, !type !124, !type !125, !type !126, !type !127, !type !128, !type !129, !type !130, !type !131, !type !132, !type !133, !type !134, !type !135, !type !136, !type !137, !type !138, !type !139, !type !140, !type !141, !type !142, !type !143, !type !144, !type !145, !type !146, !type !147, !type !148, !type !149, !type !150, !type !151, !type !152, !type !153, !type !154, !type !155, !type !156, !type !157, !type !158, !type !159, !type !160, !type !161, !type !162, !type !163, !type !164, !type !165, !type !166, !type !167, !type !168, !type !169, !type !170, !type !171, !type !172, !type !173, !type !174, !type !175, !type !176, !type !177, !type !178, !type !179, !type !180, !type !181, !type !182, !type !183, !type !184, !type !185, !type !186, !type !187, !type !188, !type !189, !type !190, !type !191, !type !192, !type !193, !type !194, !type !195, !type !196, !type !197, !type !198, !type !199, !type !200, !type !201, !type !202, !type !203, !type !204, !type !205, !type !206, !type !207, !type !208, !type !209, !type !210, !type !211, !type !212, !type !213, !type !214, !type !215, !type !216, !type !217, !type !218, !type !219, !type !220, !type !221, !type !222, !type !223, !type !224, !type !225, !type !226, !type !227, !type !228, !type !229, !type !230, !type !231, !type !232, !type !233, !type !234, !type !235, !type !236, !type !237, !type !238, !type !239, !type !240, !type !241, !type !242, !type !243, !type !244, !type !245, !type !246, !type !247, !type !248, !type !249, !type !250, !type !251, !type !252, !type !253, !type !254, !type !255, !type !256, !type !257, !type !258, !type !259, !type !260, !type !261, !type !262, !type !263, !type !264, !type !265, !type !266, !type !267, !type !268, !type !269, !type !270, !type !271, !type !272, !type !273, !type !274, !type !275, !type !276, !type !277, !type !278, !type !279, !type !280, !type !281, !type !282, !type !283, !type !284, !type !285, !type !286, !type !287, !type !288, !type !289, !type !290, !type !291, !type !292, !type !293, !type !294, !type !295, !type !296, !type !297, !type !298, !type !299, !type !300, !type !301, !type !302, !type !303, !type !304, !type !305, !type !306, !type !307, !type !308, !type !309, !type !310, !type !311, !type !312, !type !313, !type !314, !type !315, !type !316, !type !317, !type !318, !type !319, !type !320, !type !321, !type !322, !type !323, !type !324, !type !325, !type !326, !type !327, !type !328, !type !329, !type !330, !type !331, !type !332, !type !333, !type !334, !type !335, !type !336, !type !337, !type !338, !type !339, !type !340, !type !341, !type !342, !type !343, !type !344, !type !345, !type !346, !type !347, !type !348, !type !349, !type !350, !type !351, !type !352, !type !353, !type !354, !type !355, !type !356, !type !357, !type !358, !type !359, !type !360, !type !361, !type !362, !type !363, !type !364, !type !365, !type !366, !type !95, !type !96, !type !97, !type !98, !type !99, !type !100, !type !101, !type !102, !type !103, !type !104, !type !105, !type !106, !type !107, !type !108, !type !109, !type !110, !type !111, !type !112, !type !113, !type !114, !type !115, !type !116, !type !117, !type !118, !type !119, !type !120, !type !121, !type !122, !type !123, !type !124, !type !125, !type !126, !type !127, !type !128, !type !129, !type !130, !type !131, !type !132, !type !133, !type !134, !type !135, !type !136, !type !137, !type !138, !type !139, !type !140, !type !141, !type !142, !type !143, !type !144, !type !145, !type !146, !type !147, !type !148, !type !149, !type !150, !type !151, !type !152, !type !153, !type !154, !type !155, !type !156, !type !157, !type !158, !type !159, !type !160, !type !161, !type !162, !type !163, !type !164, !type !165, !type !166, !type !167, !type !168, !type !169, !type !170, !type !171, !type !172, !type !173, !type !174, !type !175, !type !176, !type !177, !type !178, !type !179, !type !180, !type !181, !type !182, !type !183, !type !184, !type !185, !type !186, !type !187, !type !188, !type !189, !type !190, !type !191, !type !192, !type !193, !type !194, !type !195, !type !196, !type !197, !type !198, !type !199, !type !200, !type !201, !type !202, !type !203, !type !204, !type !205, !type !206, !type !207, !type !208, !type !209, !type !210, !type !211, !type !212, !type !213, !type !214, !type !215, !type !216, !type !217, !type !218, !type !219, !type !220, !type !221, !type !222, !type !223, !type !224, !type !225, !type !226, !type !227, !type !228, !type !229, !type !230, !type !231, !type !232, !type !233, !type !234, !type !235, !type !236, !type !237, !type !238, !type !239, !type !240, !type !241, !type !242, !type !243, !type !244, !type !245, !type !246, !type !247, !type !248, !type !249, !type !250, !type !251, !type !252, !type !253, !type !254, !type !255, !type !256, !type !257, !type !258, !type !259, !type !260, !type !261, !type !262, !type !263, !type !264, !type !265, !type !266, !type !267, !type !268, !type !269, !type !270, !type !271, !type !272, !type !273, !type !274, !type !275, !type !276, !type !277, !type !278, !type !279, !type !280, !type !281, !type !282, !type !283, !type !284, !type !285, !type !286, !type !287, !type !288, !type !289, !type !290, !type !291, !type !292, !type !293, !type !294, !type !295, !type !296, !type !297, !type !298, !type !299, !type !300, !type !301, !type !302, !type !303, !type !304, !type !305, !type !306, !type !307, !type !308, !type !309, !type !310, !type !311, !type !312, !type !313, !type !314, !type !315, !type !316, !type !317, !type !318, !type !319, !type !320, !type !321, !type !322, !type !323, !type !324, !type !325, !type !326, !type !327, !type !328, !type !329, !type !330, !type !331, !type !332, !type !333, !type !334, !type !335, !type !336, !type !337, !type !338, !type !339, !type !340, !type !341, !type !342, !type !343, !type !344, !type !345, !type !346, !type !347, !type !348, !type !349, !type !350, !type !351, !type !352, !type !353, !type !354, !type !355, !type !356, !type !357, !type !358, !type !359, !type !360, !type !361, !type !362, !type !363, !type !364, !type !365, !type !366
@_ZTCN4OHOS5SDemo12SDemoServiceE104_NS_11IRemoteStubINS0_13ISDemoServiceEEE = unnamed_addr constant { [25 x ptr], [13 x ptr], [8 x ptr], [15 x ptr] } { [25 x ptr] [ptr inttoptr (i32 72 to ptr), ptr inttoptr (i32 64 to ptr), ptr null, ptr null, ptr @_ZN4OHOS13IPCObjectStub17GetObjectRefCountEv, ptr @_ZN4OHOS13IPCObjectStub11SendRequestEjRNS_13MessageParcelES2_RNS_13MessageOptionE, ptr @_ZNK4OHOS13IPCObjectStub13IsProxyObjectEv, ptr @_ZNK4OHOS13IRemoteObject12IsObjectDeadEv, ptr @_ZN4OHOS13IRemoteObject22GetInterfaceDescriptorEv, ptr @_ZNK4OHOS13IRemoteObject19CheckObjectLegalityEv, ptr @_ZN4OHOS13IPCObjectStub17AddDeathRecipientERKNS_4sptrINS_13IRemoteObject14DeathRecipientEEE, ptr @_ZN4OHOS13IPCObjectStub20RemoveDeathRecipientERKNS_4sptrINS_13IRemoteObject14DeathRecipientEEE, ptr @_ZNK4OHOS13IRemoteObject11MarshallingERNS_6ParcelE, ptr @_ZN4OHOS11IRemoteStubINS_5SDemo13ISDemoServiceEE11AsInterfaceEv, ptr @_ZN4OHOS13IPCObjectStub4DumpEiRKNSt3__h6vectorINS1_12basic_stringIDsNS1_11char_traitsIDsEENS1_9allocatorIDsEEEENS6_IS8_EEEE, ptr @_ZN4OHOS11IRemoteStubINS_5SDemo13ISDemoServiceEED1Ev, ptr @_ZN4OHOS11IRemoteStubINS_5SDemo13ISDemoServiceEED0Ev, ptr @_ZN4OHOS13IPCObjectStub15OnRemoteRequestEjRNS_13MessageParcelES2_RNS_13MessageOptionE, ptr @_ZN4OHOS13IPCObjectStub16OnFirstStrongRefEPKv, ptr @_ZN4OHOS13IPCObjectStub15OnLastStrongRefEPKv, ptr @_ZN4OHOS13IPCObjectStub12OnRemoteDumpEjRNS_13MessageParcelES2_RNS_13MessageOptionE, ptr @_ZN4OHOS13IPCObjectStub12ProcessProtoEjRNS_13MessageParcelES2_RNS_13MessageOptionE, ptr @_ZNK4OHOS13IPCObjectStub13GetObjectTypeEv, ptr @_ZN4OHOS13IPCObjectStub21GetAndSaveDBinderDataEij, ptr @_ZN4OHOS11IRemoteStubINS_5SDemo13ISDemoServiceEE8AsObjectEv], [13 x ptr] [ptr inttoptr (i32 12 to ptr), ptr inttoptr (i32 -60 to ptr), ptr null, ptr @_ZThn60_N4OHOS11IRemoteStubINS_5SDemo13ISDemoServiceEED1Ev, ptr @_ZThn60_N4OHOS11IRemoteStubINS_5SDemo13ISDemoServiceEED0Ev, ptr @_ZThn60_N4OHOS11IRemoteStubINS_5SDemo13ISDemoServiceEE8AsObjectEv, ptr @__cxa_pure_virtual, ptr @__cxa_pure_virtual, ptr @__cxa_pure_virtual, ptr @__cxa_pure_virtual, ptr @__cxa_pure_virtual, ptr @__cxa_pure_virtual, ptr @__cxa_pure_virtual], [8 x ptr] [ptr inttoptr (i32 -64 to ptr), ptr inttoptr (i32 -64 to ptr), ptr inttoptr (i32 8 to ptr), ptr inttoptr (i32 -64 to ptr), ptr null, ptr @_ZTv0_n16_N4OHOS11IRemoteStubINS_5SDemo13ISDemoServiceEED1Ev, ptr @_ZTv0_n16_N4OHOS11IRemoteStubINS_5SDemo13ISDemoServiceEED0Ev, ptr @_ZTv0_n20_NK4OHOS13IRemoteObject11MarshallingERNS_6ParcelE], [15 x ptr] [ptr null, ptr null, ptr inttoptr (i32 -72 to ptr), ptr inttoptr (i32 -72 to ptr), ptr null, ptr inttoptr (i32 -72 to ptr), ptr inttoptr (i32 -72 to ptr), ptr null, ptr @_ZTv0_n12_N4OHOS11IRemoteStubINS_5SDemo13ISDemoServiceEED1Ev, ptr @_ZTv0_n12_N4OHOS11IRemoteStubINS_5SDemo13ISDemoServiceEED0Ev, ptr @_ZN4OHOS7RefBase14RefPtrCallbackEv, ptr @_ZTv0_n20_N4OHOS13IPCObjectStub16OnFirstStrongRefEPKv, ptr @_ZTv0_n24_N4OHOS13IPCObjectStub15OnLastStrongRefEPKv, ptr @_ZN4OHOS7RefBase13OnLastWeakRefEPKv, ptr @_ZN4OHOS7RefBase17OnAttemptPromotedEPKv] }, align 4, !type !95, !type !96, !type !97, !type !98, !type !99, !type !100, !type !101, !type !102, !type !103, !type !104, !type !105, !type !106, !type !107, !type !108, !type !109, !type !110, !type !111, !type !112, !type !113, !type !114, !type !115, !type !116, !type !117, !type !118, !type !119, !type !120, !type !121, !type !122, !type !123, !type !124, !type !125, !type !126, !type !127, !type !128, !type !129, !type !130, !type !131, !type !132, !type !133, !type !134, !type !135, !type !136, !type !137, !type !138, !type !139, !type !140, !type !141, !type !142, !type !143, !type !144, !type !145, !type !146, !type !147, !type !148, !type !149, !type !150, !type !151, !type !152, !type !153, !type !154, !type !155, !type !156, !type !157, !type !158, !type !159, !type !160, !type !161, !type !162, !type !163, !type !164, !type !165, !type !166, !type !167, !type !168, !type !169, !type !170, !type !171, !type !172, !type !173, !type !174, !type !175, !type !176, !type !177, !type !178, !type !179, !type !180, !type !181, !type !182, !type !183, !type !184, !type !185, !type !186, !type !187, !type !188, !type !189, !type !190, !type !191, !type !192, !type !193, !type !194, !type !195, !type !196, !type !197, !type !198, !type !199, !type !200, !type !201, !type !202, !type !203, !type !204, !type !205, !type !206, !type !207, !type !208, !type !209, !type !210, !type !211, !type !212, !type !213, !type !214, !type !215, !type !216, !type !217, !type !218, !type !219, !type !220, !type !221, !type !222, !type !223, !type !224, !type !225, !type !226, !type !227, !type !228, !type !229, !type !230, !type !231, !type !232, !type !233, !type !234, !type !235, !type !236, !type !237, !type !238, !type !239, !type !240, !type !241, !type !242, !type !243, !type !244, !type !245, !type !246, !type !247, !type !248, !type !249, !type !250, !type !251, !type !252, !type !253, !type !254, !type !255, !type !256, !type !257, !type !258, !type !259, !type !260, !type !261, !type !262, !type !263, !type !264, !type !265, !type !266, !type !267, !type !268, !type !269, !type !270, !type !271, !type !272, !type !273, !type !274, !type !275, !type !276, !type !277, !type !278, !type !279, !type !280, !type !281, !type !282, !type !283, !type !284, !type !285, !type !286, !type !287, !type !288, !type !289, !type !290, !type !291, !type !292, !type !293, !type !294, !type !295, !type !296, !type !297, !type !298, !type !333, !type !334, !type !335, !type !336, !type !337, !type !338, !type !339, !type !340, !type !341, !type !342, !type !343, !type !344, !type !345, !type !346, !type !347, !type !348, !type !349, !type !350, !type !351, !type !352, !type !353, !type !354, !type !355, !type !356, !type !357, !type !358, !type !359, !type !360, !type !361, !type !362, !type !363, !type !364, !type !365, !type !366, !type !95, !type !96, !type !97, !type !98, !type !99, !type !100, !type !101, !type !102, !type !103, !type !104, !type !105, !type !106, !type !107, !type !108, !type !109, !type !110, !type !111, !type !112, !type !113, !type !114, !type !115, !type !116, !type !117, !type !118, !type !119, !type !120, !type !121, !type !122, !type !123, !type !124, !type !125, !type !126, !type !127, !type !128, !type !129, !type !130, !type !131, !type !132, !type !133, !type !134, !type !135, !type !136, !type !137, !type !138, !type !139, !type !140, !type !141, !type !142, !type !143, !type !144, !type !145, !type !146, !type !147, !type !148, !type !149, !type !150, !type !151, !type !152, !type !153, !type !154, !type !155, !type !156, !type !157, !type !158, !type !159, !type !160, !type !161, !type !162, !type !163, !type !164, !type !165, !type !166, !type !167, !type !168, !type !169, !type !170, !type !171, !type !172, !type !173, !type !174, !type !175, !type !176, !type !177, !type !178, !type !179, !type !180, !type !181, !type !182, !type !183, !type !184, !type !185, !type !186, !type !187, !type !188, !type !189, !type !190, !type !191, !type !192, !type !193, !type !194, !type !195, !type !196, !type !197, !type !198, !type !199, !type !200, !type !201, !type !202, !type !203, !type !204, !type !205, !type !206, !type !207, !type !208, !type !209, !type !210, !type !211, !type !212, !type !213, !type !214, !type !215, !type !216, !type !217, !type !218, !type !219, !type !220, !type !221, !type !222, !type !223, !type !224, !type !225, !type !226, !type !227, !type !228, !type !229, !type !230, !type !231, !type !232, !type !233, !type !234, !type !235, !type !236, !type !237, !type !238, !type !239, !type !240, !type !241, !type !242, !type !243, !type !244, !type !245, !type !246, !type !247, !type !248, !type !249, !type !250, !type !251, !type !252, !type !253, !type !254, !type !255, !type !256, !type !257, !type !258, !type !259, !type !260, !type !261, !type !262, !type !263, !type !264, !type !265, !type !266, !type !267, !type !268, !type !269, !type !270, !type !271, !type !272, !type !273, !type !274, !type !275, !type !276, !type !277, !type !278, !type !279, !type !280, !type !281, !type !282, !type !283, !type !284, !type !285, !type !286, !type !287, !type !288, !type !289, !type !290, !type !291, !type !292, !type !293, !type !294, !type !295, !type !296, !type !297, !type !298, !type !333, !type !334, !type !335, !type !336, !type !337, !type !338, !type !339, !type !340, !type !341, !type !342, !type !343, !type !344, !type !345, !type !346, !type !347, !type !348, !type !349, !type !350, !type !351, !type !352, !type !353, !type !354, !type !355, !type !356, !type !357, !type !358, !type !359, !type !360, !type !361, !type !362, !type !363, !type !364, !type !365, !type !366, !type !95, !type !96, !type !97, !type !98, !type !99, !type !100, !type !101, !type !102, !type !103, !type !104, !type !105, !type !106, !type !107, !type !108, !type !109, !type !110, !type !111, !type !112, !type !113, !type !114, !type !115, !type !116, !type !117, !type !118, !type !119, !type !120, !type !121, !type !122, !type !123, !type !124, !type !125, !type !126, !type !127, !type !128, !type !129, !type !130, !type !131, !type !132, !type !133, !type !134, !type !135, !type !136, !type !137, !type !138, !type !139, !type !140, !type !141, !type !142, !type !143, !type !144, !type !145, !type !146, !type !147, !type !148, !type !149, !type !150, !type !151, !type !152, !type !153, !type !154, !type !155, !type !156, !type !157, !type !158, !type !159, !type !160, !type !161, !type !162, !type !163, !type !164, !type !165, !type !166, !type !167, !type !168, !type !169, !type !170, !type !171, !type !172, !type !173, !type !174, !type !175, !type !176, !type !177, !type !178, !type !179, !type !180, !type !181, !type !182, !type !183, !type !184, !type !185, !type !186, !type !187, !type !188, !type !189, !type !190, !type !191, !type !192, !type !193, !type !194, !type !195, !type !196, !type !197, !type !198, !type !199, !type !200, !type !201, !type !202, !type !203, !type !204, !type !205, !type !206, !type !207, !type !208, !type !209, !type !210, !type !211, !type !212, !type !213, !type !214, !type !215, !type !216, !type !217, !type !218, !type !219, !type !220, !type !221, !type !222, !type !223, !type !224, !type !225, !type !226, !type !227, !type !228, !type !229, !type !230, !type !231, !type !232, !type !233, !type !234, !type !235, !type !236, !type !237, !type !238, !type !239, !type !240, !type !241, !type !242, !type !243, !type !244, !type !245, !type !246, !type !247, !type !248, !type !249, !type !250, !type !251, !type !252, !type !253, !type !254, !type !255, !type !256, !type !257, !type !258, !type !259, !type !260, !type !261, !type !262, !type !263, !type !264, !type !265, !type !266, !type !267, !type !268, !type !269, !type !270, !type !271, !type !272, !type !273, !type !274, !type !275, !type !276, !type !277, !type !278, !type !279, !type !280, !type !281, !type !282, !type !283, !type !284, !type !285, !type !286, !type !287, !type !288, !type !289, !type !290, !type !291, !type !292, !type !293, !type !294, !type !295, !type !296, !type !297, !type !298, !type !333, !type !334, !type !335, !type !336, !type !337, !type !338, !type !339, !type !340, !type !341, !type !342, !type !343, !type !344, !type !345, !type !346, !type !347, !type !348, !type !349, !type !350, !type !351, !type !352, !type !353, !type !354, !type !355, !type !356, !type !357, !type !358, !type !359, !type !360, !type !361, !type !362, !type !363, !type !364, !type !365, !type !366
@_ZTCN4OHOS5SDemo12SDemoServiceE104_NS_13IPCObjectStubE = unnamed_addr constant { [24 x ptr], [8 x ptr], [15 x ptr] } { [24 x ptr] [ptr inttoptr (i32 72 to ptr), ptr inttoptr (i32 64 to ptr), ptr null, ptr null, ptr @_ZN4OHOS13IPCObjectStub17GetObjectRefCountEv, ptr @_ZN4OHOS13IPCObjectStub11SendRequestEjRNS_13MessageParcelES2_RNS_13MessageOptionE, ptr @_ZNK4OHOS13IPCObjectStub13IsProxyObjectEv, ptr @_ZNK4OHOS13IRemoteObject12IsObjectDeadEv, ptr @_ZN4OHOS13IRemoteObject22GetInterfaceDescriptorEv, ptr @_ZNK4OHOS13IRemoteObject19CheckObjectLegalityEv, ptr @_ZN4OHOS13IPCObjectStub17AddDeathRecipientERKNS_4sptrINS_13IRemoteObject14DeathRecipientEEE, ptr @_ZN4OHOS13IPCObjectStub20RemoveDeathRecipientERKNS_4sptrINS_13IRemoteObject14DeathRecipientEEE, ptr @_ZNK4OHOS13IRemoteObject11MarshallingERNS_6ParcelE, ptr @_ZN4OHOS13IRemoteObject11AsInterfaceEv, ptr @_ZN4OHOS13IPCObjectStub4DumpEiRKNSt3__h6vectorINS1_12basic_stringIDsNS1_11char_traitsIDsEENS1_9allocatorIDsEEEENS6_IS8_EEEE, ptr @_ZN4OHOS13IPCObjectStubD1Ev, ptr @_ZN4OHOS13IPCObjectStubD0Ev, ptr @_ZN4OHOS13IPCObjectStub15OnRemoteRequestEjRNS_13MessageParcelES2_RNS_13MessageOptionE, ptr @_ZN4OHOS13IPCObjectStub16OnFirstStrongRefEPKv, ptr @_ZN4OHOS13IPCObjectStub15OnLastStrongRefEPKv, ptr @_ZN4OHOS13IPCObjectStub12OnRemoteDumpEjRNS_13MessageParcelES2_RNS_13MessageOptionE, ptr @_ZN4OHOS13IPCObjectStub12ProcessProtoEjRNS_13MessageParcelES2_RNS_13MessageOptionE, ptr @_ZNK4OHOS13IPCObjectStub13GetObjectTypeEv, ptr @_ZN4OHOS13IPCObjectStub21GetAndSaveDBinderDataEij], [8 x ptr] [ptr inttoptr (i32 -64 to ptr), ptr inttoptr (i32 -64 to ptr), ptr inttoptr (i32 8 to ptr), ptr inttoptr (i32 -64 to ptr), ptr null, ptr @_ZTv0_n16_N4OHOS13IPCObjectStubD1Ev, ptr @_ZTv0_n16_N4OHOS13IPCObjectStubD0Ev, ptr @_ZTv0_n20_NK4OHOS13IRemoteObject11MarshallingERNS_6ParcelE], [15 x ptr] [ptr null, ptr null, ptr inttoptr (i32 -72 to ptr), ptr inttoptr (i32 -72 to ptr), ptr null, ptr inttoptr (i32 -72 to ptr), ptr inttoptr (i32 -72 to ptr), ptr null, ptr @_ZTv0_n12_N4OHOS13IPCObjectStubD1Ev, ptr @_ZTv0_n12_N4OHOS13IPCObjectStubD0Ev, ptr @_ZN4OHOS7RefBase14RefPtrCallbackEv, ptr @_ZTv0_n20_N4OHOS13IPCObjectStub16OnFirstStrongRefEPKv, ptr @_ZTv0_n24_N4OHOS13IPCObjectStub15OnLastStrongRefEPKv, ptr @_ZN4OHOS7RefBase13OnLastWeakRefEPKv, ptr @_ZN4OHOS7RefBase17OnAttemptPromotedEPKv] }, align 4, !type !367, !type !96, !type !97, !type !98, !type !99, !type !100, !type !101, !type !102, !type !103, !type !104, !type !105, !type !106, !type !107, !type !108, !type !109, !type !110, !type !111, !type !112, !type !113, !type !368, !type !369, !type !370, !type !371, !type !372, !type !373, !type !163, !type !164, !type !165, !type !166, !type !167, !type !168, !type !169, !type !170, !type !171, !type !172, !type !173, !type !174, !type !175, !type !176, !type !177, !type !178, !type !179, !type !180, !type !181, !type !374, !type !375, !type !376, !type !377, !type !378, !type !379, !type !231, !type !232, !type !233, !type !234, !type !235, !type !236, !type !237, !type !238, !type !239, !type !240, !type !241, !type !242, !type !243, !type !244, !type !245, !type !246, !type !247, !type !248, !type !249, !type !380, !type !381, !type !382, !type !383, !type !384, !type !385, !type !386, !type !334, !type !335, !type !336, !type !337, !type !338, !type !339, !type !340, !type !341, !type !342, !type !343, !type !344, !type !345, !type !346, !type !347, !type !348, !type !349, !type !350, !type !351, !type !387, !type !388, !type !389, !type !390, !type !391, !type !392, !type !367, !type !96, !type !97, !type !98, !type !99, !type !100, !type !101, !type !102, !type !103, !type !104, !type !105, !type !106, !type !107, !type !108, !type !109, !type !110, !type !111, !type !112, !type !113, !type !368, !type !369, !type !370, !type !371, !type !372, !type !373, !type !163, !type !164, !type !165, !type !166, !type !167, !type !168, !type !169, !type !170, !type !171, !type !172, !type !173, !type !174, !type !175, !type !176, !type !177, !type !178, !type !179, !type !180, !type !181, !type !374, !type !375, !type !376, !type !377, !type !378, !type !379, !type !231, !type !232, !type !233, !type !234, !type !235, !type !236, !type !237, !type !238, !type !239, !type !240, !type !241, !type !242, !type !243, !type !244, !type !245, !type !246, !type !247, !type !248, !type !249, !type !380, !type !381, !type !382, !type !383, !type !384, !type !385, !type !386, !type !334, !type !335, !type !336, !type !337, !type !338, !type !339, !type !340, !type !341, !type !342, !type !343, !type !344, !type !345, !type !346, !type !347, !type !348, !type !349, !type !350, !type !351, !type !387, !type !388, !type !389, !type !390, !type !391, !type !392, !type !367, !type !96, !type !97, !type !98, !type !99, !type !100, !type !101, !type !102, !type !103, !type !104, !type !105, !type !106, !type !107, !type !108, !type !109, !type !110, !type !111, !type !112, !type !113, !type !368, !type !369, !type !370, !type !371, !type !372, !type !373, !type !163, !type !164, !type !165, !type !166, !type !167, !type !168, !type !169, !type !170, !type !171, !type !172, !type !173, !type !174, !type !175, !type !176, !type !177, !type !178, !type !179, !type !180, !type !181, !type !374, !type !375, !type !376, !type !377, !type !378, !type !379, !type !231, !type !232, !type !233, !type !234, !type !235, !type !236, !type !237, !type !238, !type !239, !type !240, !type !241, !type !242, !type !243, !type !244, !type !245, !type !246, !type !247, !type !248, !type !249, !type !380, !type !381, !type !382, !type !383, !type !384, !type !385, !type !386, !type !334, !type !335, !type !336, !type !337, !type !338, !type !339, !type !340, !type !341, !type !342, !type !343, !type !344, !type !345, !type !346, !type !347, !type !348, !type !349, !type !350, !type !351, !type !387, !type !388, !type !389, !type !390, !type !391, !type !392
@_ZTCN4OHOS5SDemo12SDemoServiceE104_NS_13IRemoteObjectE = unnamed_addr constant { [17 x ptr], [8 x ptr], [15 x ptr] } { [17 x ptr] [ptr inttoptr (i32 72 to ptr), ptr inttoptr (i32 64 to ptr), ptr null, ptr null, ptr @__cxa_pure_virtual, ptr @__cxa_pure_virtual, ptr @_ZNK4OHOS13IRemoteObject13IsProxyObjectEv, ptr @_ZNK4OHOS13IRemoteObject12IsObjectDeadEv, ptr @_ZN4OHOS13IRemoteObject22GetInterfaceDescriptorEv, ptr @_ZNK4OHOS13IRemoteObject19CheckObjectLegalityEv, ptr @__cxa_pure_virtual, ptr @__cxa_pure_virtual, ptr @_ZNK4OHOS13IRemoteObject11MarshallingERNS_6ParcelE, ptr @_ZN4OHOS13IRemoteObject11AsInterfaceEv, ptr @__cxa_pure_virtual, ptr @_ZN4OHOS13IRemoteObjectD1Ev, ptr @_ZN4OHOS13IRemoteObjectD0Ev], [8 x ptr] [ptr inttoptr (i32 -64 to ptr), ptr inttoptr (i32 -64 to ptr), ptr inttoptr (i32 8 to ptr), ptr inttoptr (i32 -64 to ptr), ptr null, ptr @_ZTv0_n16_N4OHOS13IRemoteObjectD1Ev, ptr @_ZTv0_n16_N4OHOS13IRemoteObjectD0Ev, ptr @_ZTv0_n20_NK4OHOS13IRemoteObject11MarshallingERNS_6ParcelE], [15 x ptr] [ptr null, ptr null, ptr null, ptr null, ptr null, ptr inttoptr (i32 -72 to ptr), ptr inttoptr (i32 -72 to ptr), ptr null, ptr @_ZTv0_n12_N4OHOS13IRemoteObjectD1Ev, ptr @_ZTv0_n12_N4OHOS13IRemoteObjectD0Ev, ptr @_ZN4OHOS7RefBase14RefPtrCallbackEv, ptr @_ZN4OHOS7RefBase16OnFirstStrongRefEPKv, ptr @_ZN4OHOS7RefBase15OnLastStrongRefEPKv, ptr @_ZN4OHOS7RefBase13OnLastWeakRefEPKv, ptr @_ZN4OHOS7RefBase17OnAttemptPromotedEPKv] }, align 4, !type !393, !type !96, !type !97, !type !98, !type !99, !type !100, !type !101, !type !102, !type !103, !type !104, !type !105, !type !106, !type !394, !type !395, !type !396, !type !397, !type !398, !type !399, !type !231, !type !232, !type !233, !type !234, !type !235, !type !236, !type !237, !type !238, !type !239, !type !240, !type !241, !type !242, !type !400, !type !401, !type !402, !type !403, !type !404, !type !405, !type !406, !type !334, !type !335, !type !336, !type !337, !type !338, !type !339, !type !340, !type !341, !type !342, !type !343, !type !344, !type !407, !type !408, !type !409, !type !410, !type !411, !type !412, !type !393, !type !96, !type !97, !type !98, !type !99, !type !100, !type !101, !type !102, !type !103, !type !104, !type !105, !type !106, !type !394, !type !395, !type !396, !type !397, !type !398, !type !399, !type !231, !type !232, !type !233, !type !234, !type !235, !type !236, !type !237, !type !238, !type !239, !type !240, !type !241, !type !242, !type !400, !type !401, !type !402, !type !403, !type !404, !type !405, !type !406, !type !334, !type !335, !type !336, !type !337, !type !338, !type !339, !type !340, !type !341, !type !342, !type !343, !type !344, !type !407, !type !408, !type !409, !type !410, !type !411, !type !412, !type !393, !type !96, !type !97, !type !98, !type !99, !type !100, !type !101, !type !102, !type !103, !type !104, !type !105, !type !106, !type !394, !type !395, !type !396, !type !397, !type !398, !type !399, !type !231, !type !232, !type !233, !type !234, !type !235, !type !236, !type !237, !type !238, !type !239, !type !240, !type !241, !type !242, !type !400, !type !401, !type !402, !type !403, !type !404, !type !405, !type !406, !type !334, !type !335, !type !336, !type !337, !type !338, !type !339, !type !340, !type !341, !type !342, !type !343, !type !344, !type !407, !type !408, !type !409, !type !410, !type !411, !type !412
@_ZTCN4OHOS5SDemo12SDemoServiceE164_NS0_13ISDemoServiceE = unnamed_addr constant { [13 x ptr], [15 x ptr] } { [13 x ptr] [ptr inttoptr (i32 12 to ptr), ptr null, ptr null, ptr @_ZN4OHOS5SDemo13ISDemoServiceD1Ev, ptr @_ZN4OHOS5SDemo13ISDemoServiceD0Ev, ptr @__cxa_pure_virtual, ptr @__cxa_pure_virtual, ptr @__cxa_pure_virtual, ptr @__cxa_pure_virtual, ptr @__cxa_pure_virtual, ptr @__cxa_pure_virtual, ptr @__cxa_pure_virtual, ptr @__cxa_pure_virtual], [15 x ptr] [ptr null, ptr null, ptr null, ptr null, ptr null, ptr inttoptr (i32 -12 to ptr), ptr inttoptr (i32 -12 to ptr), ptr null, ptr @_ZTv0_n12_N4OHOS5SDemo13ISDemoServiceD1Ev, ptr @_ZTv0_n12_N4OHOS5SDemo13ISDemoServiceD0Ev, ptr @_ZN4OHOS7RefBase14RefPtrCallbackEv, ptr @_ZN4OHOS7RefBase16OnFirstStrongRefEPKv, ptr @_ZN4OHOS7RefBase15OnLastStrongRefEPKv, ptr @_ZN4OHOS7RefBase13OnLastWeakRefEPKv, ptr @_ZN4OHOS7RefBase17OnAttemptPromotedEPKv] }, align 4, !type !413, !type !414, !type !415, !type !416, !type !417, !type !418, !type !419, !type !420, !type !421, !type !422, !type !423, !type !424, !type !425, !type !426, !type !427, !type !428, !type !429, !type !430, !type !431, !type !432, !type !433, !type !434, !type !435, !type !436, !type !437, !type !438, !type !439, !type !440, !type !441, !type !442, !type !443, !type !444, !type !445, !type !446, !type !447, !type !448, !type !449, !type !450, !type !451, !type !452, !type !453, !type !454, !type !413, !type !414, !type !415, !type !416, !type !417, !type !418, !type !419, !type !420, !type !421, !type !422, !type !423, !type !424, !type !425, !type !426, !type !427, !type !428, !type !429, !type !430, !type !431, !type !432, !type !433, !type !434, !type !435, !type !436, !type !437, !type !438, !type !439, !type !440, !type !441, !type !442, !type !443, !type !444, !type !445, !type !446, !type !447, !type !448, !type !449, !type !450, !type !451, !type !452, !type !453, !type !454, !type !413, !type !414, !type !415, !type !416, !type !417, !type !418, !type !419, !type !420, !type !421, !type !422, !type !423, !type !424, !type !425, !type !426, !type !427, !type !428, !type !429, !type !430, !type !431, !type !432, !type !433, !type !434, !type !435, !type !436, !type !437, !type !438, !type !439, !type !440, !type !441, !type !442, !type !443, !type !444, !type !445, !type !446, !type !447, !type !448, !type !449, !type !450, !type !451, !type !452, !type !453, !type !454
@_ZTCN4OHOS5SDemo12SDemoServiceE164_NS_13IRemoteBrokerE = unnamed_addr constant { [6 x ptr], [15 x ptr] } { [6 x ptr] [ptr inttoptr (i32 12 to ptr), ptr null, ptr null, ptr @_ZN4OHOS13IRemoteBrokerD1Ev, ptr @_ZN4OHOS13IRemoteBrokerD0Ev, ptr @__cxa_pure_virtual], [15 x ptr] [ptr null, ptr null, ptr null, ptr null, ptr null, ptr inttoptr (i32 -12 to ptr), ptr inttoptr (i32 -12 to ptr), ptr null, ptr @_ZTv0_n12_N4OHOS13IRemoteBrokerD1Ev, ptr @_ZTv0_n12_N4OHOS13IRemoteBrokerD0Ev, ptr @_ZN4OHOS7RefBase14RefPtrCallbackEv, ptr @_ZN4OHOS7RefBase16OnFirstStrongRefEPKv, ptr @_ZN4OHOS7RefBase15OnLastStrongRefEPKv, ptr @_ZN4OHOS7RefBase13OnLastWeakRefEPKv, ptr @_ZN4OHOS7RefBase17OnAttemptPromotedEPKv] }, align 4, !type !413, !type !414, !type !455, !type !456, !type !210, !type !211, !type !457, !type !458, !type !442, !type !459, !type !460, !type !346, !type !347, !type !461, !type !413, !type !414, !type !455, !type !456, !type !210, !type !211, !type !457, !type !458, !type !442, !type !459, !type !460, !type !346, !type !347, !type !461, !type !413, !type !414, !type !455, !type !456, !type !210, !type !211, !type !457, !type !458, !type !442, !type !459, !type !460, !type !346, !type !347, !type !461
@_ZTCN4OHOS5SDemo12SDemoServiceE168_NS_10ParcelableE = unnamed_addr constant { [8 x ptr], [15 x ptr] } { [8 x ptr] [ptr null, ptr null, ptr inttoptr (i32 8 to ptr), ptr null, ptr null, ptr @_ZN4OHOS10ParcelableD1Ev, ptr @_ZN4OHOS10ParcelableD0Ev, ptr @__cxa_pure_virtual], [15 x ptr] [ptr null, ptr null, ptr null, ptr null, ptr null, ptr inttoptr (i32 -8 to ptr), ptr inttoptr (i32 -8 to ptr), ptr null, ptr @_ZTv0_n12_N4OHOS10ParcelableD1Ev, ptr @_ZTv0_n12_N4OHOS10ParcelableD0Ev, ptr @_ZN4OHOS7RefBase14RefPtrCallbackEv, ptr @_ZN4OHOS7RefBase16OnFirstStrongRefEPKv, ptr @_ZN4OHOS7RefBase15OnLastStrongRefEPKv, ptr @_ZN4OHOS7RefBase13OnLastWeakRefEPKv, ptr @_ZN4OHOS7RefBase17OnAttemptPromotedEPKv] }, align 4, !type !462, !type !463, !type !464, !type !109, !type !465, !type !466, !type !467, !type !468, !type !469, !type !470, !type !347, !type !471, !type !472, !type !473, !type !462, !type !463, !type !464, !type !109, !type !465, !type !466, !type !467, !type !468, !type !469, !type !470, !type !347, !type !471, !type !472, !type !473, !type !462, !type !463, !type !464, !type !109, !type !465, !type !466, !type !467, !type !468, !type !469, !type !470, !type !347, !type !471, !type !472, !type !473
@.str.21 = private unnamed_addr constant [13 x i8] c"SDemoService\00", align 1, !dbg !1017

; Function Attrs: mustprogress noinline nounwind optnone sspstrong uwtable(sync)
define noundef i32 @_Z25innerTureIllegalInforFlowi(i32 noundef %0) #0 !dbg !6161 {
  %2 = alloca i32, align 4
  %3 = alloca %"class.std::__h::basic_ifstream", align 4
  %4 = alloca %"class.std::__h::basic_ofstream", align 4
  %5 = alloca %"class.std::__h::basic_string", align 4
  store i32 %0, ptr %2, align 4
  call void @llvm.dbg.declare(metadata ptr %2, metadata !6162, metadata !DIExpression()), !dbg !6163
  call void @llvm.dbg.declare(metadata ptr %3, metadata !6164, metadata !DIExpression()), !dbg !6166
  call void @llvm.memset.p0.i32(ptr align 4 %3, i8 0, i32 188, i1 false), !dbg !6166, !annotation !6167
  %6 = call noundef ptr @_ZNSt3__h14basic_ifstreamIcNS_11char_traitsIcEEEC1EPKcj(ptr noundef nonnull align 4 dereferenceable(108) %3, ptr noundef @.str, i32 noundef 8), !dbg !6166
  call void @llvm.dbg.declare(metadata ptr %4, metadata !6168, metadata !DIExpression()), !dbg !6170
  call void @llvm.memset.p0.i32(ptr align 4 %4, i8 0, i32 184, i1 false), !dbg !6170, !annotation !6167
  %7 = call noundef ptr @_ZNSt3__h14basic_ofstreamIcNS_11char_traitsIcEEEC1EPKcj(ptr noundef nonnull align 4 dereferenceable(104) %4, ptr noundef @.str.1, i32 noundef 1), !dbg !6170
  call void @llvm.dbg.declare(metadata ptr %5, metadata !6171, metadata !DIExpression()), !dbg !6172
  call void @llvm.memset.p0.i32(ptr align 4 %5, i8 0, i32 12, i1 false), !dbg !6172, !annotation !6167
  %8 = call noundef ptr @_ZNSt3__h12basic_stringIcNS_11char_traitsIcEENS_9allocatorIcEEEC2B6v15004Ev(ptr noundef nonnull align 4 dereferenceable(12) %5) #14, !dbg !6172
  %9 = call noundef zeroext i1 @_ZNKSt3__h14basic_ifstreamIcNS_11char_traitsIcEEE7is_openEv(ptr noundef nonnull align 4 dereferenceable(108) %3), !dbg !6173
  br i1 %9, label %10, label %26, !dbg !6175

10:                                               ; preds = %1
  %11 = call noundef zeroext i1 @_ZNKSt3__h14basic_ofstreamIcNS_11char_traitsIcEEE7is_openEv(ptr noundef nonnull align 4 dereferenceable(104) %4), !dbg !6176
  br i1 %11, label %12, label %26, !dbg !6177

12:                                               ; preds = %10
  %13 = call noundef nonnull align 4 dereferenceable(8) ptr @_ZNSt3__h7getlineB6v15004IcNS_11char_traitsIcEENS_9allocatorIcEEEERNS_13basic_istreamIT_T0_EES9_RNS_12basic_stringIS6_S7_T1_EE(ptr noundef nonnull align 4 dereferenceable(8) %3, ptr noundef nonnull align 4 dereferenceable(12) %5), !dbg !6178
  %14 = load ptr, ptr %13, align 4, !dbg !6178
  %15 = getelementptr i8, ptr %14, i64 -12, !dbg !6178
  %16 = load i32, ptr %15, align 4, !dbg !6178
  %17 = getelementptr inbounds i8, ptr %13, i32 %16, !dbg !6178
  %18 = call noundef zeroext i1 @_ZNKSt3__h9basic_iosIcNS_11char_traitsIcEEEcvbB6v15004Ev(ptr noundef nonnull align 4 dereferenceable(80) %17), !dbg !6178
  br i1 %18, label %19, label %25, !dbg !6181

19:                                               ; preds = %12
  %20 = call noundef nonnull align 4 dereferenceable(4) ptr @_ZNSt3__hlsIcNS_11char_traitsIcEENS_9allocatorIcEEEERNS_13basic_ostreamIT_T0_EES9_RKNS_12basic_stringIS6_S7_T1_EE(ptr noundef nonnull align 4 dereferenceable(4) %4, ptr noundef nonnull align 4 dereferenceable(12) %5), !dbg !6182
  %21 = call noundef nonnull align 4 dereferenceable(4) ptr @_ZNSt3__h13basic_ostreamIcNS_11char_traitsIcEEElsB6v15004EPFRS3_S4_E(ptr noundef nonnull align 4 dereferenceable(4) %20, ptr noundef @_ZNSt3__h4endlIcNS_11char_traitsIcEEEERNS_13basic_ostreamIT_T0_EES7_), !dbg !6184
  %22 = load i32, ptr %2, align 4, !dbg !6185
  %23 = call noundef nonnull align 4 dereferenceable(4) ptr @_ZNSt3__h13basic_ostreamIcNS_11char_traitsIcEEElsEi(ptr noundef nonnull align 4 dereferenceable(4) %4, i32 noundef %22), !dbg !6186
  %24 = call noundef nonnull align 4 dereferenceable(4) ptr @_ZNSt3__h13basic_ostreamIcNS_11char_traitsIcEEElsB6v15004EPFRS3_S4_E(ptr noundef nonnull align 4 dereferenceable(4) %23, ptr noundef @_ZNSt3__h4endlIcNS_11char_traitsIcEEEERNS_13basic_ostreamIT_T0_EES7_), !dbg !6187
  br label %25, !dbg !6188

25:                                               ; preds = %19, %12
  br label %26, !dbg !6189

26:                                               ; preds = %25, %10, %1
  %27 = call noundef ptr @_ZNSt3__h12basic_stringIcNS_11char_traitsIcEENS_9allocatorIcEEED1Ev(ptr noundef nonnull align 4 dereferenceable(12) %5) #14, !dbg !6190
  %28 = call noundef ptr @_ZNSt3__h14basic_ofstreamIcNS_11char_traitsIcEEED1Ev(ptr noundef nonnull align 4 dereferenceable(104) %4) #14, !dbg !6190
  %29 = call noundef ptr @_ZNSt3__h14basic_ifstreamIcNS_11char_traitsIcEEED1Ev(ptr noundef nonnull align 4 dereferenceable(108) %3) #14, !dbg !6190
  ret i32 0, !dbg !6190
}

; Function Attrs: nocallback nofree nosync nounwind readnone speculatable willreturn
declare void @llvm.dbg.declare(metadata, metadata, metadata) #1

; Function Attrs: argmemonly nocallback nofree nounwind willreturn writeonly
declare void @llvm.memset.p0.i32(ptr nocapture writeonly, i8, i32, i1 immarg) #2

; Function Attrs: noinline nounwind optnone sspstrong uwtable(sync)
define linkonce_odr hidden noundef ptr @_ZNSt3__h14basic_ifstreamIcNS_11char_traitsIcEEEC1EPKcj(ptr noundef nonnull returned align 4 dereferenceable(108) %0, ptr noundef %1, i32 noundef %2) unnamed_addr #3 comdat align 2 !dbg !6191 {
  %4 = alloca ptr, align 4
  %5 = alloca ptr, align 4
  %6 = alloca ptr, align 4
  %7 = alloca i32, align 4
  store ptr %0, ptr %5, align 4
  call void @llvm.dbg.declare(metadata ptr %5, metadata !6192, metadata !DIExpression()), !dbg !6194
  store ptr %1, ptr %6, align 4
  call void @llvm.dbg.declare(metadata ptr %6, metadata !6195, metadata !DIExpression()), !dbg !6196
  store i32 %2, ptr %7, align 4
  call void @llvm.dbg.declare(metadata ptr %7, metadata !6197, metadata !DIExpression()), !dbg !6198
  %8 = load ptr, ptr %5, align 4
  store ptr %8, ptr %4, align 4
  %9 = getelementptr inbounds i8, ptr %8, i32 108, !dbg !6199
  %10 = call noundef ptr @_ZNSt3__h9basic_iosIcNS_11char_traitsIcEEEC2B6v15004Ev(ptr noundef nonnull align 4 dereferenceable(80) %9), !dbg !6200
  store ptr getelementptr inbounds ({ [5 x ptr], [5 x ptr] }, ptr @_ZTVNSt3__h14basic_ifstreamIcNS_11char_traitsIcEEEE, i32 0, inrange i32 0, i32 3), ptr %8, align 4, !dbg !6199
  %11 = getelementptr inbounds i8, ptr %8, i32 108, !dbg !6199
  store ptr getelementptr inbounds ({ [5 x ptr], [5 x ptr] }, ptr @_ZTVNSt3__h14basic_ifstreamIcNS_11char_traitsIcEEEE, i32 0, inrange i32 1, i32 3), ptr %11, align 4, !dbg !6199
  %12 = getelementptr inbounds %"class.std::__h::basic_ifstream", ptr %8, i32 0, i32 1, !dbg !6201
  %13 = call noundef ptr @_ZNSt3__h13basic_istreamIcNS_11char_traitsIcEEEC2B6v15004EPNS_15basic_streambufIcS2_EE(ptr noundef nonnull align 4 dereferenceable(8) %8, ptr noundef getelementptr inbounds ([4 x ptr], ptr @_ZTTNSt3__h14basic_ifstreamIcNS_11char_traitsIcEEEE, i64 0, i64 1), ptr noundef %12), !dbg !6202
  store ptr getelementptr inbounds ({ [5 x ptr], [5 x ptr] }, ptr @_ZTVNSt3__h14basic_ifstreamIcNS_11char_traitsIcEEEE, i32 0, inrange i32 0, i32 3), ptr %8, align 4, !dbg !6199
  %14 = getelementptr inbounds i8, ptr %8, i32 108, !dbg !6199
  store ptr getelementptr inbounds ({ [5 x ptr], [5 x ptr] }, ptr @_ZTVNSt3__h14basic_ifstreamIcNS_11char_traitsIcEEEE, i32 0, inrange i32 1, i32 3), ptr %14, align 4, !dbg !6199
  %15 = getelementptr inbounds %"class.std::__h::basic_ifstream", ptr %8, i32 0, i32 1, !dbg !6200
  %16 = call noundef ptr @_ZNSt3__h13basic_filebufIcNS_11char_traitsIcEEEC2Ev(ptr noundef nonnull align 4 dereferenceable(99) %15), !dbg !6200
  %17 = getelementptr inbounds %"class.std::__h::basic_ifstream", ptr %8, i32 0, i32 1, !dbg !6203
  %18 = load ptr, ptr %6, align 4, !dbg !6206
  %19 = load i32, ptr %7, align 4, !dbg !6207
  %20 = or i32 %19, 8, !dbg !6208
  %21 = call noundef ptr @_ZNSt3__h13basic_filebufIcNS_11char_traitsIcEEE4openEPKcj(ptr noundef nonnull align 4 dereferenceable(99) %17, ptr noundef %18, i32 noundef %20), !dbg !6209
  %22 = icmp eq ptr %21, null, !dbg !6210
  br i1 %22, label %23, label %28, !dbg !6211

23:                                               ; preds = %3
  %24 = load ptr, ptr %8, align 4, !dbg !6212
  %25 = getelementptr i8, ptr %24, i64 -12, !dbg !6212
  %26 = load i32, ptr %25, align 4, !dbg !6212
  %27 = getelementptr inbounds i8, ptr %8, i32 %26, !dbg !6212
  call void @_ZNSt3__h9basic_iosIcNS_11char_traitsIcEEE8setstateB6v15004Ej(ptr noundef nonnull align 4 dereferenceable(80) %27, i32 noundef 4), !dbg !6212
  br label %28, !dbg !6213

28:                                               ; preds = %23, %3
  %29 = load ptr, ptr %4, align 4, !dbg !6214
  ret ptr %29, !dbg !6214
}

; Function Attrs: noinline nounwind optnone sspstrong uwtable(sync)
define linkonce_odr hidden noundef ptr @_ZNSt3__h14basic_ofstreamIcNS_11char_traitsIcEEEC1EPKcj(ptr noundef nonnull returned align 4 dereferenceable(104) %0, ptr noundef %1, i32 noundef %2) unnamed_addr #3 comdat align 2 !dbg !6215 {
  %4 = alloca ptr, align 4
  %5 = alloca ptr, align 4
  %6 = alloca ptr, align 4
  %7 = alloca i32, align 4
  store ptr %0, ptr %5, align 4
  call void @llvm.dbg.declare(metadata ptr %5, metadata !6216, metadata !DIExpression()), !dbg !6218
  store ptr %1, ptr %6, align 4
  call void @llvm.dbg.declare(metadata ptr %6, metadata !6219, metadata !DIExpression()), !dbg !6220
  store i32 %2, ptr %7, align 4
  call void @llvm.dbg.declare(metadata ptr %7, metadata !6221, metadata !DIExpression()), !dbg !6222
  %8 = load ptr, ptr %5, align 4
  store ptr %8, ptr %4, align 4
  %9 = getelementptr inbounds i8, ptr %8, i32 104, !dbg !6223
  %10 = call noundef ptr @_ZNSt3__h9basic_iosIcNS_11char_traitsIcEEEC2B6v15004Ev(ptr noundef nonnull align 4 dereferenceable(80) %9), !dbg !6224
  store ptr getelementptr inbounds ({ [5 x ptr], [5 x ptr] }, ptr @_ZTVNSt3__h14basic_ofstreamIcNS_11char_traitsIcEEEE, i32 0, inrange i32 0, i32 3), ptr %8, align 4, !dbg !6223
  %11 = getelementptr inbounds i8, ptr %8, i32 104, !dbg !6223
  store ptr getelementptr inbounds ({ [5 x ptr], [5 x ptr] }, ptr @_ZTVNSt3__h14basic_ofstreamIcNS_11char_traitsIcEEEE, i32 0, inrange i32 1, i32 3), ptr %11, align 4, !dbg !6223
  %12 = getelementptr inbounds %"class.std::__h::basic_ofstream", ptr %8, i32 0, i32 1, !dbg !6225
  %13 = call noundef ptr @_ZNSt3__h13basic_ostreamIcNS_11char_traitsIcEEEC2B6v15004EPNS_15basic_streambufIcS2_EE(ptr noundef nonnull align 4 dereferenceable(4) %8, ptr noundef getelementptr inbounds ([4 x ptr], ptr @_ZTTNSt3__h14basic_ofstreamIcNS_11char_traitsIcEEEE, i64 0, i64 1), ptr noundef %12), !dbg !6226
  store ptr getelementptr inbounds ({ [5 x ptr], [5 x ptr] }, ptr @_ZTVNSt3__h14basic_ofstreamIcNS_11char_traitsIcEEEE, i32 0, inrange i32 0, i32 3), ptr %8, align 4, !dbg !6223
  %14 = getelementptr inbounds i8, ptr %8, i32 104, !dbg !6223
  store ptr getelementptr inbounds ({ [5 x ptr], [5 x ptr] }, ptr @_ZTVNSt3__h14basic_ofstreamIcNS_11char_traitsIcEEEE, i32 0, inrange i32 1, i32 3), ptr %14, align 4, !dbg !6223
  %15 = getelementptr inbounds %"class.std::__h::basic_ofstream", ptr %8, i32 0, i32 1, !dbg !6224
  %16 = call noundef ptr @_ZNSt3__h13basic_filebufIcNS_11char_traitsIcEEEC2Ev(ptr noundef nonnull align 4 dereferenceable(99) %15), !dbg !6224
  %17 = getelementptr inbounds %"class.std::__h::basic_ofstream", ptr %8, i32 0, i32 1, !dbg !6227
  %18 = load ptr, ptr %6, align 4, !dbg !6230
  %19 = load i32, ptr %7, align 4, !dbg !6231
  %20 = or i32 %19, 16, !dbg !6232
  %21 = call noundef ptr @_ZNSt3__h13basic_filebufIcNS_11char_traitsIcEEE4openEPKcj(ptr noundef nonnull align 4 dereferenceable(99) %17, ptr noundef %18, i32 noundef %20), !dbg !6233
  %22 = icmp eq ptr %21, null, !dbg !6234
  br i1 %22, label %23, label %28, !dbg !6235

23:                                               ; preds = %3
  %24 = load ptr, ptr %8, align 4, !dbg !6236
  %25 = getelementptr i8, ptr %24, i64 -12, !dbg !6236
  %26 = load i32, ptr %25, align 4, !dbg !6236
  %27 = getelementptr inbounds i8, ptr %8, i32 %26, !dbg !6236
  call void @_ZNSt3__h9basic_iosIcNS_11char_traitsIcEEE8setstateB6v15004Ej(ptr noundef nonnull align 4 dereferenceable(80) %27, i32 noundef 4), !dbg !6236
  br label %28, !dbg !6237

28:                                               ; preds = %23, %3
  %29 = load ptr, ptr %4, align 4, !dbg !6238
  ret ptr %29, !dbg !6238
}

; Function Attrs: noinline nounwind optnone sspstrong uwtable(sync)
define linkonce_odr hidden noundef ptr @_ZNSt3__h12basic_stringIcNS_11char_traitsIcEENS_9allocatorIcEEEC2B6v15004Ev(ptr noundef nonnull returned align 4 dereferenceable(12) %0) unnamed_addr #3 comdat align 2 !dbg !6239 {
  %2 = alloca ptr, align 4
  %3 = alloca %"struct.std::__h::__less.5", align 1
  %4 = alloca %"struct.std::__h::__less.5", align 1
  store ptr %0, ptr %2, align 4
  call void @llvm.dbg.declare(metadata ptr %2, metadata !6240, metadata !DIExpression()), !dbg !6242
  %5 = load ptr, ptr %2, align 4
  %6 = getelementptr inbounds %"class.std::__h::basic_string", ptr %5, i32 0, i32 0, !dbg !6243
  %7 = call noundef ptr @_ZNSt3__h17__compressed_pairINS_12basic_stringIcNS_11char_traitsIcEENS_9allocatorIcEEE5__repES5_EC2B6v15004INS_18__default_init_tagESA_EEOT_OT0_(ptr noundef nonnull align 4 dereferenceable(12) %6, ptr noundef nonnull align 1 dereferenceable(1) %3, ptr noundef nonnull align 1 dereferenceable(1) %4), !dbg !6243
  call void @_ZNSt3__h19__debug_db_insert_cB6v15004INS_12basic_stringIcNS_11char_traitsIcEENS_9allocatorIcEEEEEEvPT_(ptr noundef %5), !dbg !6244
  call void @_ZNSt3__h12basic_stringIcNS_11char_traitsIcEENS_9allocatorIcEEE14__default_initB6v15004Ev(ptr noundef nonnull align 4 dereferenceable(12) %5), !dbg !6246
  ret ptr %5, !dbg !6247
}

; Function Attrs: mustprogress noinline nounwind optnone sspstrong uwtable(sync)
define linkonce_odr hidden noundef zeroext i1 @_ZNKSt3__h14basic_ifstreamIcNS_11char_traitsIcEEE7is_openEv(ptr noundef nonnull align 4 dereferenceable(108) %0) #0 comdat align 2 !dbg !6248 {
  %2 = alloca ptr, align 4
  store ptr %0, ptr %2, align 4
  call void @llvm.dbg.declare(metadata ptr %2, metadata !6249, metadata !DIExpression()), !dbg !6251
  %3 = load ptr, ptr %2, align 4
  %4 = getelementptr inbounds %"class.std::__h::basic_ifstream", ptr %3, i32 0, i32 1, !dbg !6252
  %5 = call noundef zeroext i1 @_ZNKSt3__h13basic_filebufIcNS_11char_traitsIcEEE7is_openEv(ptr noundef nonnull align 4 dereferenceable(99) %4), !dbg !6253
  ret i1 %5, !dbg !6254
}

; Function Attrs: mustprogress noinline nounwind optnone sspstrong uwtable(sync)
define linkonce_odr hidden noundef zeroext i1 @_ZNKSt3__h14basic_ofstreamIcNS_11char_traitsIcEEE7is_openEv(ptr noundef nonnull align 4 dereferenceable(104) %0) #0 comdat align 2 !dbg !6255 {
  %2 = alloca ptr, align 4
  store ptr %0, ptr %2, align 4
  call void @llvm.dbg.declare(metadata ptr %2, metadata !6256, metadata !DIExpression()), !dbg !6258
  %3 = load ptr, ptr %2, align 4
  %4 = getelementptr inbounds %"class.std::__h::basic_ofstream", ptr %3, i32 0, i32 1, !dbg !6259
  %5 = call noundef zeroext i1 @_ZNKSt3__h13basic_filebufIcNS_11char_traitsIcEEE7is_openEv(ptr noundef nonnull align 4 dereferenceable(99) %4), !dbg !6260
  ret i1 %5, !dbg !6261
}

; Function Attrs: mustprogress noinline nounwind optnone sspstrong uwtable(sync)
define linkonce_odr hidden noundef nonnull align 4 dereferenceable(8) ptr @_ZNSt3__h7getlineB6v15004IcNS_11char_traitsIcEENS_9allocatorIcEEEERNS_13basic_istreamIT_T0_EES9_RNS_12basic_stringIS6_S7_T1_EE(ptr noundef nonnull align 4 dereferenceable(8) %0, ptr noundef nonnull align 4 dereferenceable(12) %1) #0 comdat !dbg !6262 {
  %3 = alloca ptr, align 4
  %4 = alloca ptr, align 4
  store ptr %0, ptr %3, align 4
  call void @llvm.dbg.declare(metadata ptr %3, metadata !6265, metadata !DIExpression()), !dbg !6266
  store ptr %1, ptr %4, align 4
  call void @llvm.dbg.declare(metadata ptr %4, metadata !6267, metadata !DIExpression()), !dbg !6268
  %5 = load ptr, ptr %3, align 4, !dbg !6269
  %6 = load ptr, ptr %4, align 4, !dbg !6270
  %7 = load ptr, ptr %3, align 4, !dbg !6271
  %8 = load ptr, ptr %7, align 4, !dbg !6271
  %9 = getelementptr i8, ptr %8, i64 -12, !dbg !6271
  %10 = load i32, ptr %9, align 4, !dbg !6271
  %11 = getelementptr inbounds i8, ptr %7, i32 %10, !dbg !6271
  %12 = call noundef zeroext i8 @_ZNKSt3__h9basic_iosIcNS_11char_traitsIcEEE5widenB6v15004Ec(ptr noundef nonnull align 4 dereferenceable(80) %11, i8 noundef zeroext 10), !dbg !6272
  %13 = call noundef nonnull align 4 dereferenceable(8) ptr @_ZNSt3__h7getlineIcNS_11char_traitsIcEENS_9allocatorIcEEEERNS_13basic_istreamIT_T0_EES9_RNS_12basic_stringIS6_S7_T1_EES6_(ptr noundef nonnull align 4 dereferenceable(8) %5, ptr noundef nonnull align 4 dereferenceable(12) %6, i8 noundef zeroext %12), !dbg !6273
  ret ptr %13, !dbg !6274
}

; Function Attrs: mustprogress noinline nounwind optnone sspstrong uwtable(sync)
define linkonce_odr hidden noundef zeroext i1 @_ZNKSt3__h9basic_iosIcNS_11char_traitsIcEEEcvbB6v15004Ev(ptr noundef nonnull align 4 dereferenceable(80) %0) #0 comdat align 2 !dbg !6275 {
  %2 = alloca ptr, align 4
  store ptr %0, ptr %2, align 4
  call void @llvm.dbg.declare(metadata ptr %2, metadata !6276, metadata !DIExpression()), !dbg !6278
  %3 = load ptr, ptr %2, align 4
  %4 = call noundef zeroext i1 @_ZNKSt3__h9basic_iosIcNS_11char_traitsIcEEE4failB6v15004Ev(ptr noundef nonnull align 4 dereferenceable(80) %3), !dbg !6279
  %5 = xor i1 %4, true, !dbg !6280
  ret i1 %5, !dbg !6281
}

; Function Attrs: mustprogress noinline nounwind optnone sspstrong uwtable(sync)
define linkonce_odr noundef nonnull align 4 dereferenceable(4) ptr @_ZNSt3__hlsIcNS_11char_traitsIcEENS_9allocatorIcEEEERNS_13basic_ostreamIT_T0_EES9_RKNS_12basic_stringIS6_S7_T1_EE(ptr noundef nonnull align 4 dereferenceable(4) %0, ptr noundef nonnull align 4 dereferenceable(12) %1) #0 comdat !dbg !6282 {
  %3 = alloca ptr, align 4
  %4 = alloca ptr, align 4
  store ptr %0, ptr %3, align 4
  call void @llvm.dbg.declare(metadata ptr %3, metadata !6285, metadata !DIExpression()), !dbg !6286
  store ptr %1, ptr %4, align 4
  call void @llvm.dbg.declare(metadata ptr %4, metadata !6287, metadata !DIExpression()), !dbg !6288
  %5 = load ptr, ptr %3, align 4, !dbg !6289
  %6 = load ptr, ptr %4, align 4, !dbg !6290
  %7 = call noundef ptr @_ZNKSt3__h12basic_stringIcNS_11char_traitsIcEENS_9allocatorIcEEE4dataB6v15004Ev(ptr noundef nonnull align 4 dereferenceable(12) %6) #14, !dbg !6291
  %8 = load ptr, ptr %4, align 4, !dbg !6292
  %9 = call noundef i32 @_ZNKSt3__h12basic_stringIcNS_11char_traitsIcEENS_9allocatorIcEEE4sizeB6v15004Ev(ptr noundef nonnull align 4 dereferenceable(12) %8) #14, !dbg !6293
  %10 = call noundef nonnull align 4 dereferenceable(4) ptr @_ZNSt3__h24__put_character_sequenceIcNS_11char_traitsIcEEEERNS_13basic_ostreamIT_T0_EES7_PKS4_j(ptr noundef nonnull align 4 dereferenceable(4) %5, ptr noundef %7, i32 noundef %9), !dbg !6294
  ret ptr %10, !dbg !6295
}

; Function Attrs: mustprogress noinline nounwind optnone sspstrong uwtable(sync)
define linkonce_odr hidden noundef nonnull align 4 dereferenceable(4) ptr @_ZNSt3__h4endlIcNS_11char_traitsIcEEEERNS_13basic_ostreamIT_T0_EES7_(ptr noundef nonnull align 4 dereferenceable(4) %0) #0 comdat !dbg !6296 {
  %2 = alloca ptr, align 4
  store ptr %0, ptr %2, align 4
  call void @llvm.dbg.declare(metadata ptr %2, metadata !6297, metadata !DIExpression()), !dbg !6298
  %3 = load ptr, ptr %2, align 4, !dbg !6299
  %4 = load ptr, ptr %2, align 4, !dbg !6300
  %5 = load ptr, ptr %4, align 4, !dbg !6300
  %6 = getelementptr i8, ptr %5, i64 -12, !dbg !6300
  %7 = load i32, ptr %6, align 4, !dbg !6300
  %8 = getelementptr inbounds i8, ptr %4, i32 %7, !dbg !6300
  %9 = call noundef zeroext i8 @_ZNKSt3__h9basic_iosIcNS_11char_traitsIcEEE5widenB6v15004Ec(ptr noundef nonnull align 4 dereferenceable(80) %8, i8 noundef zeroext 10), !dbg !6301
  %10 = call noundef nonnull align 4 dereferenceable(4) ptr @_ZNSt3__h13basic_ostreamIcNS_11char_traitsIcEEE3putEc(ptr noundef nonnull align 4 dereferenceable(4) %3, i8 noundef zeroext %9), !dbg !6302
  %11 = load ptr, ptr %2, align 4, !dbg !6303
  %12 = call noundef nonnull align 4 dereferenceable(4) ptr @_ZNSt3__h13basic_ostreamIcNS_11char_traitsIcEEE5flushEv(ptr noundef nonnull align 4 dereferenceable(4) %11), !dbg !6304
  %13 = load ptr, ptr %2, align 4, !dbg !6305
  ret ptr %13, !dbg !6306
}

; Function Attrs: mustprogress noinline nounwind optnone sspstrong uwtable(sync)
define linkonce_odr hidden noundef nonnull align 4 dereferenceable(4) ptr @_ZNSt3__h13basic_ostreamIcNS_11char_traitsIcEEElsB6v15004EPFRS3_S4_E(ptr noundef nonnull align 4 dereferenceable(4) %0, ptr noundef %1) #0 comdat align 2 !dbg !6307 {
  %3 = alloca ptr, align 4
  %4 = alloca ptr, align 4
  store ptr %0, ptr %3, align 4
  call void @llvm.dbg.declare(metadata ptr %3, metadata !6308, metadata !DIExpression()), !dbg !6309
  store ptr %1, ptr %4, align 4
  call void @llvm.dbg.declare(metadata ptr %4, metadata !6310, metadata !DIExpression()), !dbg !6311
  %5 = load ptr, ptr %3, align 4
  %6 = load ptr, ptr %4, align 4, !dbg !6312
  %7 = call noundef nonnull align 4 dereferenceable(4) ptr %6(ptr noundef nonnull align 4 dereferenceable(4) %5), !dbg !6312
  ret ptr %7, !dbg !6313
}

declare noundef nonnull align 4 dereferenceable(4) ptr @_ZNSt3__h13basic_ostreamIcNS_11char_traitsIcEEElsEi(ptr noundef nonnull align 4 dereferenceable(4), i32 noundef) #4

; Function Attrs: nounwind
declare noundef ptr @_ZNSt3__h12basic_stringIcNS_11char_traitsIcEENS_9allocatorIcEEED1Ev(ptr noundef nonnull returned align 4 dereferenceable(12)) unnamed_addr #5

; Function Attrs: noinline nounwind optnone sspstrong uwtable(sync)
define linkonce_odr hidden noundef ptr @_ZNSt3__h14basic_ofstreamIcNS_11char_traitsIcEEED1Ev(ptr noundef nonnull returned align 4 dereferenceable(104) %0) unnamed_addr #3 comdat align 2 !dbg !6314 {
  %2 = alloca ptr, align 4
  store ptr %0, ptr %2, align 4
  call void @llvm.dbg.declare(metadata ptr %2, metadata !6316, metadata !DIExpression()), !dbg !6317
  %3 = load ptr, ptr %2, align 4
  %4 = call noundef ptr @_ZNSt3__h14basic_ofstreamIcNS_11char_traitsIcEEED2Ev(ptr noundef nonnull align 4 dereferenceable(104) %3, ptr noundef @_ZTTNSt3__h14basic_ofstreamIcNS_11char_traitsIcEEEE) #14, !dbg !6318
  %5 = getelementptr inbounds i8, ptr %3, i32 104, !dbg !6318
  %6 = call noundef ptr @_ZNSt3__h9basic_iosIcNS_11char_traitsIcEEED2Ev(ptr noundef nonnull align 4 dereferenceable(80) %5) #14, !dbg !6318
  ret ptr %3, !dbg !6318
}

; Function Attrs: noinline nounwind optnone sspstrong uwtable(sync)
define linkonce_odr hidden noundef ptr @_ZNSt3__h14basic_ifstreamIcNS_11char_traitsIcEEED1Ev(ptr noundef nonnull returned align 4 dereferenceable(108) %0) unnamed_addr #3 comdat align 2 !dbg !6319 {
  %2 = alloca ptr, align 4
  store ptr %0, ptr %2, align 4
  call void @llvm.dbg.declare(metadata ptr %2, metadata !6321, metadata !DIExpression()), !dbg !6322
  %3 = load ptr, ptr %2, align 4
  %4 = call noundef ptr @_ZNSt3__h14basic_ifstreamIcNS_11char_traitsIcEEED2Ev(ptr noundef nonnull align 4 dereferenceable(108) %3, ptr noundef @_ZTTNSt3__h14basic_ifstreamIcNS_11char_traitsIcEEEE) #14, !dbg !6323
  %5 = getelementptr inbounds i8, ptr %3, i32 108, !dbg !6323
  %6 = call noundef ptr @_ZNSt3__h9basic_iosIcNS_11char_traitsIcEEED2Ev(ptr noundef nonnull align 4 dereferenceable(80) %5) #14, !dbg !6323
  ret ptr %3, !dbg !6323
}

; Function Attrs: noinline nounwind optnone sspstrong uwtable(sync)
define linkonce_odr hidden noundef ptr @_ZNSt3__h14basic_ifstreamIcNS_11char_traitsIcEEED2Ev(ptr noundef nonnull returned align 4 dereferenceable(108) %0, ptr noundef %1) unnamed_addr #3 comdat align 2 !dbg !6324 {
  %3 = alloca ptr, align 4
  %4 = alloca ptr, align 4
  store ptr %0, ptr %3, align 4
  call void @llvm.dbg.declare(metadata ptr %3, metadata !6325, metadata !DIExpression()), !dbg !6326
  store ptr %1, ptr %4, align 4
  call void @llvm.dbg.declare(metadata ptr %4, metadata !6327, metadata !DIExpression()), !dbg !6326
  %5 = load ptr, ptr %3, align 4
  %6 = load ptr, ptr %4, align 4
  %7 = load ptr, ptr %6, align 4, !dbg !6328
  store ptr %7, ptr %5, align 4, !dbg !6328
  %8 = getelementptr inbounds ptr, ptr %6, i64 3, !dbg !6328
  %9 = load ptr, ptr %8, align 4, !dbg !6328
  %10 = load ptr, ptr %5, align 4, !dbg !6328
  %11 = getelementptr i8, ptr %10, i64 -12, !dbg !6328
  %12 = load i32, ptr %11, align 4, !dbg !6328
  %13 = getelementptr inbounds i8, ptr %5, i32 %12, !dbg !6328
  store ptr %9, ptr %13, align 4, !dbg !6328
  %14 = getelementptr inbounds %"class.std::__h::basic_ifstream", ptr %5, i32 0, i32 1, !dbg !6329
  %15 = call noundef ptr @_ZNSt3__h13basic_filebufIcNS_11char_traitsIcEEED2Ev(ptr noundef nonnull align 4 dereferenceable(99) %14) #14, !dbg !6329
  %16 = getelementptr inbounds ptr, ptr %6, i64 1, !dbg !6329
  %17 = call noundef ptr @_ZNSt3__h13basic_istreamIcNS_11char_traitsIcEEED2Ev(ptr noundef nonnull align 4 dereferenceable(8) %5, ptr noundef %16) #14, !dbg !6329
  ret ptr %5, !dbg !6328
}

; Function Attrs: nounwind
declare noundef ptr @_ZNSt3__h9basic_iosIcNS_11char_traitsIcEEED2Ev(ptr noundef nonnull returned align 4 dereferenceable(80)) unnamed_addr #5

; Function Attrs: noinline nounwind optnone sspstrong uwtable(sync)
define linkonce_odr noundef ptr @_ZNSt3__h13basic_filebufIcNS_11char_traitsIcEEED2Ev(ptr noundef nonnull returned align 4 dereferenceable(99) %0) unnamed_addr #3 comdat align 2 !dbg !6331 {
  %2 = alloca ptr, align 4
  %3 = alloca ptr, align 4
  store ptr %0, ptr %3, align 4
  call void @llvm.dbg.declare(metadata ptr %3, metadata !6332, metadata !DIExpression()), !dbg !6333
  %4 = load ptr, ptr %3, align 4
  store ptr %4, ptr %2, align 4
  store ptr getelementptr inbounds ({ [16 x ptr] }, ptr @_ZTVNSt3__h13basic_filebufIcNS_11char_traitsIcEEEE, i32 0, inrange i32 0, i32 2), ptr %4, align 4, !dbg !6334
  %5 = call noundef ptr @_ZNSt3__h13basic_filebufIcNS_11char_traitsIcEEE5closeEv(ptr noundef nonnull align 4 dereferenceable(99) %4), !dbg !6335
  %6 = getelementptr inbounds %"class.std::__h::basic_filebuf", ptr %4, i32 0, i32 14, !dbg !6337
  %7 = load i8, ptr %6, align 4, !dbg !6337
  %8 = trunc i8 %7 to i1, !dbg !6337
  br i1 %8, label %9, label %15, !dbg !6339

9:                                                ; preds = %1
  %10 = getelementptr inbounds %"class.std::__h::basic_filebuf", ptr %4, i32 0, i32 1, !dbg !6340
  %11 = load ptr, ptr %10, align 4, !dbg !6340
  %12 = icmp eq ptr %11, null, !dbg !6341
  br i1 %12, label %14, label %13, !dbg !6341

13:                                               ; preds = %9
  call void @_ZdaPv(ptr noundef %11) #15, !dbg !6341
  br label %14, !dbg !6341

14:                                               ; preds = %13, %9
  br label %15, !dbg !6341

15:                                               ; preds = %14, %1
  %16 = getelementptr inbounds %"class.std::__h::basic_filebuf", ptr %4, i32 0, i32 15, !dbg !6342
  %17 = load i8, ptr %16, align 1, !dbg !6342
  %18 = trunc i8 %17 to i1, !dbg !6342
  br i1 %18, label %19, label %25, !dbg !6344

19:                                               ; preds = %15
  %20 = getelementptr inbounds %"class.std::__h::basic_filebuf", ptr %4, i32 0, i32 6, !dbg !6345
  %21 = load ptr, ptr %20, align 4, !dbg !6345
  %22 = icmp eq ptr %21, null, !dbg !6346
  br i1 %22, label %24, label %23, !dbg !6346

23:                                               ; preds = %19
  call void @_ZdaPv(ptr noundef %21) #15, !dbg !6346
  br label %24, !dbg !6346

24:                                               ; preds = %23, %19
  br label %25, !dbg !6346

25:                                               ; preds = %24, %15
  %26 = call noundef ptr @_ZNSt3__h15basic_streambufIcNS_11char_traitsIcEEED2Ev(ptr noundef nonnull align 4 dereferenceable(32) %4) #14, !dbg !6347
  %27 = load ptr, ptr %2, align 4, !dbg !6348
  ret ptr %27, !dbg !6348
}

; Function Attrs: nounwind
declare noundef ptr @_ZNSt3__h13basic_istreamIcNS_11char_traitsIcEEED2Ev(ptr noundef nonnull returned align 4 dereferenceable(8), ptr noundef) unnamed_addr #5

; Function Attrs: mustprogress noinline nounwind optnone sspstrong uwtable(sync)
define linkonce_odr noundef ptr @_ZNSt3__h13basic_filebufIcNS_11char_traitsIcEEE5closeEv(ptr noundef nonnull align 4 dereferenceable(99) %0) #0 comdat align 2 !dbg !6349 {
  %2 = alloca ptr, align 4
  %3 = alloca ptr, align 4
  %4 = alloca %"class.std::__h::unique_ptr", align 4
  %5 = alloca ptr, align 4
  store ptr %0, ptr %2, align 4
  call void @llvm.dbg.declare(metadata ptr %2, metadata !6350, metadata !DIExpression()), !dbg !6351
  %6 = load ptr, ptr %2, align 4
  call void @llvm.dbg.declare(metadata ptr %3, metadata !6352, metadata !DIExpression()), !dbg !6353
  store ptr null, ptr %3, align 4, !dbg !6353, !annotation !6167
  store ptr null, ptr %3, align 4, !dbg !6353
  %7 = getelementptr inbounds %"class.std::__h::basic_filebuf", ptr %6, i32 0, i32 8, !dbg !6354
  %8 = load ptr, ptr %7, align 4, !dbg !6354
  %9 = icmp ne ptr %8, null, !dbg !6354
  br i1 %9, label %10, label %32, !dbg !6356

10:                                               ; preds = %1
  store ptr %6, ptr %3, align 4, !dbg !6357
  call void @llvm.dbg.declare(metadata ptr %4, metadata !6359, metadata !DIExpression()), !dbg !6360
  call void @llvm.memset.p0.i32(ptr align 4 %4, i8 0, i32 8, i1 false), !dbg !6360, !annotation !6167
  %11 = getelementptr inbounds %"class.std::__h::basic_filebuf", ptr %6, i32 0, i32 8, !dbg !6361
  %12 = load ptr, ptr %11, align 4, !dbg !6361
  store ptr @fclose, ptr %5, align 4, !dbg !6362
  %13 = call noundef ptr @_ZNSt3__h10unique_ptrI8_IO_FILEPFiPS1_EEC2B6v15004ILb1EvEES2_NS_16__dependent_typeINS_27__unique_ptr_deleter_sfinaeIS4_EEXT_EE20__good_rval_ref_typeE(ptr noundef nonnull align 4 dereferenceable(8) %4, ptr noundef %12, ptr noundef nonnull align 4 dereferenceable(4) %5) #14, !dbg !6360
  %14 = load ptr, ptr %6, align 4, !dbg !6363
  %15 = getelementptr inbounds ptr, ptr %14, i64 6, !dbg !6363
  %16 = load ptr, ptr %15, align 4, !dbg !6363
  %17 = call noundef i32 %16(ptr noundef nonnull align 4 dereferenceable(99) %6), !dbg !6363
  %18 = icmp ne i32 %17, 0, !dbg !6363
  br i1 %18, label %19, label %20, !dbg !6365

19:                                               ; preds = %10
  store ptr null, ptr %3, align 4, !dbg !6366
  br label %20, !dbg !6367

20:                                               ; preds = %19, %10
  %21 = call noundef ptr @_ZNSt3__h10unique_ptrI8_IO_FILEPFiPS1_EE7releaseB6v15004Ev(ptr noundef nonnull align 4 dereferenceable(8) %4) #14, !dbg !6368
  %22 = call i32 @fclose(ptr noundef %21), !dbg !6370
  %23 = icmp ne i32 %22, 0, !dbg !6370
  br i1 %23, label %24, label %25, !dbg !6371

24:                                               ; preds = %20
  store ptr null, ptr %3, align 4, !dbg !6372
  br label %25, !dbg !6373

25:                                               ; preds = %24, %20
  %26 = getelementptr inbounds %"class.std::__h::basic_filebuf", ptr %6, i32 0, i32 8, !dbg !6374
  store ptr null, ptr %26, align 4, !dbg !6375
  %27 = load ptr, ptr %6, align 4, !dbg !6376
  %28 = getelementptr inbounds ptr, ptr %27, i64 3, !dbg !6376
  %29 = load ptr, ptr %28, align 4, !dbg !6376
  %30 = call noundef ptr %29(ptr noundef nonnull align 4 dereferenceable(99) %6, ptr noundef null, i32 noundef 0), !dbg !6376
  %31 = call noundef ptr @_ZNSt3__h10unique_ptrI8_IO_FILEPFiPS1_EED2B6v15004Ev(ptr noundef nonnull align 4 dereferenceable(8) %4) #14, !dbg !6377
  br label %32, !dbg !6378

32:                                               ; preds = %25, %1
  %33 = load ptr, ptr %3, align 4, !dbg !6379
  ret ptr %33, !dbg !6380
}

; Function Attrs: nobuiltin nounwind
declare void @_ZdaPv(ptr noundef) #6

; Function Attrs: nounwind
declare noundef ptr @_ZNSt3__h15basic_streambufIcNS_11char_traitsIcEEED2Ev(ptr noundef nonnull returned align 4 dereferenceable(32)) unnamed_addr #5

declare i32 @fclose(ptr noundef) #4

; Function Attrs: noinline nounwind optnone sspstrong uwtable(sync)
define linkonce_odr hidden noundef ptr @_ZNSt3__h10unique_ptrI8_IO_FILEPFiPS1_EEC2B6v15004ILb1EvEES2_NS_16__dependent_typeINS_27__unique_ptr_deleter_sfinaeIS4_EEXT_EE20__good_rval_ref_typeE(ptr noundef nonnull returned align 4 dereferenceable(8) %0, ptr noundef %1, ptr noundef nonnull align 4 dereferenceable(4) %2) unnamed_addr #3 comdat align 2 !dbg !6381 {
  %4 = alloca ptr, align 4
  %5 = alloca ptr, align 4
  %6 = alloca ptr, align 4
  store ptr %0, ptr %4, align 4
  call void @llvm.dbg.declare(metadata ptr %4, metadata !6393, metadata !DIExpression()), !dbg !6395
  store ptr %1, ptr %5, align 4
  call void @llvm.dbg.declare(metadata ptr %5, metadata !6396, metadata !DIExpression()), !dbg !6397
  store ptr %2, ptr %6, align 4
  call void @llvm.dbg.declare(metadata ptr %6, metadata !6398, metadata !DIExpression()), !dbg !6399
  %7 = load ptr, ptr %4, align 4
  %8 = getelementptr inbounds %"class.std::__h::unique_ptr", ptr %7, i32 0, i32 0, !dbg !6400
  %9 = load ptr, ptr %6, align 4, !dbg !6401
  %10 = call noundef ptr @_ZNSt3__h17__compressed_pairIP8_IO_FILEPFiS2_EEC2B6v15004IRS2_S4_EEOT_OT0_(ptr noundef nonnull align 4 dereferenceable(8) %8, ptr noundef nonnull align 4 dereferenceable(4) %5, ptr noundef nonnull align 4 dereferenceable(4) %9), !dbg !6400
  ret ptr %7, !dbg !6402
}

; Function Attrs: mustprogress noinline nounwind optnone sspstrong uwtable(sync)
define linkonce_odr hidden noundef ptr @_ZNSt3__h10unique_ptrI8_IO_FILEPFiPS1_EE7releaseB6v15004Ev(ptr noundef nonnull align 4 dereferenceable(8) %0) #0 comdat align 2 !dbg !6403 {
  %2 = alloca ptr, align 4
  %3 = alloca ptr, align 4
  store ptr %0, ptr %2, align 4
  call void @llvm.dbg.declare(metadata ptr %2, metadata !6404, metadata !DIExpression()), !dbg !6405
  %4 = load ptr, ptr %2, align 4
  call void @llvm.dbg.declare(metadata ptr %3, metadata !6406, metadata !DIExpression()), !dbg !6407
  store ptr null, ptr %3, align 4, !dbg !6407, !annotation !6167
  %5 = getelementptr inbounds %"class.std::__h::unique_ptr", ptr %4, i32 0, i32 0, !dbg !6408
  %6 = call noundef nonnull align 4 dereferenceable(4) ptr @_ZNSt3__h17__compressed_pairIP8_IO_FILEPFiS2_EE5firstB6v15004Ev(ptr noundef nonnull align 4 dereferenceable(8) %5) #14, !dbg !6409
  %7 = load ptr, ptr %6, align 4, !dbg !6409
  store ptr %7, ptr %3, align 4, !dbg !6407
  %8 = getelementptr inbounds %"class.std::__h::unique_ptr", ptr %4, i32 0, i32 0, !dbg !6410
  %9 = call noundef nonnull align 4 dereferenceable(4) ptr @_ZNSt3__h17__compressed_pairIP8_IO_FILEPFiS2_EE5firstB6v15004Ev(ptr noundef nonnull align 4 dereferenceable(8) %8) #14, !dbg !6411
  store ptr null, ptr %9, align 4, !dbg !6412
  %10 = load ptr, ptr %3, align 4, !dbg !6413
  ret ptr %10, !dbg !6414
}

; Function Attrs: noinline nounwind optnone sspstrong uwtable(sync)
define linkonce_odr hidden noundef ptr @_ZNSt3__h10unique_ptrI8_IO_FILEPFiPS1_EED2B6v15004Ev(ptr noundef nonnull returned align 4 dereferenceable(8) %0) unnamed_addr #3 comdat align 2 !dbg !6415 {
  %2 = alloca ptr, align 4
  store ptr %0, ptr %2, align 4
  call void @llvm.dbg.declare(metadata ptr %2, metadata !6416, metadata !DIExpression()), !dbg !6417
  %3 = load ptr, ptr %2, align 4
  call void @_ZNSt3__h10unique_ptrI8_IO_FILEPFiPS1_EE5resetB6v15004ES2_(ptr noundef nonnull align 4 dereferenceable(8) %3, ptr noundef null) #14, !dbg !6418
  ret ptr %3, !dbg !6420
}

; Function Attrs: mustprogress noinline nounwind optnone sspstrong uwtable(sync)
define linkonce_odr hidden void @_ZNSt3__h10unique_ptrI8_IO_FILEPFiPS1_EE5resetB6v15004ES2_(ptr noundef nonnull align 4 dereferenceable(8) %0, ptr noundef %1) #0 comdat align 2 !dbg !6421 {
  %3 = alloca ptr, align 4
  %4 = alloca ptr, align 4
  %5 = alloca ptr, align 4
  store ptr %0, ptr %3, align 4
  call void @llvm.dbg.declare(metadata ptr %3, metadata !6422, metadata !DIExpression()), !dbg !6423
  store ptr %1, ptr %4, align 4
  call void @llvm.dbg.declare(metadata ptr %4, metadata !6424, metadata !DIExpression()), !dbg !6425
  %6 = load ptr, ptr %3, align 4
  call void @llvm.dbg.declare(metadata ptr %5, metadata !6426, metadata !DIExpression()), !dbg !6427
  store ptr null, ptr %5, align 4, !dbg !6427, !annotation !6167
  %7 = getelementptr inbounds %"class.std::__h::unique_ptr", ptr %6, i32 0, i32 0, !dbg !6428
  %8 = call noundef nonnull align 4 dereferenceable(4) ptr @_ZNSt3__h17__compressed_pairIP8_IO_FILEPFiS2_EE5firstB6v15004Ev(ptr noundef nonnull align 4 dereferenceable(8) %7) #14, !dbg !6429
  %9 = load ptr, ptr %8, align 4, !dbg !6429
  store ptr %9, ptr %5, align 4, !dbg !6427
  %10 = load ptr, ptr %4, align 4, !dbg !6430
  %11 = getelementptr inbounds %"class.std::__h::unique_ptr", ptr %6, i32 0, i32 0, !dbg !6431
  %12 = call noundef nonnull align 4 dereferenceable(4) ptr @_ZNSt3__h17__compressed_pairIP8_IO_FILEPFiS2_EE5firstB6v15004Ev(ptr noundef nonnull align 4 dereferenceable(8) %11) #14, !dbg !6432
  store ptr %10, ptr %12, align 4, !dbg !6433
  %13 = load ptr, ptr %5, align 4, !dbg !6434
  %14 = icmp ne ptr %13, null, !dbg !6434
  br i1 %14, label %15, label %21, !dbg !6436

15:                                               ; preds = %2
  %16 = getelementptr inbounds %"class.std::__h::unique_ptr", ptr %6, i32 0, i32 0, !dbg !6437
  %17 = call noundef nonnull align 4 dereferenceable(4) ptr @_ZNSt3__h17__compressed_pairIP8_IO_FILEPFiS2_EE6secondB6v15004Ev(ptr noundef nonnull align 4 dereferenceable(8) %16) #14, !dbg !6438
  %18 = load ptr, ptr %17, align 4, !dbg !6438
  %19 = load ptr, ptr %5, align 4, !dbg !6439
  %20 = call noundef i32 %18(ptr noundef %19), !dbg !6437
  br label %21, !dbg !6437

21:                                               ; preds = %15, %2
  ret void, !dbg !6440
}

; Function Attrs: mustprogress noinline nounwind optnone sspstrong uwtable(sync)
define linkonce_odr hidden noundef nonnull align 4 dereferenceable(4) ptr @_ZNSt3__h17__compressed_pairIP8_IO_FILEPFiS2_EE5firstB6v15004Ev(ptr noundef nonnull align 4 dereferenceable(8) %0) #0 comdat align 2 !dbg !6441 {
  %2 = alloca ptr, align 4
  store ptr %0, ptr %2, align 4
  call void @llvm.dbg.declare(metadata ptr %2, metadata !6442, metadata !DIExpression()), !dbg !6443
  %3 = load ptr, ptr %2, align 4
  %4 = call noundef nonnull align 4 dereferenceable(4) ptr @_ZNSt3__h22__compressed_pair_elemIP8_IO_FILELi0ELb0EE5__getB6v15004Ev(ptr noundef nonnull align 4 dereferenceable(4) %3) #14, !dbg !6444
  ret ptr %4, !dbg !6445
}

; Function Attrs: mustprogress noinline nounwind optnone sspstrong uwtable(sync)
define linkonce_odr hidden noundef nonnull align 4 dereferenceable(4) ptr @_ZNSt3__h17__compressed_pairIP8_IO_FILEPFiS2_EE6secondB6v15004Ev(ptr noundef nonnull align 4 dereferenceable(8) %0) #0 comdat align 2 !dbg !6446 {
  %2 = alloca ptr, align 4
  store ptr %0, ptr %2, align 4
  call void @llvm.dbg.declare(metadata ptr %2, metadata !6447, metadata !DIExpression()), !dbg !6448
  %3 = load ptr, ptr %2, align 4
  %4 = getelementptr inbounds i8, ptr %3, i32 4, !dbg !6449
  %5 = call noundef nonnull align 4 dereferenceable(4) ptr @_ZNSt3__h22__compressed_pair_elemIPFiP8_IO_FILEELi1ELb0EE5__getB6v15004Ev(ptr noundef nonnull align 4 dereferenceable(4) %4) #14, !dbg !6450
  ret ptr %5, !dbg !6451
}

; Function Attrs: mustprogress noinline nounwind optnone sspstrong uwtable(sync)
define linkonce_odr hidden noundef nonnull align 4 dereferenceable(4) ptr @_ZNSt3__h22__compressed_pair_elemIPFiP8_IO_FILEELi1ELb0EE5__getB6v15004Ev(ptr noundef nonnull align 4 dereferenceable(4) %0) #0 comdat align 2 !dbg !6452 {
  %2 = alloca ptr, align 4
  store ptr %0, ptr %2, align 4
  call void @llvm.dbg.declare(metadata ptr %2, metadata !6453, metadata !DIExpression()), !dbg !6454
  %3 = load ptr, ptr %2, align 4
  %4 = getelementptr inbounds %"class.std::__h::locale", ptr %3, i32 0, i32 0, !dbg !6455
  ret ptr %4, !dbg !6456
}

; Function Attrs: mustprogress noinline nounwind optnone sspstrong uwtable(sync)
define linkonce_odr hidden noundef nonnull align 4 dereferenceable(4) ptr @_ZNSt3__h22__compressed_pair_elemIP8_IO_FILELi0ELb0EE5__getB6v15004Ev(ptr noundef nonnull align 4 dereferenceable(4) %0) #0 comdat align 2 !dbg !6457 {
  %2 = alloca ptr, align 4
  store ptr %0, ptr %2, align 4
  call void @llvm.dbg.declare(metadata ptr %2, metadata !6458, metadata !DIExpression()), !dbg !6459
  %3 = load ptr, ptr %2, align 4
  %4 = getelementptr inbounds %"class.std::__h::locale", ptr %3, i32 0, i32 0, !dbg !6460
  ret ptr %4, !dbg !6461
}

; Function Attrs: noinline nounwind optnone sspstrong uwtable(sync)
define linkonce_odr hidden noundef ptr @_ZNSt3__h17__compressed_pairIP8_IO_FILEPFiS2_EEC2B6v15004IRS2_S4_EEOT_OT0_(ptr noundef nonnull returned align 4 dereferenceable(8) %0, ptr noundef nonnull align 4 dereferenceable(4) %1, ptr noundef nonnull align 4 dereferenceable(4) %2) unnamed_addr #3 comdat align 2 !dbg !6462 {
  %4 = alloca ptr, align 4
  %5 = alloca ptr, align 4
  %6 = alloca ptr, align 4
  store ptr %0, ptr %4, align 4
  call void @llvm.dbg.declare(metadata ptr %4, metadata !6469, metadata !DIExpression()), !dbg !6470
  store ptr %1, ptr %5, align 4
  call void @llvm.dbg.declare(metadata ptr %5, metadata !6471, metadata !DIExpression()), !dbg !6472
  store ptr %2, ptr %6, align 4
  call void @llvm.dbg.declare(metadata ptr %6, metadata !6473, metadata !DIExpression()), !dbg !6474
  %7 = load ptr, ptr %4, align 4
  %8 = load ptr, ptr %5, align 4, !dbg !6475
  %9 = call noundef ptr @_ZNSt3__h22__compressed_pair_elemIP8_IO_FILELi0ELb0EEC2B6v15004IRS2_vEEOT_(ptr noundef nonnull align 4 dereferenceable(4) %7, ptr noundef nonnull align 4 dereferenceable(4) %8), !dbg !6476
  %10 = getelementptr inbounds i8, ptr %7, i32 4, !dbg !6477
  %11 = load ptr, ptr %6, align 4, !dbg !6478
  %12 = call noundef ptr @_ZNSt3__h22__compressed_pair_elemIPFiP8_IO_FILEELi1ELb0EEC2B6v15004IS4_vEEOT_(ptr noundef nonnull align 4 dereferenceable(4) %10, ptr noundef nonnull align 4 dereferenceable(4) %11), !dbg !6479
  ret ptr %7, !dbg !6480
}

; Function Attrs: noinline nounwind optnone sspstrong uwtable(sync)
define linkonce_odr hidden noundef ptr @_ZNSt3__h22__compressed_pair_elemIP8_IO_FILELi0ELb0EEC2B6v15004IRS2_vEEOT_(ptr noundef nonnull returned align 4 dereferenceable(4) %0, ptr noundef nonnull align 4 dereferenceable(4) %1) unnamed_addr #3 comdat align 2 !dbg !6481 {
  %3 = alloca ptr, align 4
  %4 = alloca ptr, align 4
  store ptr %0, ptr %3, align 4
  call void @llvm.dbg.declare(metadata ptr %3, metadata !6487, metadata !DIExpression()), !dbg !6488
  store ptr %1, ptr %4, align 4
  call void @llvm.dbg.declare(metadata ptr %4, metadata !6489, metadata !DIExpression()), !dbg !6490
  %5 = load ptr, ptr %3, align 4
  %6 = getelementptr inbounds %"class.std::__h::locale", ptr %5, i32 0, i32 0, !dbg !6491
  %7 = load ptr, ptr %4, align 4, !dbg !6492
  %8 = load ptr, ptr %7, align 4, !dbg !6493
  store ptr %8, ptr %6, align 4, !dbg !6491
  ret ptr %5, !dbg !6494
}

; Function Attrs: noinline nounwind optnone sspstrong uwtable(sync)
define linkonce_odr hidden noundef ptr @_ZNSt3__h22__compressed_pair_elemIPFiP8_IO_FILEELi1ELb0EEC2B6v15004IS4_vEEOT_(ptr noundef nonnull returned align 4 dereferenceable(4) %0, ptr noundef nonnull align 4 dereferenceable(4) %1) unnamed_addr #3 comdat align 2 !dbg !6495 {
  %3 = alloca ptr, align 4
  %4 = alloca ptr, align 4
  store ptr %0, ptr %3, align 4
  call void @llvm.dbg.declare(metadata ptr %3, metadata !6501, metadata !DIExpression()), !dbg !6502
  store ptr %1, ptr %4, align 4
  call void @llvm.dbg.declare(metadata ptr %4, metadata !6503, metadata !DIExpression()), !dbg !6504
  %5 = load ptr, ptr %3, align 4
  %6 = getelementptr inbounds %"class.std::__h::locale", ptr %5, i32 0, i32 0, !dbg !6505
  %7 = load ptr, ptr %4, align 4, !dbg !6506
  %8 = load ptr, ptr %7, align 4, !dbg !6507
  store ptr %8, ptr %6, align 4, !dbg !6505
  ret ptr %5, !dbg !6508
}

; Function Attrs: noinline nounwind optnone sspstrong uwtable(sync)
define linkonce_odr void @_ZNSt3__h13basic_filebufIcNS_11char_traitsIcEEED0Ev(ptr noundef nonnull align 4 dereferenceable(99) %0) unnamed_addr #3 comdat align 2 !dbg !6509 {
  %2 = alloca ptr, align 4
  store ptr %0, ptr %2, align 4
  call void @llvm.dbg.declare(metadata ptr %2, metadata !6510, metadata !DIExpression()), !dbg !6511
  %3 = load ptr, ptr %2, align 4
  %4 = call noundef ptr @_ZNSt3__h13basic_filebufIcNS_11char_traitsIcEEED2Ev(ptr noundef nonnull align 4 dereferenceable(99) %3) #14, !dbg !6512
  call void @_ZdlPv(ptr noundef %3) #15, !dbg !6512
  ret void, !dbg !6513
}

; Function Attrs: mustprogress noinline nounwind optnone sspstrong uwtable(sync)
define linkonce_odr void @_ZNSt3__h13basic_filebufIcNS_11char_traitsIcEEE5imbueERKNS_6localeE(ptr noundef nonnull align 4 dereferenceable(99) %0, ptr noundef nonnull align 4 dereferenceable(4) %1) unnamed_addr #0 comdat align 2 !dbg !6514 {
  %3 = alloca ptr, align 4
  %4 = alloca ptr, align 4
  %5 = alloca i8, align 1
  store ptr %0, ptr %3, align 4
  call void @llvm.dbg.declare(metadata ptr %3, metadata !6515, metadata !DIExpression()), !dbg !6516
  store ptr %1, ptr %4, align 4
  call void @llvm.dbg.declare(metadata ptr %4, metadata !6517, metadata !DIExpression()), !dbg !6518
  %6 = load ptr, ptr %3, align 4
  %7 = load ptr, ptr %6, align 4, !dbg !6519
  %8 = getelementptr inbounds ptr, ptr %7, i64 6, !dbg !6519
  %9 = load ptr, ptr %8, align 4, !dbg !6519
  %10 = call noundef i32 %9(ptr noundef nonnull align 4 dereferenceable(99) %6), !dbg !6519
  %11 = load ptr, ptr %4, align 4, !dbg !6520
  %12 = call noundef nonnull align 4 dereferenceable(8) ptr @_ZNSt3__h9use_facetB6v15004INS_7codecvtIcc11__mbstate_tEEEERKT_RKNS_6localeE(ptr noundef nonnull align 4 dereferenceable(4) %11), !dbg !6521
  %13 = getelementptr inbounds %"class.std::__h::basic_filebuf", ptr %6, i32 0, i32 9, !dbg !6522
  store ptr %12, ptr %13, align 4, !dbg !6523
  call void @llvm.dbg.declare(metadata ptr %5, metadata !6524, metadata !DIExpression()), !dbg !6525
  store i8 0, ptr %5, align 1, !dbg !6525, !annotation !6167
  %14 = getelementptr inbounds %"class.std::__h::basic_filebuf", ptr %6, i32 0, i32 16, !dbg !6526
  %15 = load i8, ptr %14, align 2, !dbg !6526
  %16 = trunc i8 %15 to i1, !dbg !6526
  %17 = zext i1 %16 to i8, !dbg !6525
  store i8 %17, ptr %5, align 1, !dbg !6525
  %18 = getelementptr inbounds %"class.std::__h::basic_filebuf", ptr %6, i32 0, i32 9, !dbg !6527
  %19 = load ptr, ptr %18, align 4, !dbg !6527
  %20 = call noundef zeroext i1 @_ZNKSt3__h7codecvtIcc11__mbstate_tE13always_noconvB6v15004Ev(ptr noundef nonnull align 4 dereferenceable(8) %19) #14, !dbg !6528
  %21 = getelementptr inbounds %"class.std::__h::basic_filebuf", ptr %6, i32 0, i32 16, !dbg !6529
  %22 = zext i1 %20 to i8, !dbg !6530
  store i8 %22, ptr %21, align 2, !dbg !6530
  %23 = load i8, ptr %5, align 1, !dbg !6531
  %24 = trunc i8 %23 to i1, !dbg !6531
  %25 = zext i1 %24 to i32, !dbg !6531
  %26 = getelementptr inbounds %"class.std::__h::basic_filebuf", ptr %6, i32 0, i32 16, !dbg !6533
  %27 = load i8, ptr %26, align 2, !dbg !6533
  %28 = trunc i8 %27 to i1, !dbg !6533
  %29 = zext i1 %28 to i32, !dbg !6533
  %30 = icmp ne i32 %25, %29, !dbg !6534
  br i1 %30, label %31, label %94, !dbg !6535

31:                                               ; preds = %2
  call void @_ZNSt3__h15basic_streambufIcNS_11char_traitsIcEEE4setgB6v15004EPcS4_S4_(ptr noundef nonnull align 4 dereferenceable(32) %6, ptr noundef null, ptr noundef null, ptr noundef null), !dbg !6536
  call void @_ZNSt3__h15basic_streambufIcNS_11char_traitsIcEEE4setpB6v15004EPcS4_(ptr noundef nonnull align 4 dereferenceable(32) %6, ptr noundef null, ptr noundef null), !dbg !6538
  %32 = getelementptr inbounds %"class.std::__h::basic_filebuf", ptr %6, i32 0, i32 16, !dbg !6539
  %33 = load i8, ptr %32, align 2, !dbg !6539
  %34 = trunc i8 %33 to i1, !dbg !6539
  br i1 %34, label %35, label %60, !dbg !6541

35:                                               ; preds = %31
  %36 = getelementptr inbounds %"class.std::__h::basic_filebuf", ptr %6, i32 0, i32 14, !dbg !6542
  %37 = load i8, ptr %36, align 4, !dbg !6542
  %38 = trunc i8 %37 to i1, !dbg !6542
  br i1 %38, label %39, label %45, !dbg !6545

39:                                               ; preds = %35
  %40 = getelementptr inbounds %"class.std::__h::basic_filebuf", ptr %6, i32 0, i32 1, !dbg !6546
  %41 = load ptr, ptr %40, align 4, !dbg !6546
  %42 = icmp eq ptr %41, null, !dbg !6547
  br i1 %42, label %44, label %43, !dbg !6547

43:                                               ; preds = %39
  call void @_ZdaPv(ptr noundef %41) #15, !dbg !6547
  br label %44, !dbg !6547

44:                                               ; preds = %43, %39
  br label %45, !dbg !6547

45:                                               ; preds = %44, %35
  %46 = getelementptr inbounds %"class.std::__h::basic_filebuf", ptr %6, i32 0, i32 15, !dbg !6548
  %47 = load i8, ptr %46, align 1, !dbg !6548
  %48 = trunc i8 %47 to i1, !dbg !6548
  %49 = getelementptr inbounds %"class.std::__h::basic_filebuf", ptr %6, i32 0, i32 14, !dbg !6549
  %50 = zext i1 %48 to i8, !dbg !6550
  store i8 %50, ptr %49, align 4, !dbg !6550
  %51 = getelementptr inbounds %"class.std::__h::basic_filebuf", ptr %6, i32 0, i32 7, !dbg !6551
  %52 = load i32, ptr %51, align 4, !dbg !6551
  %53 = getelementptr inbounds %"class.std::__h::basic_filebuf", ptr %6, i32 0, i32 5, !dbg !6552
  store i32 %52, ptr %53, align 4, !dbg !6553
  %54 = getelementptr inbounds %"class.std::__h::basic_filebuf", ptr %6, i32 0, i32 6, !dbg !6554
  %55 = load ptr, ptr %54, align 4, !dbg !6554
  %56 = getelementptr inbounds %"class.std::__h::basic_filebuf", ptr %6, i32 0, i32 1, !dbg !6555
  store ptr %55, ptr %56, align 4, !dbg !6556
  %57 = getelementptr inbounds %"class.std::__h::basic_filebuf", ptr %6, i32 0, i32 7, !dbg !6557
  store i32 0, ptr %57, align 4, !dbg !6558
  %58 = getelementptr inbounds %"class.std::__h::basic_filebuf", ptr %6, i32 0, i32 6, !dbg !6559
  store ptr null, ptr %58, align 4, !dbg !6560
  %59 = getelementptr inbounds %"class.std::__h::basic_filebuf", ptr %6, i32 0, i32 15, !dbg !6561
  store i8 0, ptr %59, align 1, !dbg !6562
  br label %93, !dbg !6563

60:                                               ; preds = %31
  %61 = getelementptr inbounds %"class.std::__h::basic_filebuf", ptr %6, i32 0, i32 14, !dbg !6564
  %62 = load i8, ptr %61, align 4, !dbg !6564
  %63 = trunc i8 %62 to i1, !dbg !6564
  br i1 %63, label %83, label %64, !dbg !6567

64:                                               ; preds = %60
  %65 = getelementptr inbounds %"class.std::__h::basic_filebuf", ptr %6, i32 0, i32 1, !dbg !6568
  %66 = load ptr, ptr %65, align 4, !dbg !6568
  %67 = getelementptr inbounds %"class.std::__h::basic_filebuf", ptr %6, i32 0, i32 4, !dbg !6569
  %68 = getelementptr inbounds [8 x i8], ptr %67, i32 0, i32 0, !dbg !6569
  %69 = icmp ne ptr %66, %68, !dbg !6570
  br i1 %69, label %70, label %83, !dbg !6571

70:                                               ; preds = %64
  %71 = getelementptr inbounds %"class.std::__h::basic_filebuf", ptr %6, i32 0, i32 5, !dbg !6572
  %72 = load i32, ptr %71, align 4, !dbg !6572
  %73 = getelementptr inbounds %"class.std::__h::basic_filebuf", ptr %6, i32 0, i32 7, !dbg !6574
  store i32 %72, ptr %73, align 4, !dbg !6575
  %74 = getelementptr inbounds %"class.std::__h::basic_filebuf", ptr %6, i32 0, i32 1, !dbg !6576
  %75 = load ptr, ptr %74, align 4, !dbg !6576
  %76 = getelementptr inbounds %"class.std::__h::basic_filebuf", ptr %6, i32 0, i32 6, !dbg !6577
  store ptr %75, ptr %76, align 4, !dbg !6578
  %77 = getelementptr inbounds %"class.std::__h::basic_filebuf", ptr %6, i32 0, i32 15, !dbg !6579
  store i8 0, ptr %77, align 1, !dbg !6580
  %78 = getelementptr inbounds %"class.std::__h::basic_filebuf", ptr %6, i32 0, i32 5, !dbg !6581
  %79 = load i32, ptr %78, align 4, !dbg !6581
  %80 = call noalias noundef nonnull ptr @_Znaj(i32 noundef %79) #16, !dbg !6582, !heapallocsite !5
  %81 = getelementptr inbounds %"class.std::__h::basic_filebuf", ptr %6, i32 0, i32 1, !dbg !6583
  store ptr %80, ptr %81, align 4, !dbg !6584
  %82 = getelementptr inbounds %"class.std::__h::basic_filebuf", ptr %6, i32 0, i32 14, !dbg !6585
  store i8 1, ptr %82, align 4, !dbg !6586
  br label %92, !dbg !6587

83:                                               ; preds = %64, %60
  %84 = getelementptr inbounds %"class.std::__h::basic_filebuf", ptr %6, i32 0, i32 5, !dbg !6588
  %85 = load i32, ptr %84, align 4, !dbg !6588
  %86 = getelementptr inbounds %"class.std::__h::basic_filebuf", ptr %6, i32 0, i32 7, !dbg !6590
  store i32 %85, ptr %86, align 4, !dbg !6591
  %87 = getelementptr inbounds %"class.std::__h::basic_filebuf", ptr %6, i32 0, i32 7, !dbg !6592
  %88 = load i32, ptr %87, align 4, !dbg !6592
  %89 = call noalias noundef nonnull ptr @_Znaj(i32 noundef %88) #16, !dbg !6593, !heapallocsite !2054
  %90 = getelementptr inbounds %"class.std::__h::basic_filebuf", ptr %6, i32 0, i32 6, !dbg !6594
  store ptr %89, ptr %90, align 4, !dbg !6595
  %91 = getelementptr inbounds %"class.std::__h::basic_filebuf", ptr %6, i32 0, i32 15, !dbg !6596
  store i8 1, ptr %91, align 1, !dbg !6597
  br label %92

92:                                               ; preds = %83, %70
  br label %93

93:                                               ; preds = %92, %45
  br label %94, !dbg !6598

94:                                               ; preds = %93, %2
  ret void, !dbg !6599
}

; Function Attrs: mustprogress noinline nounwind optnone sspstrong uwtable(sync)
define linkonce_odr noundef ptr @_ZNSt3__h13basic_filebufIcNS_11char_traitsIcEEE6setbufEPci(ptr noundef nonnull align 4 dereferenceable(99) %0, ptr noundef %1, i32 noundef %2) unnamed_addr #0 comdat align 2 !dbg !6600 {
  %4 = alloca ptr, align 4
  %5 = alloca ptr, align 4
  %6 = alloca i32, align 4
  %7 = alloca i32, align 4
  store ptr %0, ptr %4, align 4
  call void @llvm.dbg.declare(metadata ptr %4, metadata !6601, metadata !DIExpression()), !dbg !6602
  store ptr %1, ptr %5, align 4
  call void @llvm.dbg.declare(metadata ptr %5, metadata !6603, metadata !DIExpression()), !dbg !6604
  store i32 %2, ptr %6, align 4
  call void @llvm.dbg.declare(metadata ptr %6, metadata !6605, metadata !DIExpression()), !dbg !6606
  %8 = load ptr, ptr %4, align 4
  call void @_ZNSt3__h15basic_streambufIcNS_11char_traitsIcEEE4setgB6v15004EPcS4_S4_(ptr noundef nonnull align 4 dereferenceable(32) %8, ptr noundef null, ptr noundef null, ptr noundef null), !dbg !6607
  call void @_ZNSt3__h15basic_streambufIcNS_11char_traitsIcEEE4setpB6v15004EPcS4_(ptr noundef nonnull align 4 dereferenceable(32) %8, ptr noundef null, ptr noundef null), !dbg !6608
  %9 = getelementptr inbounds %"class.std::__h::basic_filebuf", ptr %8, i32 0, i32 14, !dbg !6609
  %10 = load i8, ptr %9, align 4, !dbg !6609
  %11 = trunc i8 %10 to i1, !dbg !6609
  br i1 %11, label %12, label %18, !dbg !6611

12:                                               ; preds = %3
  %13 = getelementptr inbounds %"class.std::__h::basic_filebuf", ptr %8, i32 0, i32 1, !dbg !6612
  %14 = load ptr, ptr %13, align 4, !dbg !6612
  %15 = icmp eq ptr %14, null, !dbg !6613
  br i1 %15, label %17, label %16, !dbg !6613

16:                                               ; preds = %12
  call void @_ZdaPv(ptr noundef %14) #15, !dbg !6613
  br label %17, !dbg !6613

17:                                               ; preds = %16, %12
  br label %18, !dbg !6613

18:                                               ; preds = %17, %3
  %19 = getelementptr inbounds %"class.std::__h::basic_filebuf", ptr %8, i32 0, i32 15, !dbg !6614
  %20 = load i8, ptr %19, align 1, !dbg !6614
  %21 = trunc i8 %20 to i1, !dbg !6614
  br i1 %21, label %22, label %28, !dbg !6616

22:                                               ; preds = %18
  %23 = getelementptr inbounds %"class.std::__h::basic_filebuf", ptr %8, i32 0, i32 6, !dbg !6617
  %24 = load ptr, ptr %23, align 4, !dbg !6617
  %25 = icmp eq ptr %24, null, !dbg !6618
  br i1 %25, label %27, label %26, !dbg !6618

26:                                               ; preds = %22
  call void @_ZdaPv(ptr noundef %24) #15, !dbg !6618
  br label %27, !dbg !6618

27:                                               ; preds = %26, %22
  br label %28, !dbg !6618

28:                                               ; preds = %27, %18
  %29 = load i32, ptr %6, align 4, !dbg !6619
  %30 = getelementptr inbounds %"class.std::__h::basic_filebuf", ptr %8, i32 0, i32 5, !dbg !6620
  store i32 %29, ptr %30, align 4, !dbg !6621
  %31 = getelementptr inbounds %"class.std::__h::basic_filebuf", ptr %8, i32 0, i32 5, !dbg !6622
  %32 = load i32, ptr %31, align 4, !dbg !6622
  %33 = icmp ugt i32 %32, 8, !dbg !6624
  br i1 %33, label %34, label %52, !dbg !6625

34:                                               ; preds = %28
  %35 = getelementptr inbounds %"class.std::__h::basic_filebuf", ptr %8, i32 0, i32 16, !dbg !6626
  %36 = load i8, ptr %35, align 2, !dbg !6626
  %37 = trunc i8 %36 to i1, !dbg !6626
  br i1 %37, label %38, label %45, !dbg !6629

38:                                               ; preds = %34
  %39 = load ptr, ptr %5, align 4, !dbg !6630
  %40 = icmp ne ptr %39, null, !dbg !6630
  br i1 %40, label %41, label %45, !dbg !6631

41:                                               ; preds = %38
  %42 = load ptr, ptr %5, align 4, !dbg !6632
  %43 = getelementptr inbounds %"class.std::__h::basic_filebuf", ptr %8, i32 0, i32 1, !dbg !6634
  store ptr %42, ptr %43, align 4, !dbg !6635
  %44 = getelementptr inbounds %"class.std::__h::basic_filebuf", ptr %8, i32 0, i32 14, !dbg !6636
  store i8 0, ptr %44, align 4, !dbg !6637
  br label %51, !dbg !6638

45:                                               ; preds = %38, %34
  %46 = getelementptr inbounds %"class.std::__h::basic_filebuf", ptr %8, i32 0, i32 5, !dbg !6639
  %47 = load i32, ptr %46, align 4, !dbg !6639
  %48 = call noalias noundef nonnull ptr @_Znaj(i32 noundef %47) #16, !dbg !6641, !heapallocsite !5
  %49 = getelementptr inbounds %"class.std::__h::basic_filebuf", ptr %8, i32 0, i32 1, !dbg !6642
  store ptr %48, ptr %49, align 4, !dbg !6643
  %50 = getelementptr inbounds %"class.std::__h::basic_filebuf", ptr %8, i32 0, i32 14, !dbg !6644
  store i8 1, ptr %50, align 4, !dbg !6645
  br label %51

51:                                               ; preds = %45, %41
  br label %58, !dbg !6646

52:                                               ; preds = %28
  %53 = getelementptr inbounds %"class.std::__h::basic_filebuf", ptr %8, i32 0, i32 4, !dbg !6647
  %54 = getelementptr inbounds [8 x i8], ptr %53, i32 0, i32 0, !dbg !6647
  %55 = getelementptr inbounds %"class.std::__h::basic_filebuf", ptr %8, i32 0, i32 1, !dbg !6649
  store ptr %54, ptr %55, align 4, !dbg !6650
  %56 = getelementptr inbounds %"class.std::__h::basic_filebuf", ptr %8, i32 0, i32 5, !dbg !6651
  store i32 8, ptr %56, align 4, !dbg !6652
  %57 = getelementptr inbounds %"class.std::__h::basic_filebuf", ptr %8, i32 0, i32 14, !dbg !6653
  store i8 0, ptr %57, align 4, !dbg !6654
  br label %58

58:                                               ; preds = %52, %51
  %59 = getelementptr inbounds %"class.std::__h::basic_filebuf", ptr %8, i32 0, i32 16, !dbg !6655
  %60 = load i8, ptr %59, align 2, !dbg !6655
  %61 = trunc i8 %60 to i1, !dbg !6655
  br i1 %61, label %83, label %62, !dbg !6657

62:                                               ; preds = %58
  store i32 8, ptr %7, align 4, !dbg !6658
  %63 = call noundef nonnull align 4 dereferenceable(4) ptr @_ZNSt3__h3maxB6v15004IiEERKT_S3_S3_(ptr noundef nonnull align 4 dereferenceable(4) %6, ptr noundef nonnull align 4 dereferenceable(4) %7), !dbg !6660
  %64 = load i32, ptr %63, align 4, !dbg !6660
  %65 = getelementptr inbounds %"class.std::__h::basic_filebuf", ptr %8, i32 0, i32 7, !dbg !6661
  store i32 %64, ptr %65, align 4, !dbg !6662
  %66 = load ptr, ptr %5, align 4, !dbg !6663
  %67 = icmp ne ptr %66, null, !dbg !6663
  br i1 %67, label %68, label %76, !dbg !6665

68:                                               ; preds = %62
  %69 = getelementptr inbounds %"class.std::__h::basic_filebuf", ptr %8, i32 0, i32 7, !dbg !6666
  %70 = load i32, ptr %69, align 4, !dbg !6666
  %71 = icmp uge i32 %70, 8, !dbg !6667
  br i1 %71, label %72, label %76, !dbg !6668

72:                                               ; preds = %68
  %73 = load ptr, ptr %5, align 4, !dbg !6669
  %74 = getelementptr inbounds %"class.std::__h::basic_filebuf", ptr %8, i32 0, i32 6, !dbg !6671
  store ptr %73, ptr %74, align 4, !dbg !6672
  %75 = getelementptr inbounds %"class.std::__h::basic_filebuf", ptr %8, i32 0, i32 15, !dbg !6673
  store i8 0, ptr %75, align 1, !dbg !6674
  br label %82, !dbg !6675

76:                                               ; preds = %68, %62
  %77 = getelementptr inbounds %"class.std::__h::basic_filebuf", ptr %8, i32 0, i32 7, !dbg !6676
  %78 = load i32, ptr %77, align 4, !dbg !6676
  %79 = call noalias noundef nonnull ptr @_Znaj(i32 noundef %78) #16, !dbg !6678, !heapallocsite !2054
  %80 = getelementptr inbounds %"class.std::__h::basic_filebuf", ptr %8, i32 0, i32 6, !dbg !6679
  store ptr %79, ptr %80, align 4, !dbg !6680
  %81 = getelementptr inbounds %"class.std::__h::basic_filebuf", ptr %8, i32 0, i32 15, !dbg !6681
  store i8 1, ptr %81, align 1, !dbg !6682
  br label %82

82:                                               ; preds = %76, %72
  br label %87, !dbg !6683

83:                                               ; preds = %58
  %84 = getelementptr inbounds %"class.std::__h::basic_filebuf", ptr %8, i32 0, i32 7, !dbg !6684
  store i32 0, ptr %84, align 4, !dbg !6686
  %85 = getelementptr inbounds %"class.std::__h::basic_filebuf", ptr %8, i32 0, i32 6, !dbg !6687
  store ptr null, ptr %85, align 4, !dbg !6688
  %86 = getelementptr inbounds %"class.std::__h::basic_filebuf", ptr %8, i32 0, i32 15, !dbg !6689
  store i8 0, ptr %86, align 1, !dbg !6690
  br label %87

87:                                               ; preds = %83, %82
  ret ptr %8, !dbg !6691
}

; Function Attrs: mustprogress noinline nounwind optnone sspstrong uwtable(sync)
define linkonce_odr void @_ZNSt3__h13basic_filebufIcNS_11char_traitsIcEEE7seekoffExNS_8ios_base7seekdirEj(ptr noalias sret(%"class.std::__h::fpos") align 8 %0, ptr noundef nonnull align 4 dereferenceable(99) %1, i64 noundef %2, i32 noundef %3, i32 noundef %4) unnamed_addr #0 comdat align 2 !dbg !6692 {
  %6 = alloca ptr, align 4
  %7 = alloca i64, align 8
  %8 = alloca i32, align 4
  %9 = alloca i32, align 4
  %10 = alloca i32, align 4
  %11 = alloca i32, align 4
  %12 = alloca %struct.__mbstate_t, align 4
  store ptr %1, ptr %6, align 4
  call void @llvm.dbg.declare(metadata ptr %6, metadata !6693, metadata !DIExpression()), !dbg !6694
  store i64 %2, ptr %7, align 8
  call void @llvm.dbg.declare(metadata ptr %7, metadata !6695, metadata !DIExpression()), !dbg !6696
  store i32 %3, ptr %8, align 4
  call void @llvm.dbg.declare(metadata ptr %8, metadata !6697, metadata !DIExpression()), !dbg !6698
  store i32 %4, ptr %9, align 4
  call void @llvm.dbg.declare(metadata ptr %9, metadata !6699, metadata !DIExpression()), !dbg !6700
  %13 = load ptr, ptr %6, align 4
  %14 = getelementptr inbounds %"class.std::__h::basic_filebuf", ptr %13, i32 0, i32 9, !dbg !6701
  %15 = load ptr, ptr %14, align 4, !dbg !6701
  %16 = icmp ne ptr %15, null, !dbg !6701
  br i1 %16, label %18, label %17, !dbg !6703

17:                                               ; preds = %5
  call void @_ZNSt3__h16__throw_bad_castB6v15004Ev() #17, !dbg !6704
  unreachable, !dbg !6704

18:                                               ; preds = %5
  call void @llvm.dbg.declare(metadata ptr %10, metadata !6705, metadata !DIExpression()), !dbg !6706
  store i32 0, ptr %10, align 4, !dbg !6706, !annotation !6167
  %19 = getelementptr inbounds %"class.std::__h::basic_filebuf", ptr %13, i32 0, i32 9, !dbg !6707
  %20 = load ptr, ptr %19, align 4, !dbg !6707
  %21 = call noundef i32 @_ZNKSt3__h7codecvtIcc11__mbstate_tE8encodingB6v15004Ev(ptr noundef nonnull align 4 dereferenceable(8) %20) #14, !dbg !6708
  store i32 %21, ptr %10, align 4, !dbg !6706
  %22 = getelementptr inbounds %"class.std::__h::basic_filebuf", ptr %13, i32 0, i32 8, !dbg !6709
  %23 = load ptr, ptr %22, align 4, !dbg !6709
  %24 = icmp eq ptr %23, null, !dbg !6711
  br i1 %24, label %37, label %25, !dbg !6712

25:                                               ; preds = %18
  %26 = load i32, ptr %10, align 4, !dbg !6713
  %27 = icmp sle i32 %26, 0, !dbg !6714
  br i1 %27, label %28, label %31, !dbg !6715

28:                                               ; preds = %25
  %29 = load i64, ptr %7, align 8, !dbg !6716
  %30 = icmp ne i64 %29, 0, !dbg !6717
  br i1 %30, label %37, label %31, !dbg !6718

31:                                               ; preds = %28, %25
  %32 = load ptr, ptr %13, align 4, !dbg !6719
  %33 = getelementptr inbounds ptr, ptr %32, i64 6, !dbg !6719
  %34 = load ptr, ptr %33, align 4, !dbg !6719
  %35 = call noundef i32 %34(ptr noundef nonnull align 4 dereferenceable(99) %13), !dbg !6719
  %36 = icmp ne i32 %35, 0, !dbg !6719
  br i1 %36, label %37, label %39, !dbg !6720

37:                                               ; preds = %31, %28, %18
  %38 = call noundef ptr @_ZNSt3__h4fposI11__mbstate_tEC2B6v15004Ex(ptr noundef nonnull align 8 dereferenceable(16) %0, i64 noundef -1), !dbg !6721
  br label %71, !dbg !6722

39:                                               ; preds = %31
  call void @llvm.dbg.declare(metadata ptr %11, metadata !6723, metadata !DIExpression()), !dbg !6724
  store i32 0, ptr %11, align 4, !dbg !6724, !annotation !6167
  %40 = load i32, ptr %8, align 4, !dbg !6725
  switch i32 %40, label %44 [
    i32 0, label %41
    i32 1, label %42
    i32 2, label %43
  ], !dbg !6726

41:                                               ; preds = %39
  store i32 0, ptr %11, align 4, !dbg !6727
  br label %46, !dbg !6729

42:                                               ; preds = %39
  store i32 1, ptr %11, align 4, !dbg !6730
  br label %46, !dbg !6731

43:                                               ; preds = %39
  store i32 2, ptr %11, align 4, !dbg !6732
  br label %46, !dbg !6733

44:                                               ; preds = %39
  %45 = call noundef ptr @_ZNSt3__h4fposI11__mbstate_tEC2B6v15004Ex(ptr noundef nonnull align 8 dereferenceable(16) %0, i64 noundef -1), !dbg !6734
  br label %71, !dbg !6735

46:                                               ; preds = %43, %42, %41
  %47 = getelementptr inbounds %"class.std::__h::basic_filebuf", ptr %13, i32 0, i32 8, !dbg !6736
  %48 = load ptr, ptr %47, align 4, !dbg !6736
  %49 = load i32, ptr %10, align 4, !dbg !6738
  %50 = icmp sgt i32 %49, 0, !dbg !6739
  br i1 %50, label %51, label %56, !dbg !6738

51:                                               ; preds = %46
  %52 = load i32, ptr %10, align 4, !dbg !6740
  %53 = sext i32 %52 to i64, !dbg !6740
  %54 = load i64, ptr %7, align 8, !dbg !6741
  %55 = mul nsw i64 %53, %54, !dbg !6742
  br label %57, !dbg !6738

56:                                               ; preds = %46
  br label %57, !dbg !6738

57:                                               ; preds = %56, %51
  %58 = phi i64 [ %55, %51 ], [ 0, %56 ], !dbg !6738
  %59 = load i32, ptr %11, align 4, !dbg !6743
  %60 = call i32 @fseeko(ptr noundef %48, i64 noundef %58, i32 noundef %59), !dbg !6744
  %61 = icmp ne i32 %60, 0, !dbg !6744
  br i1 %61, label %62, label %64, !dbg !6745

62:                                               ; preds = %57
  %63 = call noundef ptr @_ZNSt3__h4fposI11__mbstate_tEC2B6v15004Ex(ptr noundef nonnull align 8 dereferenceable(16) %0, i64 noundef -1), !dbg !6746
  br label %71, !dbg !6747

64:                                               ; preds = %57
  call void @llvm.dbg.declare(metadata ptr %0, metadata !6748, metadata !DIExpression()), !dbg !6749
  call void @llvm.memset.p0.i32(ptr align 8 %0, i8 0, i32 16, i1 false), !dbg !6749, !annotation !6167
  %65 = getelementptr inbounds %"class.std::__h::basic_filebuf", ptr %13, i32 0, i32 8, !dbg !6750
  %66 = load ptr, ptr %65, align 4, !dbg !6750
  %67 = call i64 @ftello(ptr noundef %66), !dbg !6751
  %68 = call noundef ptr @_ZNSt3__h4fposI11__mbstate_tEC2B6v15004Ex(ptr noundef nonnull align 8 dereferenceable(16) %0, i64 noundef %67), !dbg !6751
  %69 = getelementptr inbounds %"class.std::__h::basic_filebuf", ptr %13, i32 0, i32 10, !dbg !6752
  call void @llvm.memcpy.p0.p0.i32(ptr align 4 %12, ptr align 4 %69, i32 8, i1 false), !dbg !6752
  %70 = load [2 x i32], ptr %12, align 4, !dbg !6753
  call void @_ZNSt3__h4fposI11__mbstate_tE5stateB6v15004ES1_(ptr noundef nonnull align 8 dereferenceable(16) %0, [2 x i32] %70), !dbg !6753
  br label %71, !dbg !6754

71:                                               ; preds = %64, %62, %44, %37
  ret void, !dbg !6755
}

; Function Attrs: mustprogress noinline nounwind optnone sspstrong uwtable(sync)
define linkonce_odr void @_ZNSt3__h13basic_filebufIcNS_11char_traitsIcEEE7seekposENS_4fposI11__mbstate_tEEj(ptr noalias sret(%"class.std::__h::fpos") align 8 %0, ptr noundef nonnull align 4 dereferenceable(99) %1, [2 x i64] %2, i32 noundef %3) unnamed_addr #0 comdat align 2 !dbg !6756 {
  %5 = alloca %"class.std::__h::fpos", align 8
  %6 = alloca ptr, align 4
  %7 = alloca i32, align 4
  %8 = alloca %struct.__mbstate_t, align 4
  store [2 x i64] %2, ptr %5, align 8
  store ptr %1, ptr %6, align 4
  call void @llvm.dbg.declare(metadata ptr %6, metadata !6757, metadata !DIExpression()), !dbg !6758
  call void @llvm.dbg.declare(metadata ptr %5, metadata !6759, metadata !DIExpression()), !dbg !6760
  store i32 %3, ptr %7, align 4
  call void @llvm.dbg.declare(metadata ptr %7, metadata !6761, metadata !DIExpression()), !dbg !6762
  %9 = load ptr, ptr %6, align 4
  %10 = getelementptr inbounds %"class.std::__h::basic_filebuf", ptr %9, i32 0, i32 8, !dbg !6763
  %11 = load ptr, ptr %10, align 4, !dbg !6763
  %12 = icmp eq ptr %11, null, !dbg !6765
  br i1 %12, label %19, label %13, !dbg !6766

13:                                               ; preds = %4
  %14 = load ptr, ptr %9, align 4, !dbg !6767
  %15 = getelementptr inbounds ptr, ptr %14, i64 6, !dbg !6767
  %16 = load ptr, ptr %15, align 4, !dbg !6767
  %17 = call noundef i32 %16(ptr noundef nonnull align 4 dereferenceable(99) %9), !dbg !6767
  %18 = icmp ne i32 %17, 0, !dbg !6767
  br i1 %18, label %19, label %21, !dbg !6768

19:                                               ; preds = %13, %4
  %20 = call noundef ptr @_ZNSt3__h4fposI11__mbstate_tEC2B6v15004Ex(ptr noundef nonnull align 8 dereferenceable(16) %0, i64 noundef -1), !dbg !6769
  br label %31, !dbg !6770

21:                                               ; preds = %13
  %22 = getelementptr inbounds %"class.std::__h::basic_filebuf", ptr %9, i32 0, i32 8, !dbg !6771
  %23 = load ptr, ptr %22, align 4, !dbg !6771
  %24 = call noundef i64 @_ZNKSt3__h4fposI11__mbstate_tEcvxB6v15004Ev(ptr noundef nonnull align 8 dereferenceable(16) %5), !dbg !6773
  %25 = call i32 @fseeko(ptr noundef %23, i64 noundef %24, i32 noundef 0), !dbg !6774
  %26 = icmp ne i32 %25, 0, !dbg !6774
  br i1 %26, label %27, label %29, !dbg !6775

27:                                               ; preds = %21
  %28 = call noundef ptr @_ZNSt3__h4fposI11__mbstate_tEC2B6v15004Ex(ptr noundef nonnull align 8 dereferenceable(16) %0, i64 noundef -1), !dbg !6776
  br label %31, !dbg !6777

29:                                               ; preds = %21
  call void @_ZNKSt3__h4fposI11__mbstate_tE5stateB6v15004Ev(ptr sret(%struct.__mbstate_t) align 4 %8, ptr noundef nonnull align 8 dereferenceable(16) %5), !dbg !6778
  %30 = getelementptr inbounds %"class.std::__h::basic_filebuf", ptr %9, i32 0, i32 10, !dbg !6779
  call void @llvm.memcpy.p0.p0.i32(ptr align 4 %30, ptr align 4 %8, i32 8, i1 false), !dbg !6780
  call void @llvm.memcpy.p0.p0.i32(ptr align 8 %0, ptr align 8 %5, i32 16, i1 false), !dbg !6781
  br label %31, !dbg !6782

31:                                               ; preds = %29, %27, %19
  ret void, !dbg !6783
}

; Function Attrs: mustprogress noinline nounwind optnone sspstrong uwtable(sync)
define linkonce_odr noundef i32 @_ZNSt3__h13basic_filebufIcNS_11char_traitsIcEEE4syncEv(ptr noundef nonnull align 4 dereferenceable(99) %0) unnamed_addr #0 comdat align 2 !dbg !6784 {
  %2 = alloca i32, align 4
  %3 = alloca ptr, align 4
  %4 = alloca i32, align 4
  %5 = alloca ptr, align 4
  %6 = alloca i32, align 4
  %7 = alloca i64, align 8
  %8 = alloca %struct.__mbstate_t, align 4
  %9 = alloca i8, align 1
  %10 = alloca i32, align 4
  %11 = alloca i32, align 4
  store ptr %0, ptr %3, align 4
  call void @llvm.dbg.declare(metadata ptr %3, metadata !6785, metadata !DIExpression()), !dbg !6786
  %12 = load ptr, ptr %3, align 4
  %13 = getelementptr inbounds %"class.std::__h::basic_filebuf", ptr %12, i32 0, i32 8, !dbg !6787
  %14 = load ptr, ptr %13, align 4, !dbg !6787
  %15 = icmp eq ptr %14, null, !dbg !6789
  br i1 %15, label %16, label %17, !dbg !6790

16:                                               ; preds = %1
  store i32 0, ptr %2, align 4, !dbg !6791
  br label %178, !dbg !6791

17:                                               ; preds = %1
  %18 = getelementptr inbounds %"class.std::__h::basic_filebuf", ptr %12, i32 0, i32 9, !dbg !6792
  %19 = load ptr, ptr %18, align 4, !dbg !6792
  %20 = icmp ne ptr %19, null, !dbg !6792
  br i1 %20, label %22, label %21, !dbg !6794

21:                                               ; preds = %17
  call void @_ZNSt3__h16__throw_bad_castB6v15004Ev() #17, !dbg !6795
  unreachable, !dbg !6795

22:                                               ; preds = %17
  %23 = getelementptr inbounds %"class.std::__h::basic_filebuf", ptr %12, i32 0, i32 13, !dbg !6796
  %24 = load i32, ptr %23, align 4, !dbg !6796
  %25 = and i32 %24, 16, !dbg !6798
  %26 = icmp ne i32 %25, 0, !dbg !6796
  br i1 %26, label %27, label %84, !dbg !6799

27:                                               ; preds = %22
  %28 = call noundef ptr @_ZNKSt3__h15basic_streambufIcNS_11char_traitsIcEEE4pptrB6v15004Ev(ptr noundef nonnull align 4 dereferenceable(32) %12), !dbg !6800
  %29 = call noundef ptr @_ZNKSt3__h15basic_streambufIcNS_11char_traitsIcEEE5pbaseB6v15004Ev(ptr noundef nonnull align 4 dereferenceable(32) %12), !dbg !6803
  %30 = icmp ne ptr %28, %29, !dbg !6804
  br i1 %30, label %31, label %41, !dbg !6805

31:                                               ; preds = %27
  %32 = call noundef i32 @_ZNSt3__h11char_traitsIcE3eofEv() #14, !dbg !6806
  %33 = load ptr, ptr %12, align 4, !dbg !6806
  %34 = getelementptr inbounds ptr, ptr %33, i64 13, !dbg !6806
  %35 = load ptr, ptr %34, align 4, !dbg !6806
  %36 = call noundef i32 %35(ptr noundef nonnull align 4 dereferenceable(99) %12, i32 noundef %32), !dbg !6806
  %37 = call noundef i32 @_ZNSt3__h11char_traitsIcE3eofEv() #14, !dbg !6808
  %38 = icmp eq i32 %36, %37, !dbg !6809
  br i1 %38, label %39, label %40, !dbg !6810

39:                                               ; preds = %31
  store i32 -1, ptr %2, align 4, !dbg !6811
  br label %178, !dbg !6811

40:                                               ; preds = %31
  br label %41, !dbg !6812

41:                                               ; preds = %40, %27
  call void @llvm.dbg.declare(metadata ptr %4, metadata !6813, metadata !DIExpression()), !dbg !6814
  store i32 0, ptr %4, align 4, !dbg !6814, !annotation !6167
  br label %42, !dbg !6815

42:                                               ; preds = %70, %41
  call void @llvm.dbg.declare(metadata ptr %5, metadata !6816, metadata !DIExpression()), !dbg !6818
  store ptr null, ptr %5, align 4, !dbg !6818, !annotation !6167
  %43 = getelementptr inbounds %"class.std::__h::basic_filebuf", ptr %12, i32 0, i32 9, !dbg !6819
  %44 = load ptr, ptr %43, align 4, !dbg !6819
  %45 = getelementptr inbounds %"class.std::__h::basic_filebuf", ptr %12, i32 0, i32 10, !dbg !6820
  %46 = getelementptr inbounds %"class.std::__h::basic_filebuf", ptr %12, i32 0, i32 1, !dbg !6821
  %47 = load ptr, ptr %46, align 4, !dbg !6821
  %48 = getelementptr inbounds %"class.std::__h::basic_filebuf", ptr %12, i32 0, i32 1, !dbg !6822
  %49 = load ptr, ptr %48, align 4, !dbg !6822
  %50 = getelementptr inbounds %"class.std::__h::basic_filebuf", ptr %12, i32 0, i32 5, !dbg !6823
  %51 = load i32, ptr %50, align 4, !dbg !6823
  %52 = getelementptr inbounds i8, ptr %49, i32 %51, !dbg !6824
  %53 = call noundef i32 @_ZNKSt3__h7codecvtIcc11__mbstate_tE7unshiftB6v15004ERS1_PcS4_RS4_(ptr noundef nonnull align 4 dereferenceable(8) %44, ptr noundef nonnull align 4 dereferenceable(8) %45, ptr noundef %47, ptr noundef %52, ptr noundef nonnull align 4 dereferenceable(4) %5), !dbg !6825
  store i32 %53, ptr %4, align 4, !dbg !6826
  call void @llvm.dbg.declare(metadata ptr %6, metadata !6827, metadata !DIExpression()), !dbg !6828
  store i32 0, ptr %6, align 4, !dbg !6828, !annotation !6167
  %54 = load ptr, ptr %5, align 4, !dbg !6829
  %55 = getelementptr inbounds %"class.std::__h::basic_filebuf", ptr %12, i32 0, i32 1, !dbg !6830
  %56 = load ptr, ptr %55, align 4, !dbg !6830
  %57 = ptrtoint ptr %54 to i32, !dbg !6831
  %58 = ptrtoint ptr %56 to i32, !dbg !6831
  %59 = sub i32 %57, %58, !dbg !6831
  store i32 %59, ptr %6, align 4, !dbg !6828
  %60 = getelementptr inbounds %"class.std::__h::basic_filebuf", ptr %12, i32 0, i32 1, !dbg !6832
  %61 = load ptr, ptr %60, align 4, !dbg !6832
  %62 = load i32, ptr %6, align 4, !dbg !6834
  %63 = getelementptr inbounds %"class.std::__h::basic_filebuf", ptr %12, i32 0, i32 8, !dbg !6835
  %64 = load ptr, ptr %63, align 4, !dbg !6835
  %65 = call i32 @fwrite(ptr noundef %61, i32 noundef 1, i32 noundef %62, ptr noundef %64), !dbg !6836
  %66 = load i32, ptr %6, align 4, !dbg !6837
  %67 = icmp ne i32 %65, %66, !dbg !6838
  br i1 %67, label %68, label %69, !dbg !6839

68:                                               ; preds = %42
  store i32 -1, ptr %2, align 4, !dbg !6840
  br label %178, !dbg !6840

69:                                               ; preds = %42
  br label %70, !dbg !6841

70:                                               ; preds = %69
  %71 = load i32, ptr %4, align 4, !dbg !6842
  %72 = icmp eq i32 %71, 1, !dbg !6843
  br i1 %72, label %42, label %73, !dbg !6841, !llvm.loop !6844

73:                                               ; preds = %70
  %74 = load i32, ptr %4, align 4, !dbg !6847
  %75 = icmp eq i32 %74, 2, !dbg !6849
  br i1 %75, label %76, label %77, !dbg !6850

76:                                               ; preds = %73
  store i32 -1, ptr %2, align 4, !dbg !6851
  br label %178, !dbg !6851

77:                                               ; preds = %73
  %78 = getelementptr inbounds %"class.std::__h::basic_filebuf", ptr %12, i32 0, i32 8, !dbg !6852
  %79 = load ptr, ptr %78, align 4, !dbg !6852
  %80 = call i32 @fflush(ptr noundef %79), !dbg !6854
  %81 = icmp ne i32 %80, 0, !dbg !6854
  br i1 %81, label %82, label %83, !dbg !6855

82:                                               ; preds = %77
  store i32 -1, ptr %2, align 4, !dbg !6856
  br label %178, !dbg !6856

83:                                               ; preds = %77
  br label %177, !dbg !6857

84:                                               ; preds = %22
  %85 = getelementptr inbounds %"class.std::__h::basic_filebuf", ptr %12, i32 0, i32 13, !dbg !6858
  %86 = load i32, ptr %85, align 4, !dbg !6858
  %87 = and i32 %86, 8, !dbg !6860
  %88 = icmp ne i32 %87, 0, !dbg !6858
  br i1 %88, label %89, label %176, !dbg !6861

89:                                               ; preds = %84
  call void @llvm.dbg.declare(metadata ptr %7, metadata !6862, metadata !DIExpression()), !dbg !6864
  store i64 0, ptr %7, align 8, !dbg !6864, !annotation !6167
  call void @llvm.dbg.declare(metadata ptr %8, metadata !6865, metadata !DIExpression()), !dbg !6866
  call void @llvm.memset.p0.i32(ptr align 4 %8, i8 0, i32 8, i1 false), !dbg !6866, !annotation !6167
  %90 = getelementptr inbounds %"class.std::__h::basic_filebuf", ptr %12, i32 0, i32 11, !dbg !6867
  call void @llvm.memcpy.p0.p0.i32(ptr align 4 %8, ptr align 4 %90, i32 8, i1 false), !dbg !6867
  call void @llvm.dbg.declare(metadata ptr %9, metadata !6868, metadata !DIExpression()), !dbg !6869
  store i8 0, ptr %9, align 1, !dbg !6869, !annotation !6167
  store i8 0, ptr %9, align 1, !dbg !6869
  %91 = getelementptr inbounds %"class.std::__h::basic_filebuf", ptr %12, i32 0, i32 16, !dbg !6870
  %92 = load i8, ptr %91, align 2, !dbg !6870
  %93 = trunc i8 %92 to i1, !dbg !6870
  br i1 %93, label %94, label %101, !dbg !6872

94:                                               ; preds = %89
  %95 = call noundef ptr @_ZNKSt3__h15basic_streambufIcNS_11char_traitsIcEEE5egptrB6v15004Ev(ptr noundef nonnull align 4 dereferenceable(32) %12), !dbg !6873
  %96 = call noundef ptr @_ZNKSt3__h15basic_streambufIcNS_11char_traitsIcEEE4gptrB6v15004Ev(ptr noundef nonnull align 4 dereferenceable(32) %12), !dbg !6874
  %97 = ptrtoint ptr %95 to i32, !dbg !6875
  %98 = ptrtoint ptr %96 to i32, !dbg !6875
  %99 = sub i32 %97, %98, !dbg !6875
  %100 = sext i32 %99 to i64, !dbg !6876
  store i64 %100, ptr %7, align 8, !dbg !6877
  br label %157, !dbg !6878

101:                                              ; preds = %89
  call void @llvm.dbg.declare(metadata ptr %10, metadata !6879, metadata !DIExpression()), !dbg !6881
  store i32 0, ptr %10, align 4, !dbg !6881, !annotation !6167
  %102 = getelementptr inbounds %"class.std::__h::basic_filebuf", ptr %12, i32 0, i32 9, !dbg !6882
  %103 = load ptr, ptr %102, align 4, !dbg !6882
  %104 = call noundef i32 @_ZNKSt3__h7codecvtIcc11__mbstate_tE8encodingB6v15004Ev(ptr noundef nonnull align 4 dereferenceable(8) %103) #14, !dbg !6883
  store i32 %104, ptr %10, align 4, !dbg !6881
  %105 = getelementptr inbounds %"class.std::__h::basic_filebuf", ptr %12, i32 0, i32 3, !dbg !6884
  %106 = load ptr, ptr %105, align 4, !dbg !6884
  %107 = getelementptr inbounds %"class.std::__h::basic_filebuf", ptr %12, i32 0, i32 2, !dbg !6885
  %108 = load ptr, ptr %107, align 4, !dbg !6885
  %109 = ptrtoint ptr %106 to i32, !dbg !6886
  %110 = ptrtoint ptr %108 to i32, !dbg !6886
  %111 = sub i32 %109, %110, !dbg !6886
  %112 = sext i32 %111 to i64, !dbg !6884
  store i64 %112, ptr %7, align 8, !dbg !6887
  %113 = load i32, ptr %10, align 4, !dbg !6888
  %114 = icmp sgt i32 %113, 0, !dbg !6890
  br i1 %114, label %115, label %126, !dbg !6891

115:                                              ; preds = %101
  %116 = load i32, ptr %10, align 4, !dbg !6892
  %117 = call noundef ptr @_ZNKSt3__h15basic_streambufIcNS_11char_traitsIcEEE5egptrB6v15004Ev(ptr noundef nonnull align 4 dereferenceable(32) %12), !dbg !6893
  %118 = call noundef ptr @_ZNKSt3__h15basic_streambufIcNS_11char_traitsIcEEE4gptrB6v15004Ev(ptr noundef nonnull align 4 dereferenceable(32) %12), !dbg !6894
  %119 = ptrtoint ptr %117 to i32, !dbg !6895
  %120 = ptrtoint ptr %118 to i32, !dbg !6895
  %121 = sub i32 %119, %120, !dbg !6895
  %122 = mul nsw i32 %116, %121, !dbg !6896
  %123 = sext i32 %122 to i64, !dbg !6892
  %124 = load i64, ptr %7, align 8, !dbg !6897
  %125 = add nsw i64 %124, %123, !dbg !6897
  store i64 %125, ptr %7, align 8, !dbg !6897
  br label %156, !dbg !6898

126:                                              ; preds = %101
  %127 = call noundef ptr @_ZNKSt3__h15basic_streambufIcNS_11char_traitsIcEEE4gptrB6v15004Ev(ptr noundef nonnull align 4 dereferenceable(32) %12), !dbg !6899
  %128 = call noundef ptr @_ZNKSt3__h15basic_streambufIcNS_11char_traitsIcEEE5egptrB6v15004Ev(ptr noundef nonnull align 4 dereferenceable(32) %12), !dbg !6902
  %129 = icmp ne ptr %127, %128, !dbg !6903
  br i1 %129, label %130, label %155, !dbg !6904

130:                                              ; preds = %126
  call void @llvm.dbg.declare(metadata ptr %11, metadata !6905, metadata !DIExpression()), !dbg !6907
  store i32 0, ptr %11, align 4, !dbg !6907, !annotation !6167
  %131 = getelementptr inbounds %"class.std::__h::basic_filebuf", ptr %12, i32 0, i32 9, !dbg !6908
  %132 = load ptr, ptr %131, align 4, !dbg !6908
  %133 = getelementptr inbounds %"class.std::__h::basic_filebuf", ptr %12, i32 0, i32 1, !dbg !6909
  %134 = load ptr, ptr %133, align 4, !dbg !6909
  %135 = getelementptr inbounds %"class.std::__h::basic_filebuf", ptr %12, i32 0, i32 2, !dbg !6910
  %136 = load ptr, ptr %135, align 4, !dbg !6910
  %137 = call noundef ptr @_ZNKSt3__h15basic_streambufIcNS_11char_traitsIcEEE4gptrB6v15004Ev(ptr noundef nonnull align 4 dereferenceable(32) %12), !dbg !6911
  %138 = call noundef ptr @_ZNKSt3__h15basic_streambufIcNS_11char_traitsIcEEE5ebackB6v15004Ev(ptr noundef nonnull align 4 dereferenceable(32) %12), !dbg !6912
  %139 = ptrtoint ptr %137 to i32, !dbg !6913
  %140 = ptrtoint ptr %138 to i32, !dbg !6913
  %141 = sub i32 %139, %140, !dbg !6913
  %142 = call noundef i32 @_ZNKSt3__h7codecvtIcc11__mbstate_tE6lengthB6v15004ERS1_PKcS5_j(ptr noundef nonnull align 4 dereferenceable(8) %132, ptr noundef nonnull align 4 dereferenceable(8) %8, ptr noundef %134, ptr noundef %136, i32 noundef %141), !dbg !6914
  store i32 %142, ptr %11, align 4, !dbg !6907
  %143 = getelementptr inbounds %"class.std::__h::basic_filebuf", ptr %12, i32 0, i32 2, !dbg !6915
  %144 = load ptr, ptr %143, align 4, !dbg !6915
  %145 = getelementptr inbounds %"class.std::__h::basic_filebuf", ptr %12, i32 0, i32 1, !dbg !6916
  %146 = load ptr, ptr %145, align 4, !dbg !6916
  %147 = ptrtoint ptr %144 to i32, !dbg !6917
  %148 = ptrtoint ptr %146 to i32, !dbg !6917
  %149 = sub i32 %147, %148, !dbg !6917
  %150 = load i32, ptr %11, align 4, !dbg !6918
  %151 = sub nsw i32 %149, %150, !dbg !6919
  %152 = sext i32 %151 to i64, !dbg !6915
  %153 = load i64, ptr %7, align 8, !dbg !6920
  %154 = add nsw i64 %153, %152, !dbg !6920
  store i64 %154, ptr %7, align 8, !dbg !6920
  store i8 1, ptr %9, align 1, !dbg !6921
  br label %155, !dbg !6922

155:                                              ; preds = %130, %126
  br label %156

156:                                              ; preds = %155, %115
  br label %157

157:                                              ; preds = %156, %94
  %158 = getelementptr inbounds %"class.std::__h::basic_filebuf", ptr %12, i32 0, i32 8, !dbg !6923
  %159 = load ptr, ptr %158, align 4, !dbg !6923
  %160 = load i64, ptr %7, align 8, !dbg !6925
  %161 = sub nsw i64 0, %160, !dbg !6926
  %162 = call i32 @fseeko(ptr noundef %159, i64 noundef %161, i32 noundef 1), !dbg !6927
  %163 = icmp ne i32 %162, 0, !dbg !6927
  br i1 %163, label %164, label %165, !dbg !6928

164:                                              ; preds = %157
  store i32 -1, ptr %2, align 4, !dbg !6929
  br label %178, !dbg !6929

165:                                              ; preds = %157
  %166 = load i8, ptr %9, align 1, !dbg !6930
  %167 = trunc i8 %166 to i1, !dbg !6930
  br i1 %167, label %168, label %170, !dbg !6932

168:                                              ; preds = %165
  %169 = getelementptr inbounds %"class.std::__h::basic_filebuf", ptr %12, i32 0, i32 10, !dbg !6933
  call void @llvm.memcpy.p0.p0.i32(ptr align 4 %169, ptr align 4 %8, i32 8, i1 false), !dbg !6934
  br label %170, !dbg !6933

170:                                              ; preds = %168, %165
  %171 = getelementptr inbounds %"class.std::__h::basic_filebuf", ptr %12, i32 0, i32 1, !dbg !6935
  %172 = load ptr, ptr %171, align 4, !dbg !6935
  %173 = getelementptr inbounds %"class.std::__h::basic_filebuf", ptr %12, i32 0, i32 3, !dbg !6936
  store ptr %172, ptr %173, align 4, !dbg !6937
  %174 = getelementptr inbounds %"class.std::__h::basic_filebuf", ptr %12, i32 0, i32 2, !dbg !6938
  store ptr %172, ptr %174, align 4, !dbg !6939
  call void @_ZNSt3__h15basic_streambufIcNS_11char_traitsIcEEE4setgB6v15004EPcS4_S4_(ptr noundef nonnull align 4 dereferenceable(32) %12, ptr noundef null, ptr noundef null, ptr noundef null), !dbg !6940
  %175 = getelementptr inbounds %"class.std::__h::basic_filebuf", ptr %12, i32 0, i32 13, !dbg !6941
  store i32 0, ptr %175, align 4, !dbg !6942
  br label %176, !dbg !6943

176:                                              ; preds = %170, %84
  br label %177

177:                                              ; preds = %176, %83
  store i32 0, ptr %2, align 4, !dbg !6944
  br label %178, !dbg !6944

178:                                              ; preds = %177, %164, %82, %76, %68, %39, %16
  %179 = load i32, ptr %2, align 4, !dbg !6945
  ret i32 %179, !dbg !6945
}

declare noundef i32 @_ZNSt3__h15basic_streambufIcNS_11char_traitsIcEEE9showmanycEv(ptr noundef nonnull align 4 dereferenceable(32)) unnamed_addr #4

declare noundef i32 @_ZNSt3__h15basic_streambufIcNS_11char_traitsIcEEE6xsgetnEPci(ptr noundef nonnull align 4 dereferenceable(32), ptr noundef, i32 noundef) unnamed_addr #4

; Function Attrs: mustprogress noinline nounwind optnone sspstrong uwtable(sync)
define linkonce_odr noundef i32 @_ZNSt3__h13basic_filebufIcNS_11char_traitsIcEEE9underflowEv(ptr noundef nonnull align 4 dereferenceable(99) %0) unnamed_addr #0 comdat align 2 !dbg !6946 {
  %2 = alloca i32, align 4
  %3 = alloca ptr, align 4
  %4 = alloca i8, align 1
  %5 = alloca i8, align 1
  %6 = alloca i32, align 4
  %7 = alloca i32, align 4
  %8 = alloca i32, align 4
  %9 = alloca i32, align 4
  %10 = alloca i32, align 4
  %11 = alloca i32, align 4
  %12 = alloca i32, align 4
  %13 = alloca i32, align 4
  %14 = alloca i32, align 4
  %15 = alloca i32, align 4
  %16 = alloca ptr, align 4
  store ptr %0, ptr %3, align 4
  call void @llvm.dbg.declare(metadata ptr %3, metadata !6947, metadata !DIExpression()), !dbg !6948
  %17 = load ptr, ptr %3, align 4
  %18 = getelementptr inbounds %"class.std::__h::basic_filebuf", ptr %17, i32 0, i32 8, !dbg !6949
  %19 = load ptr, ptr %18, align 4, !dbg !6949
  %20 = icmp eq ptr %19, null, !dbg !6951
  br i1 %20, label %21, label %23, !dbg !6952

21:                                               ; preds = %1
  %22 = call noundef i32 @_ZNSt3__h11char_traitsIcE3eofEv() #14, !dbg !6953
  store i32 %22, ptr %2, align 4, !dbg !6954
  br label %240, !dbg !6954

23:                                               ; preds = %1
  call void @llvm.dbg.declare(metadata ptr %4, metadata !6955, metadata !DIExpression()), !dbg !6956
  store i8 0, ptr %4, align 1, !dbg !6956, !annotation !6167
  %24 = call noundef zeroext i1 @_ZNSt3__h13basic_filebufIcNS_11char_traitsIcEEE11__read_modeEv(ptr noundef nonnull align 4 dereferenceable(99) %17), !dbg !6957
  %25 = zext i1 %24 to i8, !dbg !6956
  store i8 %25, ptr %4, align 1, !dbg !6956
  call void @llvm.dbg.declare(metadata ptr %5, metadata !6958, metadata !DIExpression()), !dbg !6959
  store i8 0, ptr %5, align 1, !dbg !6959, !annotation !6167
  %26 = call noundef ptr @_ZNKSt3__h15basic_streambufIcNS_11char_traitsIcEEE4gptrB6v15004Ev(ptr noundef nonnull align 4 dereferenceable(32) %17), !dbg !6960
  %27 = icmp eq ptr %26, null, !dbg !6962
  br i1 %27, label %28, label %31, !dbg !6963

28:                                               ; preds = %23
  %29 = getelementptr inbounds i8, ptr %5, i32 1, !dbg !6964
  %30 = getelementptr inbounds i8, ptr %5, i32 1, !dbg !6965
  call void @_ZNSt3__h15basic_streambufIcNS_11char_traitsIcEEE4setgB6v15004EPcS4_S4_(ptr noundef nonnull align 4 dereferenceable(32) %17, ptr noundef %5, ptr noundef %29, ptr noundef %30), !dbg !6966
  br label %31, !dbg !6967

31:                                               ; preds = %28, %23
  call void @llvm.dbg.declare(metadata ptr %6, metadata !6968, metadata !DIExpression()), !dbg !6970
  store i32 0, ptr %6, align 4, !dbg !6970, !annotation !6167
  %32 = load i8, ptr %4, align 1, !dbg !6971
  %33 = trunc i8 %32 to i1, !dbg !6971
  br i1 %33, label %34, label %35, !dbg !6971

34:                                               ; preds = %31
  br label %44, !dbg !6971

35:                                               ; preds = %31
  %36 = call noundef ptr @_ZNKSt3__h15basic_streambufIcNS_11char_traitsIcEEE5egptrB6v15004Ev(ptr noundef nonnull align 4 dereferenceable(32) %17), !dbg !6972
  %37 = call noundef ptr @_ZNKSt3__h15basic_streambufIcNS_11char_traitsIcEEE5ebackB6v15004Ev(ptr noundef nonnull align 4 dereferenceable(32) %17), !dbg !6973
  %38 = ptrtoint ptr %36 to i32, !dbg !6974
  %39 = ptrtoint ptr %37 to i32, !dbg !6974
  %40 = sub i32 %38, %39, !dbg !6974
  %41 = sdiv i32 %40, 2, !dbg !6975
  store i32 %41, ptr %7, align 4, !dbg !6976
  store i32 4, ptr %8, align 4, !dbg !6977
  %42 = call noundef nonnull align 4 dereferenceable(4) ptr @_ZNSt3__h3minB6v15004IjEERKT_S3_S3_(ptr noundef nonnull align 4 dereferenceable(4) %7, ptr noundef nonnull align 4 dereferenceable(4) %8), !dbg !6978
  %43 = load i32, ptr %42, align 4, !dbg !6978
  br label %44, !dbg !6971

44:                                               ; preds = %35, %34
  %45 = phi i32 [ 0, %34 ], [ %43, %35 ], !dbg !6971
  store i32 %45, ptr %6, align 4, !dbg !6970
  call void @llvm.dbg.declare(metadata ptr %9, metadata !6979, metadata !DIExpression()), !dbg !6980
  store i32 0, ptr %9, align 4, !dbg !6980, !annotation !6167
  %46 = call noundef i32 @_ZNSt3__h11char_traitsIcE3eofEv() #14, !dbg !6981
  store i32 %46, ptr %9, align 4, !dbg !6980
  %47 = call noundef ptr @_ZNKSt3__h15basic_streambufIcNS_11char_traitsIcEEE4gptrB6v15004Ev(ptr noundef nonnull align 4 dereferenceable(32) %17), !dbg !6982
  %48 = call noundef ptr @_ZNKSt3__h15basic_streambufIcNS_11char_traitsIcEEE5egptrB6v15004Ev(ptr noundef nonnull align 4 dereferenceable(32) %17), !dbg !6984
  %49 = icmp eq ptr %47, %48, !dbg !6985
  br i1 %49, label %50, label %230, !dbg !6986

50:                                               ; preds = %44
  %51 = call noundef ptr @_ZNKSt3__h15basic_streambufIcNS_11char_traitsIcEEE5ebackB6v15004Ev(ptr noundef nonnull align 4 dereferenceable(32) %17), !dbg !6987
  %52 = call noundef ptr @_ZNKSt3__h15basic_streambufIcNS_11char_traitsIcEEE5egptrB6v15004Ev(ptr noundef nonnull align 4 dereferenceable(32) %17), !dbg !6989
  %53 = load i32, ptr %6, align 4, !dbg !6990
  %54 = sub i32 0, %53, !dbg !6991
  %55 = getelementptr inbounds i8, ptr %52, i32 %54, !dbg !6991
  %56 = load i32, ptr %6, align 4, !dbg !6992
  %57 = mul i32 %56, 1, !dbg !6993
  call void @llvm.memmove.p0.p0.i32(ptr align 1 %51, ptr align 1 %55, i32 %57, i1 false), !dbg !6994
  %58 = getelementptr inbounds %"class.std::__h::basic_filebuf", ptr %17, i32 0, i32 16, !dbg !6995
  %59 = load i8, ptr %58, align 2, !dbg !6995
  %60 = trunc i8 %59 to i1, !dbg !6995
  br i1 %60, label %61, label %92, !dbg !6997

61:                                               ; preds = %50
  call void @llvm.dbg.declare(metadata ptr %10, metadata !6998, metadata !DIExpression()), !dbg !7000
  store i32 0, ptr %10, align 4, !dbg !7000, !annotation !6167
  %62 = call noundef ptr @_ZNKSt3__h15basic_streambufIcNS_11char_traitsIcEEE5egptrB6v15004Ev(ptr noundef nonnull align 4 dereferenceable(32) %17), !dbg !7001
  %63 = call noundef ptr @_ZNKSt3__h15basic_streambufIcNS_11char_traitsIcEEE5ebackB6v15004Ev(ptr noundef nonnull align 4 dereferenceable(32) %17), !dbg !7002
  %64 = ptrtoint ptr %62 to i32, !dbg !7003
  %65 = ptrtoint ptr %63 to i32, !dbg !7003
  %66 = sub i32 %64, %65, !dbg !7003
  %67 = load i32, ptr %6, align 4, !dbg !7004
  %68 = sub i32 %66, %67, !dbg !7005
  store i32 %68, ptr %10, align 4, !dbg !7000
  %69 = call noundef ptr @_ZNKSt3__h15basic_streambufIcNS_11char_traitsIcEEE5ebackB6v15004Ev(ptr noundef nonnull align 4 dereferenceable(32) %17), !dbg !7006
  %70 = load i32, ptr %6, align 4, !dbg !7007
  %71 = getelementptr inbounds i8, ptr %69, i32 %70, !dbg !7008
  %72 = load i32, ptr %10, align 4, !dbg !7009
  %73 = getelementptr inbounds %"class.std::__h::basic_filebuf", ptr %17, i32 0, i32 8, !dbg !7010
  %74 = load ptr, ptr %73, align 4, !dbg !7010
  %75 = call i32 @fread(ptr noundef %71, i32 noundef 1, i32 noundef %72, ptr noundef %74), !dbg !7011
  store i32 %75, ptr %10, align 4, !dbg !7012
  %76 = load i32, ptr %10, align 4, !dbg !7013
  %77 = icmp ne i32 %76, 0, !dbg !7015
  br i1 %77, label %78, label %91, !dbg !7016

78:                                               ; preds = %61
  %79 = call noundef ptr @_ZNKSt3__h15basic_streambufIcNS_11char_traitsIcEEE5ebackB6v15004Ev(ptr noundef nonnull align 4 dereferenceable(32) %17), !dbg !7017
  %80 = call noundef ptr @_ZNKSt3__h15basic_streambufIcNS_11char_traitsIcEEE5ebackB6v15004Ev(ptr noundef nonnull align 4 dereferenceable(32) %17), !dbg !7019
  %81 = load i32, ptr %6, align 4, !dbg !7020
  %82 = getelementptr inbounds i8, ptr %80, i32 %81, !dbg !7021
  %83 = call noundef ptr @_ZNKSt3__h15basic_streambufIcNS_11char_traitsIcEEE5ebackB6v15004Ev(ptr noundef nonnull align 4 dereferenceable(32) %17), !dbg !7022
  %84 = load i32, ptr %6, align 4, !dbg !7023
  %85 = getelementptr inbounds i8, ptr %83, i32 %84, !dbg !7024
  %86 = load i32, ptr %10, align 4, !dbg !7025
  %87 = getelementptr inbounds i8, ptr %85, i32 %86, !dbg !7026
  call void @_ZNSt3__h15basic_streambufIcNS_11char_traitsIcEEE4setgB6v15004EPcS4_S4_(ptr noundef nonnull align 4 dereferenceable(32) %17, ptr noundef %79, ptr noundef %82, ptr noundef %87), !dbg !7027
  %88 = call noundef ptr @_ZNKSt3__h15basic_streambufIcNS_11char_traitsIcEEE4gptrB6v15004Ev(ptr noundef nonnull align 4 dereferenceable(32) %17), !dbg !7028
  %89 = load i8, ptr %88, align 1, !dbg !7029
  %90 = call noundef i32 @_ZNSt3__h11char_traitsIcE11to_int_typeEc(i8 noundef zeroext %89) #14, !dbg !7030
  store i32 %90, ptr %9, align 4, !dbg !7031
  br label %91, !dbg !7032

91:                                               ; preds = %78, %61
  br label %229, !dbg !7033

92:                                               ; preds = %50
  %93 = getelementptr inbounds %"class.std::__h::basic_filebuf", ptr %17, i32 0, i32 2, !dbg !7034
  %94 = load ptr, ptr %93, align 4, !dbg !7034
  %95 = icmp eq ptr %94, null, !dbg !7034
  br i1 %95, label %96, label %102, !dbg !7034

96:                                               ; preds = %92
  %97 = getelementptr inbounds %"class.std::__h::basic_filebuf", ptr %17, i32 0, i32 3, !dbg !7034
  %98 = load ptr, ptr %97, align 4, !dbg !7034
  %99 = getelementptr inbounds %"class.std::__h::basic_filebuf", ptr %17, i32 0, i32 2, !dbg !7034
  %100 = load ptr, ptr %99, align 4, !dbg !7034
  %101 = icmp ne ptr %98, %100, !dbg !7034
  br label %102

102:                                              ; preds = %96, %92
  %103 = phi i1 [ false, %92 ], [ %101, %96 ], !dbg !7036
  %104 = xor i1 %103, true, !dbg !7034
  call void @llvm.assume(i1 %104), !dbg !7034
  %105 = getelementptr inbounds %"class.std::__h::basic_filebuf", ptr %17, i32 0, i32 3, !dbg !7037
  %106 = load ptr, ptr %105, align 4, !dbg !7037
  %107 = getelementptr inbounds %"class.std::__h::basic_filebuf", ptr %17, i32 0, i32 2, !dbg !7039
  %108 = load ptr, ptr %107, align 4, !dbg !7039
  %109 = icmp ne ptr %106, %108, !dbg !7040
  br i1 %109, label %110, label %122, !dbg !7041

110:                                              ; preds = %102
  %111 = getelementptr inbounds %"class.std::__h::basic_filebuf", ptr %17, i32 0, i32 1, !dbg !7042
  %112 = load ptr, ptr %111, align 4, !dbg !7042
  %113 = getelementptr inbounds %"class.std::__h::basic_filebuf", ptr %17, i32 0, i32 2, !dbg !7043
  %114 = load ptr, ptr %113, align 4, !dbg !7043
  %115 = getelementptr inbounds %"class.std::__h::basic_filebuf", ptr %17, i32 0, i32 3, !dbg !7044
  %116 = load ptr, ptr %115, align 4, !dbg !7044
  %117 = getelementptr inbounds %"class.std::__h::basic_filebuf", ptr %17, i32 0, i32 2, !dbg !7045
  %118 = load ptr, ptr %117, align 4, !dbg !7045
  %119 = ptrtoint ptr %116 to i32, !dbg !7046
  %120 = ptrtoint ptr %118 to i32, !dbg !7046
  %121 = sub i32 %119, %120, !dbg !7046
  call void @llvm.memmove.p0.p0.i32(ptr align 1 %112, ptr align 1 %114, i32 %121, i1 false), !dbg !7047
  br label %122, !dbg !7047

122:                                              ; preds = %110, %102
  %123 = getelementptr inbounds %"class.std::__h::basic_filebuf", ptr %17, i32 0, i32 1, !dbg !7048
  %124 = load ptr, ptr %123, align 4, !dbg !7048
  %125 = getelementptr inbounds %"class.std::__h::basic_filebuf", ptr %17, i32 0, i32 3, !dbg !7049
  %126 = load ptr, ptr %125, align 4, !dbg !7049
  %127 = getelementptr inbounds %"class.std::__h::basic_filebuf", ptr %17, i32 0, i32 2, !dbg !7050
  %128 = load ptr, ptr %127, align 4, !dbg !7050
  %129 = ptrtoint ptr %126 to i32, !dbg !7051
  %130 = ptrtoint ptr %128 to i32, !dbg !7051
  %131 = sub i32 %129, %130, !dbg !7051
  %132 = getelementptr inbounds i8, ptr %124, i32 %131, !dbg !7052
  %133 = getelementptr inbounds %"class.std::__h::basic_filebuf", ptr %17, i32 0, i32 2, !dbg !7053
  store ptr %132, ptr %133, align 4, !dbg !7054
  %134 = getelementptr inbounds %"class.std::__h::basic_filebuf", ptr %17, i32 0, i32 1, !dbg !7055
  %135 = load ptr, ptr %134, align 4, !dbg !7055
  %136 = getelementptr inbounds %"class.std::__h::basic_filebuf", ptr %17, i32 0, i32 1, !dbg !7056
  %137 = load ptr, ptr %136, align 4, !dbg !7056
  %138 = getelementptr inbounds %"class.std::__h::basic_filebuf", ptr %17, i32 0, i32 4, !dbg !7057
  %139 = getelementptr inbounds [8 x i8], ptr %138, i32 0, i32 0, !dbg !7057
  %140 = icmp eq ptr %137, %139, !dbg !7058
  br i1 %140, label %141, label %142, !dbg !7056

141:                                              ; preds = %122
  br label %145, !dbg !7056

142:                                              ; preds = %122
  %143 = getelementptr inbounds %"class.std::__h::basic_filebuf", ptr %17, i32 0, i32 5, !dbg !7059
  %144 = load i32, ptr %143, align 4, !dbg !7059
  br label %145, !dbg !7056

145:                                              ; preds = %142, %141
  %146 = phi i32 [ 8, %141 ], [ %144, %142 ], !dbg !7056
  %147 = getelementptr inbounds i8, ptr %135, i32 %146, !dbg !7060
  %148 = getelementptr inbounds %"class.std::__h::basic_filebuf", ptr %17, i32 0, i32 3, !dbg !7061
  store ptr %147, ptr %148, align 4, !dbg !7062
  call void @llvm.dbg.declare(metadata ptr %11, metadata !7063, metadata !DIExpression()), !dbg !7064
  store i32 0, ptr %11, align 4, !dbg !7064, !annotation !6167
  %149 = getelementptr inbounds %"class.std::__h::basic_filebuf", ptr %17, i32 0, i32 7, !dbg !7065
  %150 = load i32, ptr %149, align 4, !dbg !7065
  %151 = load i32, ptr %6, align 4, !dbg !7066
  %152 = sub i32 %150, %151, !dbg !7067
  store i32 %152, ptr %12, align 4, !dbg !7068
  %153 = getelementptr inbounds %"class.std::__h::basic_filebuf", ptr %17, i32 0, i32 3, !dbg !7069
  %154 = load ptr, ptr %153, align 4, !dbg !7069
  %155 = getelementptr inbounds %"class.std::__h::basic_filebuf", ptr %17, i32 0, i32 2, !dbg !7070
  %156 = load ptr, ptr %155, align 4, !dbg !7070
  %157 = ptrtoint ptr %154 to i32, !dbg !7071
  %158 = ptrtoint ptr %156 to i32, !dbg !7071
  %159 = sub i32 %157, %158, !dbg !7071
  store i32 %159, ptr %13, align 4, !dbg !7072
  %160 = call noundef nonnull align 4 dereferenceable(4) ptr @_ZNSt3__h3minB6v15004IjEERKT_S3_S3_(ptr noundef nonnull align 4 dereferenceable(4) %12, ptr noundef nonnull align 4 dereferenceable(4) %13), !dbg !7073
  %161 = load i32, ptr %160, align 4, !dbg !7073
  store i32 %161, ptr %11, align 4, !dbg !7064
  call void @llvm.dbg.declare(metadata ptr %14, metadata !7074, metadata !DIExpression()), !dbg !7075
  store i32 0, ptr %14, align 4, !dbg !7075, !annotation !6167
  %162 = getelementptr inbounds %"class.std::__h::basic_filebuf", ptr %17, i32 0, i32 10, !dbg !7076
  %163 = getelementptr inbounds %"class.std::__h::basic_filebuf", ptr %17, i32 0, i32 11, !dbg !7077
  call void @llvm.memcpy.p0.p0.i32(ptr align 4 %163, ptr align 4 %162, i32 8, i1 false), !dbg !7078
  call void @llvm.dbg.declare(metadata ptr %15, metadata !7079, metadata !DIExpression()), !dbg !7080
  store i32 0, ptr %15, align 4, !dbg !7080, !annotation !6167
  %164 = getelementptr inbounds %"class.std::__h::basic_filebuf", ptr %17, i32 0, i32 2, !dbg !7081
  %165 = load ptr, ptr %164, align 4, !dbg !7081
  %166 = load i32, ptr %11, align 4, !dbg !7082
  %167 = getelementptr inbounds %"class.std::__h::basic_filebuf", ptr %17, i32 0, i32 8, !dbg !7083
  %168 = load ptr, ptr %167, align 4, !dbg !7083
  %169 = call i32 @fread(ptr noundef %165, i32 noundef 1, i32 noundef %166, ptr noundef %168), !dbg !7084
  store i32 %169, ptr %15, align 4, !dbg !7080
  %170 = load i32, ptr %15, align 4, !dbg !7085
  %171 = icmp ne i32 %170, 0, !dbg !7087
  br i1 %171, label %172, label %228, !dbg !7088

172:                                              ; preds = %145
  %173 = getelementptr inbounds %"class.std::__h::basic_filebuf", ptr %17, i32 0, i32 9, !dbg !7089
  %174 = load ptr, ptr %173, align 4, !dbg !7089
  %175 = icmp ne ptr %174, null, !dbg !7089
  br i1 %175, label %177, label %176, !dbg !7092

176:                                              ; preds = %172
  call void @_ZNSt3__h16__throw_bad_castB6v15004Ev() #17, !dbg !7093
  unreachable, !dbg !7093

177:                                              ; preds = %172
  %178 = getelementptr inbounds %"class.std::__h::basic_filebuf", ptr %17, i32 0, i32 2, !dbg !7094
  %179 = load ptr, ptr %178, align 4, !dbg !7094
  %180 = load i32, ptr %15, align 4, !dbg !7095
  %181 = getelementptr inbounds i8, ptr %179, i32 %180, !dbg !7096
  %182 = getelementptr inbounds %"class.std::__h::basic_filebuf", ptr %17, i32 0, i32 3, !dbg !7097
  store ptr %181, ptr %182, align 4, !dbg !7098
  call void @llvm.dbg.declare(metadata ptr %16, metadata !7099, metadata !DIExpression()), !dbg !7100
  store ptr null, ptr %16, align 4, !dbg !7100, !annotation !6167
  %183 = getelementptr inbounds %"class.std::__h::basic_filebuf", ptr %17, i32 0, i32 9, !dbg !7101
  %184 = load ptr, ptr %183, align 4, !dbg !7101
  %185 = getelementptr inbounds %"class.std::__h::basic_filebuf", ptr %17, i32 0, i32 10, !dbg !7102
  %186 = getelementptr inbounds %"class.std::__h::basic_filebuf", ptr %17, i32 0, i32 1, !dbg !7103
  %187 = load ptr, ptr %186, align 4, !dbg !7103
  %188 = getelementptr inbounds %"class.std::__h::basic_filebuf", ptr %17, i32 0, i32 3, !dbg !7104
  %189 = load ptr, ptr %188, align 4, !dbg !7104
  %190 = getelementptr inbounds %"class.std::__h::basic_filebuf", ptr %17, i32 0, i32 2, !dbg !7105
  %191 = call noundef ptr @_ZNKSt3__h15basic_streambufIcNS_11char_traitsIcEEE5ebackB6v15004Ev(ptr noundef nonnull align 4 dereferenceable(32) %17), !dbg !7106
  %192 = load i32, ptr %6, align 4, !dbg !7107
  %193 = getelementptr inbounds i8, ptr %191, i32 %192, !dbg !7108
  %194 = call noundef ptr @_ZNKSt3__h15basic_streambufIcNS_11char_traitsIcEEE5ebackB6v15004Ev(ptr noundef nonnull align 4 dereferenceable(32) %17), !dbg !7109
  %195 = getelementptr inbounds %"class.std::__h::basic_filebuf", ptr %17, i32 0, i32 7, !dbg !7110
  %196 = load i32, ptr %195, align 4, !dbg !7110
  %197 = getelementptr inbounds i8, ptr %194, i32 %196, !dbg !7111
  %198 = call noundef i32 @_ZNKSt3__h7codecvtIcc11__mbstate_tE2inB6v15004ERS1_PKcS5_RS5_PcS7_RS7_(ptr noundef nonnull align 4 dereferenceable(8) %184, ptr noundef nonnull align 4 dereferenceable(8) %185, ptr noundef %187, ptr noundef %189, ptr noundef nonnull align 4 dereferenceable(4) %190, ptr noundef %193, ptr noundef %197, ptr noundef nonnull align 4 dereferenceable(4) %16), !dbg !7112
  store i32 %198, ptr %14, align 4, !dbg !7113
  %199 = load i32, ptr %14, align 4, !dbg !7114
  %200 = icmp eq i32 %199, 3, !dbg !7116
  br i1 %200, label %201, label %211, !dbg !7117

201:                                              ; preds = %177
  %202 = getelementptr inbounds %"class.std::__h::basic_filebuf", ptr %17, i32 0, i32 1, !dbg !7118
  %203 = load ptr, ptr %202, align 4, !dbg !7118
  %204 = getelementptr inbounds %"class.std::__h::basic_filebuf", ptr %17, i32 0, i32 1, !dbg !7120
  %205 = load ptr, ptr %204, align 4, !dbg !7120
  %206 = getelementptr inbounds %"class.std::__h::basic_filebuf", ptr %17, i32 0, i32 3, !dbg !7121
  %207 = load ptr, ptr %206, align 4, !dbg !7121
  call void @_ZNSt3__h15basic_streambufIcNS_11char_traitsIcEEE4setgB6v15004EPcS4_S4_(ptr noundef nonnull align 4 dereferenceable(32) %17, ptr noundef %203, ptr noundef %205, ptr noundef %207), !dbg !7122
  %208 = call noundef ptr @_ZNKSt3__h15basic_streambufIcNS_11char_traitsIcEEE4gptrB6v15004Ev(ptr noundef nonnull align 4 dereferenceable(32) %17), !dbg !7123
  %209 = load i8, ptr %208, align 1, !dbg !7124
  %210 = call noundef i32 @_ZNSt3__h11char_traitsIcE11to_int_typeEc(i8 noundef zeroext %209) #14, !dbg !7125
  store i32 %210, ptr %9, align 4, !dbg !7126
  br label %227, !dbg !7127

211:                                              ; preds = %177
  %212 = load ptr, ptr %16, align 4, !dbg !7128
  %213 = call noundef ptr @_ZNKSt3__h15basic_streambufIcNS_11char_traitsIcEEE5ebackB6v15004Ev(ptr noundef nonnull align 4 dereferenceable(32) %17), !dbg !7130
  %214 = load i32, ptr %6, align 4, !dbg !7131
  %215 = getelementptr inbounds i8, ptr %213, i32 %214, !dbg !7132
  %216 = icmp ne ptr %212, %215, !dbg !7133
  br i1 %216, label %217, label %226, !dbg !7134

217:                                              ; preds = %211
  %218 = call noundef ptr @_ZNKSt3__h15basic_streambufIcNS_11char_traitsIcEEE5ebackB6v15004Ev(ptr noundef nonnull align 4 dereferenceable(32) %17), !dbg !7135
  %219 = call noundef ptr @_ZNKSt3__h15basic_streambufIcNS_11char_traitsIcEEE5ebackB6v15004Ev(ptr noundef nonnull align 4 dereferenceable(32) %17), !dbg !7137
  %220 = load i32, ptr %6, align 4, !dbg !7138
  %221 = getelementptr inbounds i8, ptr %219, i32 %220, !dbg !7139
  %222 = load ptr, ptr %16, align 4, !dbg !7140
  call void @_ZNSt3__h15basic_streambufIcNS_11char_traitsIcEEE4setgB6v15004EPcS4_S4_(ptr noundef nonnull align 4 dereferenceable(32) %17, ptr noundef %218, ptr noundef %221, ptr noundef %222), !dbg !7141
  %223 = call noundef ptr @_ZNKSt3__h15basic_streambufIcNS_11char_traitsIcEEE4gptrB6v15004Ev(ptr noundef nonnull align 4 dereferenceable(32) %17), !dbg !7142
  %224 = load i8, ptr %223, align 1, !dbg !7143
  %225 = call noundef i32 @_ZNSt3__h11char_traitsIcE11to_int_typeEc(i8 noundef zeroext %224) #14, !dbg !7144
  store i32 %225, ptr %9, align 4, !dbg !7145
  br label %226, !dbg !7146

226:                                              ; preds = %217, %211
  br label %227

227:                                              ; preds = %226, %201
  br label %228, !dbg !7147

228:                                              ; preds = %227, %145
  br label %229

229:                                              ; preds = %228, %91
  br label %234, !dbg !7148

230:                                              ; preds = %44
  %231 = call noundef ptr @_ZNKSt3__h15basic_streambufIcNS_11char_traitsIcEEE4gptrB6v15004Ev(ptr noundef nonnull align 4 dereferenceable(32) %17), !dbg !7149
  %232 = load i8, ptr %231, align 1, !dbg !7150
  %233 = call noundef i32 @_ZNSt3__h11char_traitsIcE11to_int_typeEc(i8 noundef zeroext %232) #14, !dbg !7151
  store i32 %233, ptr %9, align 4, !dbg !7152
  br label %234

234:                                              ; preds = %230, %229
  %235 = call noundef ptr @_ZNKSt3__h15basic_streambufIcNS_11char_traitsIcEEE5ebackB6v15004Ev(ptr noundef nonnull align 4 dereferenceable(32) %17), !dbg !7153
  %236 = icmp eq ptr %235, %5, !dbg !7155
  br i1 %236, label %237, label %238, !dbg !7156

237:                                              ; preds = %234
  call void @_ZNSt3__h15basic_streambufIcNS_11char_traitsIcEEE4setgB6v15004EPcS4_S4_(ptr noundef nonnull align 4 dereferenceable(32) %17, ptr noundef null, ptr noundef null, ptr noundef null), !dbg !7157
  br label %238, !dbg !7158

238:                                              ; preds = %237, %234
  %239 = load i32, ptr %9, align 4, !dbg !7159
  store i32 %239, ptr %2, align 4, !dbg !7160
  br label %240, !dbg !7160

240:                                              ; preds = %238, %21
  %241 = load i32, ptr %2, align 4, !dbg !7161
  ret i32 %241, !dbg !7161
}

declare noundef i32 @_ZNSt3__h15basic_streambufIcNS_11char_traitsIcEEE5uflowEv(ptr noundef nonnull align 4 dereferenceable(32)) unnamed_addr #4

; Function Attrs: mustprogress noinline nounwind optnone sspstrong uwtable(sync)
define linkonce_odr noundef i32 @_ZNSt3__h13basic_filebufIcNS_11char_traitsIcEEE9pbackfailEi(ptr noundef nonnull align 4 dereferenceable(99) %0, i32 noundef %1) unnamed_addr #0 comdat align 2 !dbg !7162 {
  %3 = alloca i32, align 4
  %4 = alloca ptr, align 4
  %5 = alloca i32, align 4
  store ptr %0, ptr %4, align 4
  call void @llvm.dbg.declare(metadata ptr %4, metadata !7163, metadata !DIExpression()), !dbg !7164
  store i32 %1, ptr %5, align 4
  call void @llvm.dbg.declare(metadata ptr %5, metadata !7165, metadata !DIExpression()), !dbg !7166
  %6 = load ptr, ptr %4, align 4
  %7 = getelementptr inbounds %"class.std::__h::basic_filebuf", ptr %6, i32 0, i32 8, !dbg !7167
  %8 = load ptr, ptr %7, align 4, !dbg !7167
  %9 = icmp ne ptr %8, null, !dbg !7167
  br i1 %9, label %10, label %39, !dbg !7169

10:                                               ; preds = %2
  %11 = call noundef ptr @_ZNKSt3__h15basic_streambufIcNS_11char_traitsIcEEE5ebackB6v15004Ev(ptr noundef nonnull align 4 dereferenceable(32) %6), !dbg !7170
  %12 = call noundef ptr @_ZNKSt3__h15basic_streambufIcNS_11char_traitsIcEEE4gptrB6v15004Ev(ptr noundef nonnull align 4 dereferenceable(32) %6), !dbg !7171
  %13 = icmp ult ptr %11, %12, !dbg !7172
  br i1 %13, label %14, label %39, !dbg !7173

14:                                               ; preds = %10
  %15 = load i32, ptr %5, align 4, !dbg !7174
  %16 = call noundef i32 @_ZNSt3__h11char_traitsIcE3eofEv() #14, !dbg !7177
  %17 = call noundef zeroext i1 @_ZNSt3__h11char_traitsIcE11eq_int_typeEii(i32 noundef %15, i32 noundef %16) #14, !dbg !7178
  br i1 %17, label %18, label %21, !dbg !7179

18:                                               ; preds = %14
  call void @_ZNSt3__h15basic_streambufIcNS_11char_traitsIcEEE5gbumpB6v15004Ei(ptr noundef nonnull align 4 dereferenceable(32) %6, i32 noundef -1), !dbg !7180
  %19 = load i32, ptr %5, align 4, !dbg !7182
  %20 = call noundef i32 @_ZNSt3__h11char_traitsIcE7not_eofEi(i32 noundef %19) #14, !dbg !7183
  store i32 %20, ptr %3, align 4, !dbg !7184
  br label %41, !dbg !7184

21:                                               ; preds = %14
  %22 = getelementptr inbounds %"class.std::__h::basic_filebuf", ptr %6, i32 0, i32 12, !dbg !7185
  %23 = load i32, ptr %22, align 4, !dbg !7185
  %24 = and i32 %23, 16, !dbg !7187
  %25 = icmp ne i32 %24, 0, !dbg !7188
  br i1 %25, label %33, label %26, !dbg !7189

26:                                               ; preds = %21
  %27 = load i32, ptr %5, align 4, !dbg !7190
  %28 = call noundef zeroext i8 @_ZNSt3__h11char_traitsIcE12to_char_typeEi(i32 noundef %27) #14, !dbg !7191
  %29 = call noundef ptr @_ZNKSt3__h15basic_streambufIcNS_11char_traitsIcEEE4gptrB6v15004Ev(ptr noundef nonnull align 4 dereferenceable(32) %6), !dbg !7192
  %30 = getelementptr inbounds i8, ptr %29, i32 -1, !dbg !7192
  %31 = load i8, ptr %30, align 1, !dbg !7192
  %32 = call noundef zeroext i1 @_ZNSt3__h11char_traitsIcE2eqEcc(i8 noundef zeroext %28, i8 noundef zeroext %31) #14, !dbg !7193
  br i1 %32, label %33, label %38, !dbg !7194

33:                                               ; preds = %26, %21
  call void @_ZNSt3__h15basic_streambufIcNS_11char_traitsIcEEE5gbumpB6v15004Ei(ptr noundef nonnull align 4 dereferenceable(32) %6, i32 noundef -1), !dbg !7195
  %34 = load i32, ptr %5, align 4, !dbg !7197
  %35 = call noundef zeroext i8 @_ZNSt3__h11char_traitsIcE12to_char_typeEi(i32 noundef %34) #14, !dbg !7198
  %36 = call noundef ptr @_ZNKSt3__h15basic_streambufIcNS_11char_traitsIcEEE4gptrB6v15004Ev(ptr noundef nonnull align 4 dereferenceable(32) %6), !dbg !7199
  store i8 %35, ptr %36, align 1, !dbg !7200
  %37 = load i32, ptr %5, align 4, !dbg !7201
  store i32 %37, ptr %3, align 4, !dbg !7202
  br label %41, !dbg !7202

38:                                               ; preds = %26
  br label %39, !dbg !7203

39:                                               ; preds = %38, %10, %2
  %40 = call noundef i32 @_ZNSt3__h11char_traitsIcE3eofEv() #14, !dbg !7204
  store i32 %40, ptr %3, align 4, !dbg !7205
  br label %41, !dbg !7205

41:                                               ; preds = %39, %33, %18
  %42 = load i32, ptr %3, align 4, !dbg !7206
  ret i32 %42, !dbg !7206
}

declare noundef i32 @_ZNSt3__h15basic_streambufIcNS_11char_traitsIcEEE6xsputnEPKci(ptr noundef nonnull align 4 dereferenceable(32), ptr noundef, i32 noundef) unnamed_addr #4

; Function Attrs: mustprogress noinline nounwind optnone sspstrong uwtable(sync)
define linkonce_odr noundef i32 @_ZNSt3__h13basic_filebufIcNS_11char_traitsIcEEE8overflowEi(ptr noundef nonnull align 4 dereferenceable(99) %0, i32 noundef %1) unnamed_addr #0 comdat align 2 !dbg !7207 {
  %3 = alloca i32, align 4
  %4 = alloca ptr, align 4
  %5 = alloca i32, align 4
  %6 = alloca i8, align 1
  %7 = alloca ptr, align 4
  %8 = alloca ptr, align 4
  %9 = alloca i32, align 4
  %10 = alloca ptr, align 4
  %11 = alloca i32, align 4
  %12 = alloca ptr, align 4
  %13 = alloca i32, align 4
  %14 = alloca i32, align 4
  store ptr %0, ptr %4, align 4
  call void @llvm.dbg.declare(metadata ptr %4, metadata !7208, metadata !DIExpression()), !dbg !7209
  store i32 %1, ptr %5, align 4
  call void @llvm.dbg.declare(metadata ptr %5, metadata !7210, metadata !DIExpression()), !dbg !7211
  %15 = load ptr, ptr %4, align 4
  %16 = getelementptr inbounds %"class.std::__h::basic_filebuf", ptr %15, i32 0, i32 8, !dbg !7212
  %17 = load ptr, ptr %16, align 4, !dbg !7212
  %18 = icmp eq ptr %17, null, !dbg !7214
  br i1 %18, label %19, label %21, !dbg !7215

19:                                               ; preds = %2
  %20 = call noundef i32 @_ZNSt3__h11char_traitsIcE3eofEv() #14, !dbg !7216
  store i32 %20, ptr %3, align 4, !dbg !7217
  br label %155, !dbg !7217

21:                                               ; preds = %2
  call void @_ZNSt3__h13basic_filebufIcNS_11char_traitsIcEEE12__write_modeEv(ptr noundef nonnull align 4 dereferenceable(99) %15), !dbg !7218
  call void @llvm.dbg.declare(metadata ptr %6, metadata !7219, metadata !DIExpression()), !dbg !7220
  store i8 0, ptr %6, align 1, !dbg !7220, !annotation !6167
  call void @llvm.dbg.declare(metadata ptr %7, metadata !7221, metadata !DIExpression()), !dbg !7222
  store ptr null, ptr %7, align 4, !dbg !7222, !annotation !6167
  %22 = call noundef ptr @_ZNKSt3__h15basic_streambufIcNS_11char_traitsIcEEE5pbaseB6v15004Ev(ptr noundef nonnull align 4 dereferenceable(32) %15), !dbg !7223
  store ptr %22, ptr %7, align 4, !dbg !7222
  call void @llvm.dbg.declare(metadata ptr %8, metadata !7224, metadata !DIExpression()), !dbg !7225
  store ptr null, ptr %8, align 4, !dbg !7225, !annotation !6167
  %23 = call noundef ptr @_ZNKSt3__h15basic_streambufIcNS_11char_traitsIcEEE5epptrB6v15004Ev(ptr noundef nonnull align 4 dereferenceable(32) %15), !dbg !7226
  store ptr %23, ptr %8, align 4, !dbg !7225
  %24 = load i32, ptr %5, align 4, !dbg !7227
  %25 = call noundef i32 @_ZNSt3__h11char_traitsIcE3eofEv() #14, !dbg !7229
  %26 = call noundef zeroext i1 @_ZNSt3__h11char_traitsIcE11eq_int_typeEii(i32 noundef %24, i32 noundef %25) #14, !dbg !7230
  br i1 %26, label %36, label %27, !dbg !7231

27:                                               ; preds = %21
  %28 = call noundef ptr @_ZNKSt3__h15basic_streambufIcNS_11char_traitsIcEEE4pptrB6v15004Ev(ptr noundef nonnull align 4 dereferenceable(32) %15), !dbg !7232
  %29 = icmp eq ptr %28, null, !dbg !7235
  br i1 %29, label %30, label %32, !dbg !7236

30:                                               ; preds = %27
  %31 = getelementptr inbounds i8, ptr %6, i32 1, !dbg !7237
  call void @_ZNSt3__h15basic_streambufIcNS_11char_traitsIcEEE4setpB6v15004EPcS4_(ptr noundef nonnull align 4 dereferenceable(32) %15, ptr noundef %6, ptr noundef %31), !dbg !7238
  br label %32, !dbg !7239

32:                                               ; preds = %30, %27
  %33 = load i32, ptr %5, align 4, !dbg !7240
  %34 = call noundef zeroext i8 @_ZNSt3__h11char_traitsIcE12to_char_typeEi(i32 noundef %33) #14, !dbg !7241
  %35 = call noundef ptr @_ZNKSt3__h15basic_streambufIcNS_11char_traitsIcEEE4pptrB6v15004Ev(ptr noundef nonnull align 4 dereferenceable(32) %15), !dbg !7242
  store i8 %34, ptr %35, align 1, !dbg !7243
  call void @_ZNSt3__h15basic_streambufIcNS_11char_traitsIcEEE5pbumpB6v15004Ei(ptr noundef nonnull align 4 dereferenceable(32) %15, i32 noundef 1), !dbg !7244
  br label %36, !dbg !7245

36:                                               ; preds = %32, %21
  %37 = call noundef ptr @_ZNKSt3__h15basic_streambufIcNS_11char_traitsIcEEE4pptrB6v15004Ev(ptr noundef nonnull align 4 dereferenceable(32) %15), !dbg !7246
  %38 = call noundef ptr @_ZNKSt3__h15basic_streambufIcNS_11char_traitsIcEEE5pbaseB6v15004Ev(ptr noundef nonnull align 4 dereferenceable(32) %15), !dbg !7248
  %39 = icmp ne ptr %37, %38, !dbg !7249
  br i1 %39, label %40, label %152, !dbg !7250

40:                                               ; preds = %36
  %41 = getelementptr inbounds %"class.std::__h::basic_filebuf", ptr %15, i32 0, i32 16, !dbg !7251
  %42 = load i8, ptr %41, align 2, !dbg !7251
  %43 = trunc i8 %42 to i1, !dbg !7251
  br i1 %43, label %44, label %60, !dbg !7254

44:                                               ; preds = %40
  call void @llvm.dbg.declare(metadata ptr %9, metadata !7255, metadata !DIExpression()), !dbg !7257
  store i32 0, ptr %9, align 4, !dbg !7257, !annotation !6167
  %45 = call noundef ptr @_ZNKSt3__h15basic_streambufIcNS_11char_traitsIcEEE4pptrB6v15004Ev(ptr noundef nonnull align 4 dereferenceable(32) %15), !dbg !7258
  %46 = call noundef ptr @_ZNKSt3__h15basic_streambufIcNS_11char_traitsIcEEE5pbaseB6v15004Ev(ptr noundef nonnull align 4 dereferenceable(32) %15), !dbg !7259
  %47 = ptrtoint ptr %45 to i32, !dbg !7260
  %48 = ptrtoint ptr %46 to i32, !dbg !7260
  %49 = sub i32 %47, %48, !dbg !7260
  store i32 %49, ptr %9, align 4, !dbg !7257
  %50 = call noundef ptr @_ZNKSt3__h15basic_streambufIcNS_11char_traitsIcEEE5pbaseB6v15004Ev(ptr noundef nonnull align 4 dereferenceable(32) %15), !dbg !7261
  %51 = load i32, ptr %9, align 4, !dbg !7263
  %52 = getelementptr inbounds %"class.std::__h::basic_filebuf", ptr %15, i32 0, i32 8, !dbg !7264
  %53 = load ptr, ptr %52, align 4, !dbg !7264
  %54 = call i32 @fwrite(ptr noundef %50, i32 noundef 1, i32 noundef %51, ptr noundef %53), !dbg !7265
  %55 = load i32, ptr %9, align 4, !dbg !7266
  %56 = icmp ne i32 %54, %55, !dbg !7267
  br i1 %56, label %57, label %59, !dbg !7268

57:                                               ; preds = %44
  %58 = call noundef i32 @_ZNSt3__h11char_traitsIcE3eofEv() #14, !dbg !7269
  store i32 %58, ptr %3, align 4, !dbg !7270
  br label %155, !dbg !7270

59:                                               ; preds = %44
  br label %149, !dbg !7271

60:                                               ; preds = %40
  call void @llvm.dbg.declare(metadata ptr %10, metadata !7272, metadata !DIExpression()), !dbg !7274
  store ptr null, ptr %10, align 4, !dbg !7274, !annotation !6167
  %61 = getelementptr inbounds %"class.std::__h::basic_filebuf", ptr %15, i32 0, i32 1, !dbg !7275
  %62 = load ptr, ptr %61, align 4, !dbg !7275
  store ptr %62, ptr %10, align 4, !dbg !7274
  call void @llvm.dbg.declare(metadata ptr %11, metadata !7276, metadata !DIExpression()), !dbg !7277
  store i32 0, ptr %11, align 4, !dbg !7277, !annotation !6167
  br label %63, !dbg !7278

63:                                               ; preds = %145, %60
  %64 = getelementptr inbounds %"class.std::__h::basic_filebuf", ptr %15, i32 0, i32 9, !dbg !7279
  %65 = load ptr, ptr %64, align 4, !dbg !7279
  %66 = icmp ne ptr %65, null, !dbg !7279
  br i1 %66, label %68, label %67, !dbg !7282

67:                                               ; preds = %63
  call void @_ZNSt3__h16__throw_bad_castB6v15004Ev() #17, !dbg !7283
  unreachable, !dbg !7283

68:                                               ; preds = %63
  call void @llvm.dbg.declare(metadata ptr %12, metadata !7284, metadata !DIExpression()), !dbg !7287
  store ptr null, ptr %12, align 4, !dbg !7287, !annotation !6167
  %69 = getelementptr inbounds %"class.std::__h::basic_filebuf", ptr %15, i32 0, i32 9, !dbg !7288
  %70 = load ptr, ptr %69, align 4, !dbg !7288
  %71 = getelementptr inbounds %"class.std::__h::basic_filebuf", ptr %15, i32 0, i32 10, !dbg !7289
  %72 = call noundef ptr @_ZNKSt3__h15basic_streambufIcNS_11char_traitsIcEEE5pbaseB6v15004Ev(ptr noundef nonnull align 4 dereferenceable(32) %15), !dbg !7290
  %73 = call noundef ptr @_ZNKSt3__h15basic_streambufIcNS_11char_traitsIcEEE4pptrB6v15004Ev(ptr noundef nonnull align 4 dereferenceable(32) %15), !dbg !7291
  %74 = getelementptr inbounds %"class.std::__h::basic_filebuf", ptr %15, i32 0, i32 1, !dbg !7292
  %75 = load ptr, ptr %74, align 4, !dbg !7292
  %76 = getelementptr inbounds %"class.std::__h::basic_filebuf", ptr %15, i32 0, i32 1, !dbg !7293
  %77 = load ptr, ptr %76, align 4, !dbg !7293
  %78 = getelementptr inbounds %"class.std::__h::basic_filebuf", ptr %15, i32 0, i32 5, !dbg !7294
  %79 = load i32, ptr %78, align 4, !dbg !7294
  %80 = getelementptr inbounds i8, ptr %77, i32 %79, !dbg !7295
  %81 = call noundef i32 @_ZNKSt3__h7codecvtIcc11__mbstate_tE3outB6v15004ERS1_PKcS5_RS5_PcS7_RS7_(ptr noundef nonnull align 4 dereferenceable(8) %70, ptr noundef nonnull align 4 dereferenceable(8) %71, ptr noundef %72, ptr noundef %73, ptr noundef nonnull align 4 dereferenceable(4) %12, ptr noundef %75, ptr noundef %80, ptr noundef nonnull align 4 dereferenceable(4) %10), !dbg !7296
  store i32 %81, ptr %11, align 4, !dbg !7297
  %82 = load ptr, ptr %12, align 4, !dbg !7298
  %83 = call noundef ptr @_ZNKSt3__h15basic_streambufIcNS_11char_traitsIcEEE5pbaseB6v15004Ev(ptr noundef nonnull align 4 dereferenceable(32) %15), !dbg !7300
  %84 = icmp eq ptr %82, %83, !dbg !7301
  br i1 %84, label %85, label %87, !dbg !7302

85:                                               ; preds = %68
  %86 = call noundef i32 @_ZNSt3__h11char_traitsIcE3eofEv() #14, !dbg !7303
  store i32 %86, ptr %3, align 4, !dbg !7304
  br label %155, !dbg !7304

87:                                               ; preds = %68
  %88 = load i32, ptr %11, align 4, !dbg !7305
  %89 = icmp eq i32 %88, 3, !dbg !7307
  br i1 %89, label %90, label %106, !dbg !7308

90:                                               ; preds = %87
  call void @llvm.dbg.declare(metadata ptr %13, metadata !7309, metadata !DIExpression()), !dbg !7311
  store i32 0, ptr %13, align 4, !dbg !7311, !annotation !6167
  %91 = call noundef ptr @_ZNKSt3__h15basic_streambufIcNS_11char_traitsIcEEE4pptrB6v15004Ev(ptr noundef nonnull align 4 dereferenceable(32) %15), !dbg !7312
  %92 = call noundef ptr @_ZNKSt3__h15basic_streambufIcNS_11char_traitsIcEEE5pbaseB6v15004Ev(ptr noundef nonnull align 4 dereferenceable(32) %15), !dbg !7313
  %93 = ptrtoint ptr %91 to i32, !dbg !7314
  %94 = ptrtoint ptr %92 to i32, !dbg !7314
  %95 = sub i32 %93, %94, !dbg !7314
  store i32 %95, ptr %13, align 4, !dbg !7311
  %96 = call noundef ptr @_ZNKSt3__h15basic_streambufIcNS_11char_traitsIcEEE5pbaseB6v15004Ev(ptr noundef nonnull align 4 dereferenceable(32) %15), !dbg !7315
  %97 = load i32, ptr %13, align 4, !dbg !7317
  %98 = getelementptr inbounds %"class.std::__h::basic_filebuf", ptr %15, i32 0, i32 8, !dbg !7318
  %99 = load ptr, ptr %98, align 4, !dbg !7318
  %100 = call i32 @fwrite(ptr noundef %96, i32 noundef 1, i32 noundef %97, ptr noundef %99), !dbg !7319
  %101 = load i32, ptr %13, align 4, !dbg !7320
  %102 = icmp ne i32 %100, %101, !dbg !7321
  br i1 %102, label %103, label %105, !dbg !7322

103:                                              ; preds = %90
  %104 = call noundef i32 @_ZNSt3__h11char_traitsIcE3eofEv() #14, !dbg !7323
  store i32 %104, ptr %3, align 4, !dbg !7324
  br label %155, !dbg !7324

105:                                              ; preds = %90
  br label %144, !dbg !7325

106:                                              ; preds = %87
  %107 = load i32, ptr %11, align 4, !dbg !7326
  %108 = icmp eq i32 %107, 0, !dbg !7328
  br i1 %108, label %112, label %109, !dbg !7329

109:                                              ; preds = %106
  %110 = load i32, ptr %11, align 4, !dbg !7330
  %111 = icmp eq i32 %110, 1, !dbg !7331
  br i1 %111, label %112, label %141, !dbg !7332

112:                                              ; preds = %109, %106
  call void @llvm.dbg.declare(metadata ptr %14, metadata !7333, metadata !DIExpression()), !dbg !7335
  store i32 0, ptr %14, align 4, !dbg !7335, !annotation !6167
  %113 = load ptr, ptr %10, align 4, !dbg !7336
  %114 = getelementptr inbounds %"class.std::__h::basic_filebuf", ptr %15, i32 0, i32 1, !dbg !7337
  %115 = load ptr, ptr %114, align 4, !dbg !7337
  %116 = ptrtoint ptr %113 to i32, !dbg !7338
  %117 = ptrtoint ptr %115 to i32, !dbg !7338
  %118 = sub i32 %116, %117, !dbg !7338
  store i32 %118, ptr %14, align 4, !dbg !7335
  %119 = getelementptr inbounds %"class.std::__h::basic_filebuf", ptr %15, i32 0, i32 1, !dbg !7339
  %120 = load ptr, ptr %119, align 4, !dbg !7339
  %121 = load i32, ptr %14, align 4, !dbg !7341
  %122 = getelementptr inbounds %"class.std::__h::basic_filebuf", ptr %15, i32 0, i32 8, !dbg !7342
  %123 = load ptr, ptr %122, align 4, !dbg !7342
  %124 = call i32 @fwrite(ptr noundef %120, i32 noundef 1, i32 noundef %121, ptr noundef %123), !dbg !7343
  %125 = load i32, ptr %14, align 4, !dbg !7344
  %126 = icmp ne i32 %124, %125, !dbg !7345
  br i1 %126, label %127, label %129, !dbg !7346

127:                                              ; preds = %112
  %128 = call noundef i32 @_ZNSt3__h11char_traitsIcE3eofEv() #14, !dbg !7347
  store i32 %128, ptr %3, align 4, !dbg !7348
  br label %155, !dbg !7348

129:                                              ; preds = %112
  %130 = load i32, ptr %11, align 4, !dbg !7349
  %131 = icmp eq i32 %130, 1, !dbg !7351
  br i1 %131, label %132, label %140, !dbg !7352

132:                                              ; preds = %129
  %133 = load ptr, ptr %12, align 4, !dbg !7353
  %134 = call noundef ptr @_ZNKSt3__h15basic_streambufIcNS_11char_traitsIcEEE4pptrB6v15004Ev(ptr noundef nonnull align 4 dereferenceable(32) %15), !dbg !7355
  call void @_ZNSt3__h15basic_streambufIcNS_11char_traitsIcEEE4setpB6v15004EPcS4_(ptr noundef nonnull align 4 dereferenceable(32) %15, ptr noundef %133, ptr noundef %134), !dbg !7356
  %135 = call noundef ptr @_ZNKSt3__h15basic_streambufIcNS_11char_traitsIcEEE5epptrB6v15004Ev(ptr noundef nonnull align 4 dereferenceable(32) %15), !dbg !7357
  %136 = call noundef ptr @_ZNKSt3__h15basic_streambufIcNS_11char_traitsIcEEE5pbaseB6v15004Ev(ptr noundef nonnull align 4 dereferenceable(32) %15), !dbg !7358
  %137 = ptrtoint ptr %135 to i32, !dbg !7359
  %138 = ptrtoint ptr %136 to i32, !dbg !7359
  %139 = sub i32 %137, %138, !dbg !7359
  call void @_ZNSt3__h15basic_streambufIcNS_11char_traitsIcEEE7__pbumpB6v15004Ei(ptr noundef nonnull align 4 dereferenceable(32) %15, i32 noundef %139), !dbg !7360
  br label %140, !dbg !7361

140:                                              ; preds = %132, %129
  br label %143, !dbg !7362

141:                                              ; preds = %109
  %142 = call noundef i32 @_ZNSt3__h11char_traitsIcE3eofEv() #14, !dbg !7363
  store i32 %142, ptr %3, align 4, !dbg !7364
  br label %155, !dbg !7364

143:                                              ; preds = %140
  br label %144

144:                                              ; preds = %143, %105
  br label %145, !dbg !7365

145:                                              ; preds = %144
  %146 = load i32, ptr %11, align 4, !dbg !7366
  %147 = icmp eq i32 %146, 1, !dbg !7367
  br i1 %147, label %63, label %148, !dbg !7365, !llvm.loop !7368

148:                                              ; preds = %145
  br label %149

149:                                              ; preds = %148, %59
  %150 = load ptr, ptr %7, align 4, !dbg !7370
  %151 = load ptr, ptr %8, align 4, !dbg !7371
  call void @_ZNSt3__h15basic_streambufIcNS_11char_traitsIcEEE4setpB6v15004EPcS4_(ptr noundef nonnull align 4 dereferenceable(32) %15, ptr noundef %150, ptr noundef %151), !dbg !7372
  br label %152, !dbg !7373

152:                                              ; preds = %149, %36
  %153 = load i32, ptr %5, align 4, !dbg !7374
  %154 = call noundef i32 @_ZNSt3__h11char_traitsIcE7not_eofEi(i32 noundef %153) #14, !dbg !7375
  store i32 %154, ptr %3, align 4, !dbg !7376
  br label %155, !dbg !7376

155:                                              ; preds = %152, %141, %127, %103, %85, %57, %19
  %156 = load i32, ptr %3, align 4, !dbg !7377
  ret i32 %156, !dbg !7377
}

; Function Attrs: mustprogress noinline nounwind optnone sspstrong uwtable(sync)
define linkonce_odr hidden noundef i32 @_ZNSt3__h11char_traitsIcE3eofEv() #0 comdat align 2 !dbg !7378 {
  ret i32 -1, !dbg !7379
}

; Function Attrs: mustprogress noinline nounwind optnone sspstrong uwtable(sync)
define linkonce_odr void @_ZNSt3__h13basic_filebufIcNS_11char_traitsIcEEE12__write_modeEv(ptr noundef nonnull align 4 dereferenceable(99) %0) #0 comdat align 2 !dbg !7380 {
  %2 = alloca ptr, align 4
  store ptr %0, ptr %2, align 4
  call void @llvm.dbg.declare(metadata ptr %2, metadata !7381, metadata !DIExpression()), !dbg !7382
  %3 = load ptr, ptr %2, align 4
  %4 = getelementptr inbounds %"class.std::__h::basic_filebuf", ptr %3, i32 0, i32 13, !dbg !7383
  %5 = load i32, ptr %4, align 4, !dbg !7383
  %6 = and i32 %5, 16, !dbg !7385
  %7 = icmp ne i32 %6, 0, !dbg !7386
  br i1 %7, label %38, label %8, !dbg !7387

8:                                                ; preds = %1
  call void @_ZNSt3__h15basic_streambufIcNS_11char_traitsIcEEE4setgB6v15004EPcS4_S4_(ptr noundef nonnull align 4 dereferenceable(32) %3, ptr noundef null, ptr noundef null, ptr noundef null), !dbg !7388
  %9 = getelementptr inbounds %"class.std::__h::basic_filebuf", ptr %3, i32 0, i32 5, !dbg !7390
  %10 = load i32, ptr %9, align 4, !dbg !7390
  %11 = icmp ugt i32 %10, 8, !dbg !7392
  br i1 %11, label %12, label %35, !dbg !7393

12:                                               ; preds = %8
  %13 = getelementptr inbounds %"class.std::__h::basic_filebuf", ptr %3, i32 0, i32 16, !dbg !7394
  %14 = load i8, ptr %13, align 2, !dbg !7394
  %15 = trunc i8 %14 to i1, !dbg !7394
  br i1 %15, label %16, label %25, !dbg !7397

16:                                               ; preds = %12
  %17 = getelementptr inbounds %"class.std::__h::basic_filebuf", ptr %3, i32 0, i32 1, !dbg !7398
  %18 = load ptr, ptr %17, align 4, !dbg !7398
  %19 = getelementptr inbounds %"class.std::__h::basic_filebuf", ptr %3, i32 0, i32 1, !dbg !7399
  %20 = load ptr, ptr %19, align 4, !dbg !7399
  %21 = getelementptr inbounds %"class.std::__h::basic_filebuf", ptr %3, i32 0, i32 5, !dbg !7400
  %22 = load i32, ptr %21, align 4, !dbg !7400
  %23 = sub i32 %22, 1, !dbg !7401
  %24 = getelementptr inbounds i8, ptr %20, i32 %23, !dbg !7402
  call void @_ZNSt3__h15basic_streambufIcNS_11char_traitsIcEEE4setpB6v15004EPcS4_(ptr noundef nonnull align 4 dereferenceable(32) %3, ptr noundef %18, ptr noundef %24), !dbg !7403
  br label %34, !dbg !7404

25:                                               ; preds = %12
  %26 = getelementptr inbounds %"class.std::__h::basic_filebuf", ptr %3, i32 0, i32 6, !dbg !7405
  %27 = load ptr, ptr %26, align 4, !dbg !7405
  %28 = getelementptr inbounds %"class.std::__h::basic_filebuf", ptr %3, i32 0, i32 6, !dbg !7406
  %29 = load ptr, ptr %28, align 4, !dbg !7406
  %30 = getelementptr inbounds %"class.std::__h::basic_filebuf", ptr %3, i32 0, i32 7, !dbg !7407
  %31 = load i32, ptr %30, align 4, !dbg !7407
  %32 = sub i32 %31, 1, !dbg !7408
  %33 = getelementptr inbounds i8, ptr %29, i32 %32, !dbg !7409
  call void @_ZNSt3__h15basic_streambufIcNS_11char_traitsIcEEE4setpB6v15004EPcS4_(ptr noundef nonnull align 4 dereferenceable(32) %3, ptr noundef %27, ptr noundef %33), !dbg !7410
  br label %34

34:                                               ; preds = %25, %16
  br label %36, !dbg !7411

35:                                               ; preds = %8
  call void @_ZNSt3__h15basic_streambufIcNS_11char_traitsIcEEE4setpB6v15004EPcS4_(ptr noundef nonnull align 4 dereferenceable(32) %3, ptr noundef null, ptr noundef null), !dbg !7412
  br label %36

36:                                               ; preds = %35, %34
  %37 = getelementptr inbounds %"class.std::__h::basic_filebuf", ptr %3, i32 0, i32 13, !dbg !7413
  store i32 16, ptr %37, align 4, !dbg !7414
  br label %38, !dbg !7415

38:                                               ; preds = %36, %1
  ret void, !dbg !7416
}

; Function Attrs: mustprogress noinline nounwind optnone sspstrong uwtable(sync)
define linkonce_odr hidden noundef ptr @_ZNKSt3__h15basic_streambufIcNS_11char_traitsIcEEE5pbaseB6v15004Ev(ptr noundef nonnull align 4 dereferenceable(32) %0) #0 comdat align 2 !dbg !7417 {
  %2 = alloca ptr, align 4
  store ptr %0, ptr %2, align 4
  call void @llvm.dbg.declare(metadata ptr %2, metadata !7425, metadata !DIExpression()), !dbg !7427
  %3 = load ptr, ptr %2, align 4
  %4 = getelementptr inbounds %"class.std::__h::basic_streambuf", ptr %3, i32 0, i32 5, !dbg !7428
  %5 = load ptr, ptr %4, align 4, !dbg !7428
  ret ptr %5, !dbg !7429
}

; Function Attrs: mustprogress noinline nounwind optnone sspstrong uwtable(sync)
define linkonce_odr hidden noundef ptr @_ZNKSt3__h15basic_streambufIcNS_11char_traitsIcEEE5epptrB6v15004Ev(ptr noundef nonnull align 4 dereferenceable(32) %0) #0 comdat align 2 !dbg !7430 {
  %2 = alloca ptr, align 4
  store ptr %0, ptr %2, align 4
  call void @llvm.dbg.declare(metadata ptr %2, metadata !7432, metadata !DIExpression()), !dbg !7433
  %3 = load ptr, ptr %2, align 4
  %4 = getelementptr inbounds %"class.std::__h::basic_streambuf", ptr %3, i32 0, i32 7, !dbg !7434
  %5 = load ptr, ptr %4, align 4, !dbg !7434
  ret ptr %5, !dbg !7435
}

; Function Attrs: mustprogress noinline nounwind optnone sspstrong uwtable(sync)
define linkonce_odr hidden noundef zeroext i1 @_ZNSt3__h11char_traitsIcE11eq_int_typeEii(i32 noundef %0, i32 noundef %1) #0 comdat align 2 !dbg !7436 {
  %3 = alloca i32, align 4
  %4 = alloca i32, align 4
  store i32 %0, ptr %3, align 4
  call void @llvm.dbg.declare(metadata ptr %3, metadata !7437, metadata !DIExpression()), !dbg !7438
  store i32 %1, ptr %4, align 4
  call void @llvm.dbg.declare(metadata ptr %4, metadata !7439, metadata !DIExpression()), !dbg !7440
  %5 = load i32, ptr %3, align 4, !dbg !7441
  %6 = load i32, ptr %4, align 4, !dbg !7442
  %7 = icmp eq i32 %5, %6, !dbg !7443
  ret i1 %7, !dbg !7444
}

; Function Attrs: mustprogress noinline nounwind optnone sspstrong uwtable(sync)
define linkonce_odr hidden noundef ptr @_ZNKSt3__h15basic_streambufIcNS_11char_traitsIcEEE4pptrB6v15004Ev(ptr noundef nonnull align 4 dereferenceable(32) %0) #0 comdat align 2 !dbg !7445 {
  %2 = alloca ptr, align 4
  store ptr %0, ptr %2, align 4
  call void @llvm.dbg.declare(metadata ptr %2, metadata !7447, metadata !DIExpression()), !dbg !7448
  %3 = load ptr, ptr %2, align 4
  %4 = getelementptr inbounds %"class.std::__h::basic_streambuf", ptr %3, i32 0, i32 6, !dbg !7449
  %5 = load ptr, ptr %4, align 4, !dbg !7449
  ret ptr %5, !dbg !7450
}

; Function Attrs: mustprogress noinline nounwind optnone sspstrong uwtable(sync)
define linkonce_odr hidden void @_ZNSt3__h15basic_streambufIcNS_11char_traitsIcEEE4setpB6v15004EPcS4_(ptr noundef nonnull align 4 dereferenceable(32) %0, ptr noundef %1, ptr noundef %2) #0 comdat align 2 !dbg !7451 {
  %4 = alloca ptr, align 4
  %5 = alloca ptr, align 4
  %6 = alloca ptr, align 4
  store ptr %0, ptr %4, align 4
  call void @llvm.dbg.declare(metadata ptr %4, metadata !7456, metadata !DIExpression()), !dbg !7457
  store ptr %1, ptr %5, align 4
  call void @llvm.dbg.declare(metadata ptr %5, metadata !7458, metadata !DIExpression()), !dbg !7459
  store ptr %2, ptr %6, align 4
  call void @llvm.dbg.declare(metadata ptr %6, metadata !7460, metadata !DIExpression()), !dbg !7461
  %7 = load ptr, ptr %4, align 4
  %8 = load ptr, ptr %5, align 4, !dbg !7462
  %9 = getelementptr inbounds %"class.std::__h::basic_streambuf", ptr %7, i32 0, i32 6, !dbg !7463
  store ptr %8, ptr %9, align 4, !dbg !7464
  %10 = getelementptr inbounds %"class.std::__h::basic_streambuf", ptr %7, i32 0, i32 5, !dbg !7465
  store ptr %8, ptr %10, align 4, !dbg !7466
  %11 = load ptr, ptr %6, align 4, !dbg !7467
  %12 = getelementptr inbounds %"class.std::__h::basic_streambuf", ptr %7, i32 0, i32 7, !dbg !7468
  store ptr %11, ptr %12, align 4, !dbg !7469
  ret void, !dbg !7470
}

; Function Attrs: mustprogress noinline nounwind optnone sspstrong uwtable(sync)
define linkonce_odr hidden noundef zeroext i8 @_ZNSt3__h11char_traitsIcE12to_char_typeEi(i32 noundef %0) #0 comdat align 2 !dbg !7471 {
  %2 = alloca i32, align 4
  store i32 %0, ptr %2, align 4
  call void @llvm.dbg.declare(metadata ptr %2, metadata !7472, metadata !DIExpression()), !dbg !7473
  %3 = load i32, ptr %2, align 4, !dbg !7474
  %4 = trunc i32 %3 to i8, !dbg !7474
  ret i8 %4, !dbg !7475
}

; Function Attrs: mustprogress noinline nounwind optnone sspstrong uwtable(sync)
define linkonce_odr hidden void @_ZNSt3__h15basic_streambufIcNS_11char_traitsIcEEE5pbumpB6v15004Ei(ptr noundef nonnull align 4 dereferenceable(32) %0, i32 noundef %1) #0 comdat align 2 !dbg !7476 {
  %3 = alloca ptr, align 4
  %4 = alloca i32, align 4
  store ptr %0, ptr %3, align 4
  call void @llvm.dbg.declare(metadata ptr %3, metadata !7480, metadata !DIExpression()), !dbg !7481
  store i32 %1, ptr %4, align 4
  call void @llvm.dbg.declare(metadata ptr %4, metadata !7482, metadata !DIExpression()), !dbg !7483
  %5 = load ptr, ptr %3, align 4
  %6 = load i32, ptr %4, align 4, !dbg !7484
  %7 = getelementptr inbounds %"class.std::__h::basic_streambuf", ptr %5, i32 0, i32 6, !dbg !7485
  %8 = load ptr, ptr %7, align 4, !dbg !7486
  %9 = getelementptr inbounds i8, ptr %8, i32 %6, !dbg !7486
  store ptr %9, ptr %7, align 4, !dbg !7486
  ret void, !dbg !7487
}

declare i32 @fwrite(ptr noundef, i32 noundef, i32 noundef, ptr noundef) #4

; Function Attrs: mustprogress noinline noreturn nounwind optnone sspstrong uwtable(sync)
define linkonce_odr hidden void @_ZNSt3__h16__throw_bad_castB6v15004Ev() #7 comdat !dbg !7488 {
  call void @abort() #17, !dbg !7490
  unreachable, !dbg !7490
}

; Function Attrs: mustprogress noinline nounwind optnone sspstrong uwtable(sync)
define linkonce_odr hidden noundef i32 @_ZNKSt3__h7codecvtIcc11__mbstate_tE3outB6v15004ERS1_PKcS5_RS5_PcS7_RS7_(ptr noundef nonnull align 4 dereferenceable(8) %0, ptr noundef nonnull align 4 dereferenceable(8) %1, ptr noundef %2, ptr noundef %3, ptr noundef nonnull align 4 dereferenceable(4) %4, ptr noundef %5, ptr noundef %6, ptr noundef nonnull align 4 dereferenceable(4) %7) #0 comdat align 2 !dbg !7491 {
  %9 = alloca ptr, align 4
  %10 = alloca ptr, align 4
  %11 = alloca ptr, align 4
  %12 = alloca ptr, align 4
  %13 = alloca ptr, align 4
  %14 = alloca ptr, align 4
  %15 = alloca ptr, align 4
  %16 = alloca ptr, align 4
  store ptr %0, ptr %9, align 4
  call void @llvm.dbg.declare(metadata ptr %9, metadata !7505, metadata !DIExpression()), !dbg !7506
  store ptr %1, ptr %10, align 4
  call void @llvm.dbg.declare(metadata ptr %10, metadata !7507, metadata !DIExpression()), !dbg !7508
  store ptr %2, ptr %11, align 4
  call void @llvm.dbg.declare(metadata ptr %11, metadata !7509, metadata !DIExpression()), !dbg !7510
  store ptr %3, ptr %12, align 4
  call void @llvm.dbg.declare(metadata ptr %12, metadata !7511, metadata !DIExpression()), !dbg !7512
  store ptr %4, ptr %13, align 4
  call void @llvm.dbg.declare(metadata ptr %13, metadata !7513, metadata !DIExpression()), !dbg !7514
  store ptr %5, ptr %14, align 4
  call void @llvm.dbg.declare(metadata ptr %14, metadata !7515, metadata !DIExpression()), !dbg !7516
  store ptr %6, ptr %15, align 4
  call void @llvm.dbg.declare(metadata ptr %15, metadata !7517, metadata !DIExpression()), !dbg !7518
  store ptr %7, ptr %16, align 4
  call void @llvm.dbg.declare(metadata ptr %16, metadata !7519, metadata !DIExpression()), !dbg !7520
  %17 = load ptr, ptr %9, align 4
  %18 = load ptr, ptr %10, align 4, !dbg !7521
  %19 = load ptr, ptr %11, align 4, !dbg !7522
  %20 = load ptr, ptr %12, align 4, !dbg !7523
  %21 = load ptr, ptr %13, align 4, !dbg !7524
  %22 = load ptr, ptr %14, align 4, !dbg !7525
  %23 = load ptr, ptr %15, align 4, !dbg !7526
  %24 = load ptr, ptr %16, align 4, !dbg !7527
  %25 = load ptr, ptr %17, align 4, !dbg !7528
  %26 = getelementptr inbounds ptr, ptr %25, i64 3, !dbg !7528
  %27 = load ptr, ptr %26, align 4, !dbg !7528
  %28 = call noundef i32 %27(ptr noundef nonnull align 4 dereferenceable(8) %17, ptr noundef nonnull align 4 dereferenceable(8) %18, ptr noundef %19, ptr noundef %20, ptr noundef nonnull align 4 dereferenceable(4) %21, ptr noundef %22, ptr noundef %23, ptr noundef nonnull align 4 dereferenceable(4) %24), !dbg !7528
  ret i32 %28, !dbg !7529
}

; Function Attrs: mustprogress noinline nounwind optnone sspstrong uwtable(sync)
define linkonce_odr hidden void @_ZNSt3__h15basic_streambufIcNS_11char_traitsIcEEE7__pbumpB6v15004Ei(ptr noundef nonnull align 4 dereferenceable(32) %0, i32 noundef %1) #0 comdat align 2 !dbg !7530 {
  %3 = alloca ptr, align 4
  %4 = alloca i32, align 4
  store ptr %0, ptr %3, align 4
  call void @llvm.dbg.declare(metadata ptr %3, metadata !7534, metadata !DIExpression()), !dbg !7535
  store i32 %1, ptr %4, align 4
  call void @llvm.dbg.declare(metadata ptr %4, metadata !7536, metadata !DIExpression()), !dbg !7537
  %5 = load ptr, ptr %3, align 4
  %6 = load i32, ptr %4, align 4, !dbg !7538
  %7 = getelementptr inbounds %"class.std::__h::basic_streambuf", ptr %5, i32 0, i32 6, !dbg !7539
  %8 = load ptr, ptr %7, align 4, !dbg !7540
  %9 = getelementptr inbounds i8, ptr %8, i32 %6, !dbg !7540
  store ptr %9, ptr %7, align 4, !dbg !7540
  ret void, !dbg !7541
}

; Function Attrs: mustprogress noinline nounwind optnone sspstrong uwtable(sync)
define linkonce_odr hidden noundef i32 @_ZNSt3__h11char_traitsIcE7not_eofEi(i32 noundef %0) #0 comdat align 2 !dbg !7542 {
  %2 = alloca i32, align 4
  store i32 %0, ptr %2, align 4
  call void @llvm.dbg.declare(metadata ptr %2, metadata !7543, metadata !DIExpression()), !dbg !7544
  %3 = load i32, ptr %2, align 4, !dbg !7545
  %4 = call noundef i32 @_ZNSt3__h11char_traitsIcE3eofEv() #14, !dbg !7546
  %5 = call noundef zeroext i1 @_ZNSt3__h11char_traitsIcE11eq_int_typeEii(i32 noundef %3, i32 noundef %4) #14, !dbg !7547
  br i1 %5, label %6, label %9, !dbg !7547

6:                                                ; preds = %1
  %7 = call noundef i32 @_ZNSt3__h11char_traitsIcE3eofEv() #14, !dbg !7548
  %8 = xor i32 %7, -1, !dbg !7549
  br label %11, !dbg !7547

9:                                                ; preds = %1
  %10 = load i32, ptr %2, align 4, !dbg !7550
  br label %11, !dbg !7547

11:                                               ; preds = %9, %6
  %12 = phi i32 [ %8, %6 ], [ %10, %9 ], !dbg !7547
  ret i32 %12, !dbg !7551
}

; Function Attrs: noreturn
declare void @abort() #8

; Function Attrs: mustprogress noinline nounwind optnone sspstrong uwtable(sync)
define linkonce_odr hidden void @_ZNSt3__h15basic_streambufIcNS_11char_traitsIcEEE4setgB6v15004EPcS4_S4_(ptr noundef nonnull align 4 dereferenceable(32) %0, ptr noundef %1, ptr noundef %2, ptr noundef %3) #0 comdat align 2 !dbg !7552 {
  %5 = alloca ptr, align 4
  %6 = alloca ptr, align 4
  %7 = alloca ptr, align 4
  %8 = alloca ptr, align 4
  store ptr %0, ptr %5, align 4
  call void @llvm.dbg.declare(metadata ptr %5, metadata !7556, metadata !DIExpression()), !dbg !7557
  store ptr %1, ptr %6, align 4
  call void @llvm.dbg.declare(metadata ptr %6, metadata !7558, metadata !DIExpression()), !dbg !7559
  store ptr %2, ptr %7, align 4
  call void @llvm.dbg.declare(metadata ptr %7, metadata !7560, metadata !DIExpression()), !dbg !7561
  store ptr %3, ptr %8, align 4
  call void @llvm.dbg.declare(metadata ptr %8, metadata !7562, metadata !DIExpression()), !dbg !7563
  %9 = load ptr, ptr %5, align 4
  %10 = load ptr, ptr %6, align 4, !dbg !7564
  %11 = getelementptr inbounds %"class.std::__h::basic_streambuf", ptr %9, i32 0, i32 2, !dbg !7565
  store ptr %10, ptr %11, align 4, !dbg !7566
  %12 = load ptr, ptr %7, align 4, !dbg !7567
  %13 = getelementptr inbounds %"class.std::__h::basic_streambuf", ptr %9, i32 0, i32 3, !dbg !7568
  store ptr %12, ptr %13, align 4, !dbg !7569
  %14 = load ptr, ptr %8, align 4, !dbg !7570
  %15 = getelementptr inbounds %"class.std::__h::basic_streambuf", ptr %9, i32 0, i32 4, !dbg !7571
  store ptr %14, ptr %15, align 4, !dbg !7572
  ret void, !dbg !7573
}

; Function Attrs: mustprogress noinline nounwind optnone sspstrong uwtable(sync)
define linkonce_odr hidden noundef ptr @_ZNKSt3__h15basic_streambufIcNS_11char_traitsIcEEE5ebackB6v15004Ev(ptr noundef nonnull align 4 dereferenceable(32) %0) #0 comdat align 2 !dbg !7574 {
  %2 = alloca ptr, align 4
  store ptr %0, ptr %2, align 4
  call void @llvm.dbg.declare(metadata ptr %2, metadata !7576, metadata !DIExpression()), !dbg !7577
  %3 = load ptr, ptr %2, align 4
  %4 = getelementptr inbounds %"class.std::__h::basic_streambuf", ptr %3, i32 0, i32 2, !dbg !7578
  %5 = load ptr, ptr %4, align 4, !dbg !7578
  ret ptr %5, !dbg !7579
}

; Function Attrs: mustprogress noinline nounwind optnone sspstrong uwtable(sync)
define linkonce_odr hidden noundef ptr @_ZNKSt3__h15basic_streambufIcNS_11char_traitsIcEEE4gptrB6v15004Ev(ptr noundef nonnull align 4 dereferenceable(32) %0) #0 comdat align 2 !dbg !7580 {
  %2 = alloca ptr, align 4
  store ptr %0, ptr %2, align 4
  call void @llvm.dbg.declare(metadata ptr %2, metadata !7582, metadata !DIExpression()), !dbg !7583
  %3 = load ptr, ptr %2, align 4
  %4 = getelementptr inbounds %"class.std::__h::basic_streambuf", ptr %3, i32 0, i32 3, !dbg !7584
  %5 = load ptr, ptr %4, align 4, !dbg !7584
  ret ptr %5, !dbg !7585
}

; Function Attrs: mustprogress noinline nounwind optnone sspstrong uwtable(sync)
define linkonce_odr hidden void @_ZNSt3__h15basic_streambufIcNS_11char_traitsIcEEE5gbumpB6v15004Ei(ptr noundef nonnull align 4 dereferenceable(32) %0, i32 noundef %1) #0 comdat align 2 !dbg !7586 {
  %3 = alloca ptr, align 4
  %4 = alloca i32, align 4
  store ptr %0, ptr %3, align 4
  call void @llvm.dbg.declare(metadata ptr %3, metadata !7588, metadata !DIExpression()), !dbg !7589
  store i32 %1, ptr %4, align 4
  call void @llvm.dbg.declare(metadata ptr %4, metadata !7590, metadata !DIExpression()), !dbg !7591
  %5 = load ptr, ptr %3, align 4
  %6 = load i32, ptr %4, align 4, !dbg !7592
  %7 = getelementptr inbounds %"class.std::__h::basic_streambuf", ptr %5, i32 0, i32 3, !dbg !7593
  %8 = load ptr, ptr %7, align 4, !dbg !7594
  %9 = getelementptr inbounds i8, ptr %8, i32 %6, !dbg !7594
  store ptr %9, ptr %7, align 4, !dbg !7594
  ret void, !dbg !7595
}

; Function Attrs: mustprogress noinline nounwind optnone sspstrong uwtable(sync)
define linkonce_odr hidden noundef zeroext i1 @_ZNSt3__h11char_traitsIcE2eqEcc(i8 noundef zeroext %0, i8 noundef zeroext %1) #0 comdat align 2 !dbg !7596 {
  %3 = alloca i8, align 1
  %4 = alloca i8, align 1
  store i8 %0, ptr %3, align 1
  call void @llvm.dbg.declare(metadata ptr %3, metadata !7597, metadata !DIExpression()), !dbg !7598
  store i8 %1, ptr %4, align 1
  call void @llvm.dbg.declare(metadata ptr %4, metadata !7599, metadata !DIExpression()), !dbg !7600
  %5 = load i8, ptr %3, align 1, !dbg !7601
  %6 = zext i8 %5 to i32, !dbg !7601
  %7 = load i8, ptr %4, align 1, !dbg !7602
  %8 = zext i8 %7 to i32, !dbg !7602
  %9 = icmp eq i32 %6, %8, !dbg !7603
  ret i1 %9, !dbg !7604
}

; Function Attrs: mustprogress noinline nounwind optnone sspstrong uwtable(sync)
define linkonce_odr noundef zeroext i1 @_ZNSt3__h13basic_filebufIcNS_11char_traitsIcEEE11__read_modeEv(ptr noundef nonnull align 4 dereferenceable(99) %0) #0 comdat align 2 !dbg !7605 {
  %2 = alloca i1, align 1
  %3 = alloca ptr, align 4
  store ptr %0, ptr %3, align 4
  call void @llvm.dbg.declare(metadata ptr %3, metadata !7606, metadata !DIExpression()), !dbg !7607
  %4 = load ptr, ptr %3, align 4
  %5 = getelementptr inbounds %"class.std::__h::basic_filebuf", ptr %4, i32 0, i32 13, !dbg !7608
  %6 = load i32, ptr %5, align 4, !dbg !7608
  %7 = and i32 %6, 8, !dbg !7610
  %8 = icmp ne i32 %7, 0, !dbg !7611
  br i1 %8, label %41, label %9, !dbg !7612

9:                                                ; preds = %1
  call void @_ZNSt3__h15basic_streambufIcNS_11char_traitsIcEEE4setpB6v15004EPcS4_(ptr noundef nonnull align 4 dereferenceable(32) %4, ptr noundef null, ptr noundef null), !dbg !7613
  %10 = getelementptr inbounds %"class.std::__h::basic_filebuf", ptr %4, i32 0, i32 16, !dbg !7615
  %11 = load i8, ptr %10, align 2, !dbg !7615
  %12 = trunc i8 %11 to i1, !dbg !7615
  br i1 %12, label %13, label %26, !dbg !7617

13:                                               ; preds = %9
  %14 = getelementptr inbounds %"class.std::__h::basic_filebuf", ptr %4, i32 0, i32 1, !dbg !7618
  %15 = load ptr, ptr %14, align 4, !dbg !7618
  %16 = getelementptr inbounds %"class.std::__h::basic_filebuf", ptr %4, i32 0, i32 1, !dbg !7619
  %17 = load ptr, ptr %16, align 4, !dbg !7619
  %18 = getelementptr inbounds %"class.std::__h::basic_filebuf", ptr %4, i32 0, i32 5, !dbg !7620
  %19 = load i32, ptr %18, align 4, !dbg !7620
  %20 = getelementptr inbounds i8, ptr %17, i32 %19, !dbg !7621
  %21 = getelementptr inbounds %"class.std::__h::basic_filebuf", ptr %4, i32 0, i32 1, !dbg !7622
  %22 = load ptr, ptr %21, align 4, !dbg !7622
  %23 = getelementptr inbounds %"class.std::__h::basic_filebuf", ptr %4, i32 0, i32 5, !dbg !7623
  %24 = load i32, ptr %23, align 4, !dbg !7623
  %25 = getelementptr inbounds i8, ptr %22, i32 %24, !dbg !7624
  call void @_ZNSt3__h15basic_streambufIcNS_11char_traitsIcEEE4setgB6v15004EPcS4_S4_(ptr noundef nonnull align 4 dereferenceable(32) %4, ptr noundef %15, ptr noundef %20, ptr noundef %25), !dbg !7625
  br label %39, !dbg !7626

26:                                               ; preds = %9
  %27 = getelementptr inbounds %"class.std::__h::basic_filebuf", ptr %4, i32 0, i32 6, !dbg !7627
  %28 = load ptr, ptr %27, align 4, !dbg !7627
  %29 = getelementptr inbounds %"class.std::__h::basic_filebuf", ptr %4, i32 0, i32 6, !dbg !7628
  %30 = load ptr, ptr %29, align 4, !dbg !7628
  %31 = getelementptr inbounds %"class.std::__h::basic_filebuf", ptr %4, i32 0, i32 7, !dbg !7629
  %32 = load i32, ptr %31, align 4, !dbg !7629
  %33 = getelementptr inbounds i8, ptr %30, i32 %32, !dbg !7630
  %34 = getelementptr inbounds %"class.std::__h::basic_filebuf", ptr %4, i32 0, i32 6, !dbg !7631
  %35 = load ptr, ptr %34, align 4, !dbg !7631
  %36 = getelementptr inbounds %"class.std::__h::basic_filebuf", ptr %4, i32 0, i32 7, !dbg !7632
  %37 = load i32, ptr %36, align 4, !dbg !7632
  %38 = getelementptr inbounds i8, ptr %35, i32 %37, !dbg !7633
  call void @_ZNSt3__h15basic_streambufIcNS_11char_traitsIcEEE4setgB6v15004EPcS4_S4_(ptr noundef nonnull align 4 dereferenceable(32) %4, ptr noundef %28, ptr noundef %33, ptr noundef %38), !dbg !7634
  br label %39

39:                                               ; preds = %26, %13
  %40 = getelementptr inbounds %"class.std::__h::basic_filebuf", ptr %4, i32 0, i32 13, !dbg !7635
  store i32 8, ptr %40, align 4, !dbg !7636
  store i1 true, ptr %2, align 1, !dbg !7637
  br label %42, !dbg !7637

41:                                               ; preds = %1
  store i1 false, ptr %2, align 1, !dbg !7638
  br label %42, !dbg !7638

42:                                               ; preds = %41, %39
  %43 = load i1, ptr %2, align 1, !dbg !7639
  ret i1 %43, !dbg !7639
}

; Function Attrs: mustprogress noinline nounwind optnone sspstrong uwtable(sync)
define linkonce_odr hidden noundef ptr @_ZNKSt3__h15basic_streambufIcNS_11char_traitsIcEEE5egptrB6v15004Ev(ptr noundef nonnull align 4 dereferenceable(32) %0) #0 comdat align 2 !dbg !7640 {
  %2 = alloca ptr, align 4
  store ptr %0, ptr %2, align 4
  call void @llvm.dbg.declare(metadata ptr %2, metadata !7642, metadata !DIExpression()), !dbg !7643
  %3 = load ptr, ptr %2, align 4
  %4 = getelementptr inbounds %"class.std::__h::basic_streambuf", ptr %3, i32 0, i32 4, !dbg !7644
  %5 = load ptr, ptr %4, align 4, !dbg !7644
  ret ptr %5, !dbg !7645
}

; Function Attrs: mustprogress noinline nounwind optnone sspstrong uwtable(sync)
define linkonce_odr hidden noundef nonnull align 4 dereferenceable(4) ptr @_ZNSt3__h3minB6v15004IjEERKT_S3_S3_(ptr noundef nonnull align 4 dereferenceable(4) %0, ptr noundef nonnull align 4 dereferenceable(4) %1) #0 comdat !dbg !7646 {
  %3 = alloca ptr, align 4
  %4 = alloca ptr, align 4
  %5 = alloca %"struct.std::__h::__less.5", align 1
  store ptr %0, ptr %3, align 4
  call void @llvm.dbg.declare(metadata ptr %3, metadata !7653, metadata !DIExpression()), !dbg !7654
  store ptr %1, ptr %4, align 4
  call void @llvm.dbg.declare(metadata ptr %4, metadata !7655, metadata !DIExpression()), !dbg !7656
  %6 = load ptr, ptr %3, align 4, !dbg !7657
  %7 = load ptr, ptr %4, align 4, !dbg !7658
  %8 = call noundef nonnull align 4 dereferenceable(4) ptr @_ZNSt3__h3minB6v15004IjNS_6__lessIjjEEEERKT_S5_S5_T0_(ptr noundef nonnull align 4 dereferenceable(4) %6, ptr noundef nonnull align 4 dereferenceable(4) %7), !dbg !7659
  ret ptr %8, !dbg !7660
}

; Function Attrs: argmemonly nocallback nofree nounwind willreturn
declare void @llvm.memmove.p0.p0.i32(ptr nocapture writeonly, ptr nocapture readonly, i32, i1 immarg) #9

declare i32 @fread(ptr noundef, i32 noundef, i32 noundef, ptr noundef) #4

; Function Attrs: mustprogress noinline nounwind optnone sspstrong uwtable(sync)
define linkonce_odr hidden noundef i32 @_ZNSt3__h11char_traitsIcE11to_int_typeEc(i8 noundef zeroext %0) #0 comdat align 2 !dbg !7661 {
  %2 = alloca i8, align 1
  store i8 %0, ptr %2, align 1
  call void @llvm.dbg.declare(metadata ptr %2, metadata !7662, metadata !DIExpression()), !dbg !7663
  %3 = load i8, ptr %2, align 1, !dbg !7664
  %4 = zext i8 %3 to i32, !dbg !7665
  ret i32 %4, !dbg !7666
}

; Function Attrs: inaccessiblememonly nocallback nofree nosync nounwind willreturn
declare void @llvm.assume(i1 noundef) #10

; Function Attrs: argmemonly nocallback nofree nounwind willreturn
declare void @llvm.memcpy.p0.p0.i32(ptr noalias nocapture writeonly, ptr noalias nocapture readonly, i32, i1 immarg) #9

; Function Attrs: mustprogress noinline nounwind optnone sspstrong uwtable(sync)
define linkonce_odr hidden noundef i32 @_ZNKSt3__h7codecvtIcc11__mbstate_tE2inB6v15004ERS1_PKcS5_RS5_PcS7_RS7_(ptr noundef nonnull align 4 dereferenceable(8) %0, ptr noundef nonnull align 4 dereferenceable(8) %1, ptr noundef %2, ptr noundef %3, ptr noundef nonnull align 4 dereferenceable(4) %4, ptr noundef %5, ptr noundef %6, ptr noundef nonnull align 4 dereferenceable(4) %7) #0 comdat align 2 !dbg !7667 {
  %9 = alloca ptr, align 4
  %10 = alloca ptr, align 4
  %11 = alloca ptr, align 4
  %12 = alloca ptr, align 4
  %13 = alloca ptr, align 4
  %14 = alloca ptr, align 4
  %15 = alloca ptr, align 4
  %16 = alloca ptr, align 4
  store ptr %0, ptr %9, align 4
  call void @llvm.dbg.declare(metadata ptr %9, metadata !7676, metadata !DIExpression()), !dbg !7677
  store ptr %1, ptr %10, align 4
  call void @llvm.dbg.declare(metadata ptr %10, metadata !7678, metadata !DIExpression()), !dbg !7679
  store ptr %2, ptr %11, align 4
  call void @llvm.dbg.declare(metadata ptr %11, metadata !7680, metadata !DIExpression()), !dbg !7681
  store ptr %3, ptr %12, align 4
  call void @llvm.dbg.declare(metadata ptr %12, metadata !7682, metadata !DIExpression()), !dbg !7683
  store ptr %4, ptr %13, align 4
  call void @llvm.dbg.declare(metadata ptr %13, metadata !7684, metadata !DIExpression()), !dbg !7685
  store ptr %5, ptr %14, align 4
  call void @llvm.dbg.declare(metadata ptr %14, metadata !7686, metadata !DIExpression()), !dbg !7687
  store ptr %6, ptr %15, align 4
  call void @llvm.dbg.declare(metadata ptr %15, metadata !7688, metadata !DIExpression()), !dbg !7689
  store ptr %7, ptr %16, align 4
  call void @llvm.dbg.declare(metadata ptr %16, metadata !7690, metadata !DIExpression()), !dbg !7691
  %17 = load ptr, ptr %9, align 4
  %18 = load ptr, ptr %10, align 4, !dbg !7692
  %19 = load ptr, ptr %11, align 4, !dbg !7693
  %20 = load ptr, ptr %12, align 4, !dbg !7694
  %21 = load ptr, ptr %13, align 4, !dbg !7695
  %22 = load ptr, ptr %14, align 4, !dbg !7696
  %23 = load ptr, ptr %15, align 4, !dbg !7697
  %24 = load ptr, ptr %16, align 4, !dbg !7698
  %25 = load ptr, ptr %17, align 4, !dbg !7699
  %26 = getelementptr inbounds ptr, ptr %25, i64 4, !dbg !7699
  %27 = load ptr, ptr %26, align 4, !dbg !7699
  %28 = call noundef i32 %27(ptr noundef nonnull align 4 dereferenceable(8) %17, ptr noundef nonnull align 4 dereferenceable(8) %18, ptr noundef %19, ptr noundef %20, ptr noundef nonnull align 4 dereferenceable(4) %21, ptr noundef %22, ptr noundef %23, ptr noundef nonnull align 4 dereferenceable(4) %24), !dbg !7699
  ret i32 %28, !dbg !7700
}

; Function Attrs: mustprogress noinline nounwind optnone sspstrong uwtable(sync)
define linkonce_odr hidden noundef nonnull align 4 dereferenceable(4) ptr @_ZNSt3__h3minB6v15004IjNS_6__lessIjjEEEERKT_S5_S5_T0_(ptr noundef nonnull align 4 dereferenceable(4) %0, ptr noundef nonnull align 4 dereferenceable(4) %1) #0 comdat !dbg !7701 {
  %3 = alloca %"struct.std::__h::__less.5", align 1
  %4 = alloca ptr, align 4
  %5 = alloca ptr, align 4
  store ptr %0, ptr %4, align 4
  call void @llvm.dbg.declare(metadata ptr %4, metadata !7717, metadata !DIExpression()), !dbg !7718
  store ptr %1, ptr %5, align 4
  call void @llvm.dbg.declare(metadata ptr %5, metadata !7719, metadata !DIExpression()), !dbg !7720
  call void @llvm.dbg.declare(metadata ptr %3, metadata !7721, metadata !DIExpression()), !dbg !7722
  %6 = load ptr, ptr %5, align 4, !dbg !7723
  %7 = load ptr, ptr %4, align 4, !dbg !7724
  %8 = call noundef zeroext i1 @_ZNKSt3__h6__lessIjjEclB6v15004ERKjS3_(ptr noundef nonnull align 1 dereferenceable(1) %3, ptr noundef nonnull align 4 dereferenceable(4) %6, ptr noundef nonnull align 4 dereferenceable(4) %7), !dbg !7725
  br i1 %8, label %9, label %11, !dbg !7725

9:                                                ; preds = %2
  %10 = load ptr, ptr %5, align 4, !dbg !7726
  br label %13, !dbg !7725

11:                                               ; preds = %2
  %12 = load ptr, ptr %4, align 4, !dbg !7727
  br label %13, !dbg !7725

13:                                               ; preds = %11, %9
  %14 = phi ptr [ %10, %9 ], [ %12, %11 ], !dbg !7725
  ret ptr %14, !dbg !7728
}

; Function Attrs: mustprogress noinline nounwind optnone sspstrong uwtable(sync)
define linkonce_odr hidden noundef zeroext i1 @_ZNKSt3__h6__lessIjjEclB6v15004ERKjS3_(ptr noundef nonnull align 1 dereferenceable(1) %0, ptr noundef nonnull align 4 dereferenceable(4) %1, ptr noundef nonnull align 4 dereferenceable(4) %2) #0 comdat align 2 !dbg !7729 {
  %4 = alloca ptr, align 4
  %5 = alloca ptr, align 4
  %6 = alloca ptr, align 4
  store ptr %0, ptr %4, align 4
  call void @llvm.dbg.declare(metadata ptr %4, metadata !7730, metadata !DIExpression()), !dbg !7732
  store ptr %1, ptr %5, align 4
  call void @llvm.dbg.declare(metadata ptr %5, metadata !7733, metadata !DIExpression()), !dbg !7734
  store ptr %2, ptr %6, align 4
  call void @llvm.dbg.declare(metadata ptr %6, metadata !7735, metadata !DIExpression()), !dbg !7736
  %7 = load ptr, ptr %4, align 4
  %8 = load ptr, ptr %5, align 4, !dbg !7737
  %9 = load i32, ptr %8, align 4, !dbg !7737
  %10 = load ptr, ptr %6, align 4, !dbg !7738
  %11 = load i32, ptr %10, align 4, !dbg !7738
  %12 = icmp ult i32 %9, %11, !dbg !7739
  ret i1 %12, !dbg !7740
}

; Function Attrs: mustprogress noinline nounwind optnone sspstrong uwtable(sync)
define linkonce_odr hidden noundef i32 @_ZNKSt3__h7codecvtIcc11__mbstate_tE7unshiftB6v15004ERS1_PcS4_RS4_(ptr noundef nonnull align 4 dereferenceable(8) %0, ptr noundef nonnull align 4 dereferenceable(8) %1, ptr noundef %2, ptr noundef %3, ptr noundef nonnull align 4 dereferenceable(4) %4) #0 comdat align 2 !dbg !7741 {
  %6 = alloca ptr, align 4
  %7 = alloca ptr, align 4
  %8 = alloca ptr, align 4
  %9 = alloca ptr, align 4
  %10 = alloca ptr, align 4
  store ptr %0, ptr %6, align 4
  call void @llvm.dbg.declare(metadata ptr %6, metadata !7745, metadata !DIExpression()), !dbg !7746
  store ptr %1, ptr %7, align 4
  call void @llvm.dbg.declare(metadata ptr %7, metadata !7747, metadata !DIExpression()), !dbg !7748
  store ptr %2, ptr %8, align 4
  call void @llvm.dbg.declare(metadata ptr %8, metadata !7749, metadata !DIExpression()), !dbg !7750
  store ptr %3, ptr %9, align 4
  call void @llvm.dbg.declare(metadata ptr %9, metadata !7751, metadata !DIExpression()), !dbg !7752
  store ptr %4, ptr %10, align 4
  call void @llvm.dbg.declare(metadata ptr %10, metadata !7753, metadata !DIExpression()), !dbg !7754
  %11 = load ptr, ptr %6, align 4
  %12 = load ptr, ptr %7, align 4, !dbg !7755
  %13 = load ptr, ptr %8, align 4, !dbg !7756
  %14 = load ptr, ptr %9, align 4, !dbg !7757
  %15 = load ptr, ptr %10, align 4, !dbg !7758
  %16 = load ptr, ptr %11, align 4, !dbg !7759
  %17 = getelementptr inbounds ptr, ptr %16, i64 5, !dbg !7759
  %18 = load ptr, ptr %17, align 4, !dbg !7759
  %19 = call noundef i32 %18(ptr noundef nonnull align 4 dereferenceable(8) %11, ptr noundef nonnull align 4 dereferenceable(8) %12, ptr noundef %13, ptr noundef %14, ptr noundef nonnull align 4 dereferenceable(4) %15), !dbg !7759
  ret i32 %19, !dbg !7760
}

declare i32 @fflush(ptr noundef) #4

; Function Attrs: mustprogress noinline nounwind optnone sspstrong uwtable(sync)
define linkonce_odr hidden noundef i32 @_ZNKSt3__h7codecvtIcc11__mbstate_tE8encodingB6v15004Ev(ptr noundef nonnull align 4 dereferenceable(8) %0) #0 comdat align 2 !dbg !7761 {
  %2 = alloca ptr, align 4
  store ptr %0, ptr %2, align 4
  call void @llvm.dbg.declare(metadata ptr %2, metadata !7765, metadata !DIExpression()), !dbg !7766
  %3 = load ptr, ptr %2, align 4
  %4 = load ptr, ptr %3, align 4, !dbg !7767
  %5 = getelementptr inbounds ptr, ptr %4, i64 6, !dbg !7767
  %6 = load ptr, ptr %5, align 4, !dbg !7767
  %7 = call noundef i32 %6(ptr noundef nonnull align 4 dereferenceable(8) %3) #14, !dbg !7767
  ret i32 %7, !dbg !7768
}

; Function Attrs: mustprogress noinline nounwind optnone sspstrong uwtable(sync)
define linkonce_odr hidden noundef i32 @_ZNKSt3__h7codecvtIcc11__mbstate_tE6lengthB6v15004ERS1_PKcS5_j(ptr noundef nonnull align 4 dereferenceable(8) %0, ptr noundef nonnull align 4 dereferenceable(8) %1, ptr noundef %2, ptr noundef %3, i32 noundef %4) #0 comdat align 2 !dbg !7769 {
  %6 = alloca ptr, align 4
  %7 = alloca ptr, align 4
  %8 = alloca ptr, align 4
  %9 = alloca ptr, align 4
  %10 = alloca i32, align 4
  store ptr %0, ptr %6, align 4
  call void @llvm.dbg.declare(metadata ptr %6, metadata !7773, metadata !DIExpression()), !dbg !7774
  store ptr %1, ptr %7, align 4
  call void @llvm.dbg.declare(metadata ptr %7, metadata !7775, metadata !DIExpression()), !dbg !7776
  store ptr %2, ptr %8, align 4
  call void @llvm.dbg.declare(metadata ptr %8, metadata !7777, metadata !DIExpression()), !dbg !7778
  store ptr %3, ptr %9, align 4
  call void @llvm.dbg.declare(metadata ptr %9, metadata !7779, metadata !DIExpression()), !dbg !7780
  store i32 %4, ptr %10, align 4
  call void @llvm.dbg.declare(metadata ptr %10, metadata !7781, metadata !DIExpression()), !dbg !7782
  %11 = load ptr, ptr %6, align 4
  %12 = load ptr, ptr %7, align 4, !dbg !7783
  %13 = load ptr, ptr %8, align 4, !dbg !7784
  %14 = load ptr, ptr %9, align 4, !dbg !7785
  %15 = load i32, ptr %10, align 4, !dbg !7786
  %16 = load ptr, ptr %11, align 4, !dbg !7787
  %17 = getelementptr inbounds ptr, ptr %16, i64 8, !dbg !7787
  %18 = load ptr, ptr %17, align 4, !dbg !7787
  %19 = call noundef i32 %18(ptr noundef nonnull align 4 dereferenceable(8) %11, ptr noundef nonnull align 4 dereferenceable(8) %12, ptr noundef %13, ptr noundef %14, i32 noundef %15), !dbg !7787
  ret i32 %19, !dbg !7788
}

declare i32 @fseeko(ptr noundef, i64 noundef, i32 noundef) #4

; Function Attrs: noinline nounwind optnone sspstrong uwtable(sync)
define linkonce_odr hidden noundef ptr @_ZNSt3__h4fposI11__mbstate_tEC2B6v15004Ex(ptr noundef nonnull returned align 8 dereferenceable(16) %0, i64 noundef %1) unnamed_addr #3 comdat align 2 !dbg !7789 {
  %3 = alloca ptr, align 4
  %4 = alloca i64, align 8
  store ptr %0, ptr %3, align 4
  call void @llvm.dbg.declare(metadata ptr %3, metadata !7790, metadata !DIExpression()), !dbg !7792
  store i64 %1, ptr %4, align 8
  call void @llvm.dbg.declare(metadata ptr %4, metadata !7793, metadata !DIExpression()), !dbg !7794
  %5 = load ptr, ptr %3, align 4
  %6 = getelementptr inbounds %"class.std::__h::fpos", ptr %5, i32 0, i32 0, !dbg !7795
  call void @llvm.memset.p0.i32(ptr align 8 %6, i8 0, i32 8, i1 false), !dbg !7795
  %7 = getelementptr inbounds %"class.std::__h::fpos", ptr %5, i32 0, i32 1, !dbg !7796
  %8 = load i64, ptr %4, align 8, !dbg !7797
  store i64 %8, ptr %7, align 8, !dbg !7796
  ret ptr %5, !dbg !7798
}

; Function Attrs: mustprogress noinline nounwind optnone sspstrong uwtable(sync)
define linkonce_odr hidden noundef i64 @_ZNKSt3__h4fposI11__mbstate_tEcvxB6v15004Ev(ptr noundef nonnull align 8 dereferenceable(16) %0) #0 comdat align 2 !dbg !7799 {
  %2 = alloca ptr, align 4
  store ptr %0, ptr %2, align 4
  call void @llvm.dbg.declare(metadata ptr %2, metadata !7800, metadata !DIExpression()), !dbg !7802
  %3 = load ptr, ptr %2, align 4
  %4 = getelementptr inbounds %"class.std::__h::fpos", ptr %3, i32 0, i32 1, !dbg !7803
  %5 = load i64, ptr %4, align 8, !dbg !7803
  ret i64 %5, !dbg !7804
}

; Function Attrs: mustprogress noinline nounwind optnone sspstrong uwtable(sync)
define linkonce_odr hidden void @_ZNKSt3__h4fposI11__mbstate_tE5stateB6v15004Ev(ptr noalias sret(%struct.__mbstate_t) align 4 %0, ptr noundef nonnull align 8 dereferenceable(16) %1) #0 comdat align 2 !dbg !7805 {
  %3 = alloca ptr, align 4
  store ptr %1, ptr %3, align 4
  call void @llvm.dbg.declare(metadata ptr %3, metadata !7806, metadata !DIExpression()), !dbg !7807
  %4 = load ptr, ptr %3, align 4
  %5 = getelementptr inbounds %"class.std::__h::fpos", ptr %4, i32 0, i32 0, !dbg !7808
  call void @llvm.memcpy.p0.p0.i32(ptr align 4 %0, ptr align 8 %5, i32 8, i1 false), !dbg !7808
  ret void, !dbg !7809
}

declare i64 @ftello(ptr noundef) #4

; Function Attrs: mustprogress noinline nounwind optnone sspstrong uwtable(sync)
define linkonce_odr hidden void @_ZNSt3__h4fposI11__mbstate_tE5stateB6v15004ES1_(ptr noundef nonnull align 8 dereferenceable(16) %0, [2 x i32] %1) #0 comdat align 2 !dbg !7810 {
  %3 = alloca %struct.__mbstate_t, align 4
  %4 = alloca ptr, align 4
  store [2 x i32] %1, ptr %3, align 4
  store ptr %0, ptr %4, align 4
  call void @llvm.dbg.declare(metadata ptr %4, metadata !7811, metadata !DIExpression()), !dbg !7812
  call void @llvm.dbg.declare(metadata ptr %3, metadata !7813, metadata !DIExpression()), !dbg !7814
  %5 = load ptr, ptr %4, align 4
  %6 = getelementptr inbounds %"class.std::__h::fpos", ptr %5, i32 0, i32 0, !dbg !7815
  call void @llvm.memcpy.p0.p0.i32(ptr align 8 %6, ptr align 4 %3, i32 8, i1 false), !dbg !7816
  ret void, !dbg !7817
}

; Function Attrs: nobuiltin allocsize(0)
declare noundef nonnull ptr @_Znaj(i32 noundef) #11

; Function Attrs: mustprogress noinline nounwind optnone sspstrong uwtable(sync)
define linkonce_odr hidden noundef nonnull align 4 dereferenceable(4) ptr @_ZNSt3__h3maxB6v15004IiEERKT_S3_S3_(ptr noundef nonnull align 4 dereferenceable(4) %0, ptr noundef nonnull align 4 dereferenceable(4) %1) #0 comdat !dbg !7818 {
  %3 = alloca ptr, align 4
  %4 = alloca ptr, align 4
  %5 = alloca %"struct.std::__h::__less.5", align 1
  store ptr %0, ptr %3, align 4
  call void @llvm.dbg.declare(metadata ptr %3, metadata !7825, metadata !DIExpression()), !dbg !7826
  store ptr %1, ptr %4, align 4
  call void @llvm.dbg.declare(metadata ptr %4, metadata !7827, metadata !DIExpression()), !dbg !7828
  %6 = load ptr, ptr %3, align 4, !dbg !7829
  %7 = load ptr, ptr %4, align 4, !dbg !7830
  %8 = call noundef nonnull align 4 dereferenceable(4) ptr @_ZNSt3__h3maxB6v15004IiNS_6__lessIiiEEEERKT_S5_S5_T0_(ptr noundef nonnull align 4 dereferenceable(4) %6, ptr noundef nonnull align 4 dereferenceable(4) %7), !dbg !7831
  ret ptr %8, !dbg !7832
}

; Function Attrs: mustprogress noinline nounwind optnone sspstrong uwtable(sync)
define linkonce_odr hidden noundef nonnull align 4 dereferenceable(4) ptr @_ZNSt3__h3maxB6v15004IiNS_6__lessIiiEEEERKT_S5_S5_T0_(ptr noundef nonnull align 4 dereferenceable(4) %0, ptr noundef nonnull align 4 dereferenceable(4) %1) #0 comdat !dbg !7833 {
  %3 = alloca %"struct.std::__h::__less.5", align 1
  %4 = alloca ptr, align 4
  %5 = alloca ptr, align 4
  store ptr %0, ptr %4, align 4
  call void @llvm.dbg.declare(metadata ptr %4, metadata !7848, metadata !DIExpression()), !dbg !7849
  store ptr %1, ptr %5, align 4
  call void @llvm.dbg.declare(metadata ptr %5, metadata !7850, metadata !DIExpression()), !dbg !7851
  call void @llvm.dbg.declare(metadata ptr %3, metadata !7852, metadata !DIExpression()), !dbg !7853
  %6 = load ptr, ptr %4, align 4, !dbg !7854
  %7 = load ptr, ptr %5, align 4, !dbg !7855
  %8 = call noundef zeroext i1 @_ZNKSt3__h6__lessIiiEclB6v15004ERKiS3_(ptr noundef nonnull align 1 dereferenceable(1) %3, ptr noundef nonnull align 4 dereferenceable(4) %6, ptr noundef nonnull align 4 dereferenceable(4) %7), !dbg !7856
  br i1 %8, label %9, label %11, !dbg !7856

9:                                                ; preds = %2
  %10 = load ptr, ptr %5, align 4, !dbg !7857
  br label %13, !dbg !7856

11:                                               ; preds = %2
  %12 = load ptr, ptr %4, align 4, !dbg !7858
  br label %13, !dbg !7856

13:                                               ; preds = %11, %9
  %14 = phi ptr [ %10, %9 ], [ %12, %11 ], !dbg !7856
  ret ptr %14, !dbg !7859
}

; Function Attrs: mustprogress noinline nounwind optnone sspstrong uwtable(sync)
define linkonce_odr hidden noundef zeroext i1 @_ZNKSt3__h6__lessIiiEclB6v15004ERKiS3_(ptr noundef nonnull align 1 dereferenceable(1) %0, ptr noundef nonnull align 4 dereferenceable(4) %1, ptr noundef nonnull align 4 dereferenceable(4) %2) #0 comdat align 2 !dbg !7860 {
  %4 = alloca ptr, align 4
  %5 = alloca ptr, align 4
  %6 = alloca ptr, align 4
  store ptr %0, ptr %4, align 4
  call void @llvm.dbg.declare(metadata ptr %4, metadata !7861, metadata !DIExpression()), !dbg !7863
  store ptr %1, ptr %5, align 4
  call void @llvm.dbg.declare(metadata ptr %5, metadata !7864, metadata !DIExpression()), !dbg !7865
  store ptr %2, ptr %6, align 4
  call void @llvm.dbg.declare(metadata ptr %6, metadata !7866, metadata !DIExpression()), !dbg !7867
  %7 = load ptr, ptr %4, align 4
  %8 = load ptr, ptr %5, align 4, !dbg !7868
  %9 = load i32, ptr %8, align 4, !dbg !7868
  %10 = load ptr, ptr %6, align 4, !dbg !7869
  %11 = load i32, ptr %10, align 4, !dbg !7869
  %12 = icmp slt i32 %9, %11, !dbg !7870
  ret i1 %12, !dbg !7871
}

; Function Attrs: mustprogress noinline nounwind optnone sspstrong uwtable(sync)
define linkonce_odr hidden noundef nonnull align 4 dereferenceable(8) ptr @_ZNSt3__h9use_facetB6v15004INS_7codecvtIcc11__mbstate_tEEEERKT_RKNS_6localeE(ptr noundef nonnull align 4 dereferenceable(4) %0) #0 comdat !dbg !7872 {
  %2 = alloca ptr, align 4
  store ptr %0, ptr %2, align 4
  call void @llvm.dbg.declare(metadata ptr %2, metadata !7878, metadata !DIExpression()), !dbg !7879
  %3 = load ptr, ptr %2, align 4, !dbg !7880
  %4 = call noundef ptr @_ZNKSt3__h6locale9use_facetERNS0_2idE(ptr noundef nonnull align 4 dereferenceable(4) %3, ptr noundef nonnull align 4 dereferenceable(8) @_ZNSt3__h7codecvtIcc11__mbstate_tE2idE), !dbg !7881
  ret ptr %4, !dbg !7882
}

; Function Attrs: mustprogress noinline nounwind optnone sspstrong uwtable(sync)
define linkonce_odr hidden noundef zeroext i1 @_ZNKSt3__h7codecvtIcc11__mbstate_tE13always_noconvB6v15004Ev(ptr noundef nonnull align 4 dereferenceable(8) %0) #0 comdat align 2 !dbg !7883 {
  %2 = alloca ptr, align 4
  store ptr %0, ptr %2, align 4
  call void @llvm.dbg.declare(metadata ptr %2, metadata !7887, metadata !DIExpression()), !dbg !7888
  %3 = load ptr, ptr %2, align 4
  %4 = load ptr, ptr %3, align 4, !dbg !7889
  %5 = getelementptr inbounds ptr, ptr %4, i64 7, !dbg !7889
  %6 = load ptr, ptr %5, align 4, !dbg !7889
  %7 = call noundef zeroext i1 %6(ptr noundef nonnull align 4 dereferenceable(8) %3) #14, !dbg !7889
  ret i1 %7, !dbg !7890
}

declare noundef ptr @_ZNKSt3__h6locale9use_facetERNS0_2idE(ptr noundef nonnull align 4 dereferenceable(4), ptr noundef nonnull align 4 dereferenceable(8)) #4

; Function Attrs: nobuiltin nounwind
declare void @_ZdlPv(ptr noundef) #6

; Function Attrs: nounwind
declare noundef ptr @_ZNSt3__h13basic_istreamIcNS_11char_traitsIcEEED1Ev(ptr noundef nonnull returned align 4 dereferenceable(8)) unnamed_addr #5

; Function Attrs: nounwind
declare void @_ZNSt3__h13basic_istreamIcNS_11char_traitsIcEEED0Ev(ptr noundef nonnull align 4 dereferenceable(8)) unnamed_addr #5

; Function Attrs: nounwind
declare noundef ptr @_ZTv0_n12_NSt3__h13basic_istreamIcNS_11char_traitsIcEEED1Ev(ptr noundef) unnamed_addr #5

; Function Attrs: nounwind
declare void @_ZTv0_n12_NSt3__h13basic_istreamIcNS_11char_traitsIcEEED0Ev(ptr noundef) unnamed_addr #5

; Function Attrs: noinline nounwind optnone sspstrong uwtable(sync)
define linkonce_odr hidden void @_ZNSt3__h14basic_ifstreamIcNS_11char_traitsIcEEED0Ev(ptr noundef nonnull align 4 dereferenceable(108) %0) unnamed_addr #3 comdat align 2 !dbg !7891 {
  %2 = alloca ptr, align 4
  store ptr %0, ptr %2, align 4
  call void @llvm.dbg.declare(metadata ptr %2, metadata !7892, metadata !DIExpression()), !dbg !7893
  %3 = load ptr, ptr %2, align 4
  %4 = call noundef ptr @_ZNSt3__h14basic_ifstreamIcNS_11char_traitsIcEEED1Ev(ptr noundef nonnull align 4 dereferenceable(108) %3) #14, !dbg !7894
  call void @_ZdlPv(ptr noundef %3) #15, !dbg !7894
  ret void, !dbg !7894
}

; Function Attrs: noinline nounwind optnone sspstrong uwtable(sync)
define linkonce_odr hidden noundef ptr @_ZTv0_n12_NSt3__h14basic_ifstreamIcNS_11char_traitsIcEEED1Ev(ptr noundef %0) unnamed_addr #3 comdat align 2 !dbg !7895 {
  %2 = alloca ptr, align 4
  %3 = alloca ptr, align 4
  store ptr %0, ptr %3, align 4
  %4 = load ptr, ptr %3, align 4, !dbg !7897
  store ptr %4, ptr %2, align 4, !dbg !7897
  %5 = load ptr, ptr %4, align 4, !dbg !7897
  %6 = getelementptr inbounds i8, ptr %5, i64 -12, !dbg !7897
  %7 = load i32, ptr %6, align 4, !dbg !7897
  %8 = getelementptr inbounds i8, ptr %4, i32 %7, !dbg !7897
  %9 = tail call noundef ptr @_ZNSt3__h14basic_ifstreamIcNS_11char_traitsIcEEED1Ev(ptr noundef nonnull align 4 dereferenceable(108) %8) #14, !dbg !7897
  ret ptr undef, !dbg !7897
}

; Function Attrs: noinline nounwind optnone sspstrong uwtable(sync)
define linkonce_odr hidden void @_ZTv0_n12_NSt3__h14basic_ifstreamIcNS_11char_traitsIcEEED0Ev(ptr noundef %0) unnamed_addr #3 comdat align 2 !dbg !7898 {
  %2 = alloca ptr, align 4
  store ptr %0, ptr %2, align 4
  %3 = load ptr, ptr %2, align 4, !dbg !7899
  %4 = load ptr, ptr %3, align 4, !dbg !7899
  %5 = getelementptr inbounds i8, ptr %4, i64 -12, !dbg !7899
  %6 = load i32, ptr %5, align 4, !dbg !7899
  %7 = getelementptr inbounds i8, ptr %3, i32 %6, !dbg !7899
  tail call void @_ZNSt3__h14basic_ifstreamIcNS_11char_traitsIcEEED0Ev(ptr noundef nonnull align 4 dereferenceable(108) %7) #14, !dbg !7899
  ret void, !dbg !7899
}

; Function Attrs: noinline nounwind optnone sspstrong uwtable(sync)
define linkonce_odr hidden noundef ptr @_ZNSt3__h14basic_ofstreamIcNS_11char_traitsIcEEED2Ev(ptr noundef nonnull returned align 4 dereferenceable(104) %0, ptr noundef %1) unnamed_addr #3 comdat align 2 !dbg !7900 {
  %3 = alloca ptr, align 4
  %4 = alloca ptr, align 4
  store ptr %0, ptr %3, align 4
  call void @llvm.dbg.declare(metadata ptr %3, metadata !7901, metadata !DIExpression()), !dbg !7902
  store ptr %1, ptr %4, align 4
  call void @llvm.dbg.declare(metadata ptr %4, metadata !7903, metadata !DIExpression()), !dbg !7902
  %5 = load ptr, ptr %3, align 4
  %6 = load ptr, ptr %4, align 4
  %7 = load ptr, ptr %6, align 4, !dbg !7904
  store ptr %7, ptr %5, align 4, !dbg !7904
  %8 = getelementptr inbounds ptr, ptr %6, i64 3, !dbg !7904
  %9 = load ptr, ptr %8, align 4, !dbg !7904
  %10 = load ptr, ptr %5, align 4, !dbg !7904
  %11 = getelementptr i8, ptr %10, i64 -12, !dbg !7904
  %12 = load i32, ptr %11, align 4, !dbg !7904
  %13 = getelementptr inbounds i8, ptr %5, i32 %12, !dbg !7904
  store ptr %9, ptr %13, align 4, !dbg !7904
  %14 = getelementptr inbounds %"class.std::__h::basic_ofstream", ptr %5, i32 0, i32 1, !dbg !7905
  %15 = call noundef ptr @_ZNSt3__h13basic_filebufIcNS_11char_traitsIcEEED2Ev(ptr noundef nonnull align 4 dereferenceable(99) %14) #14, !dbg !7905
  %16 = getelementptr inbounds ptr, ptr %6, i64 1, !dbg !7905
  %17 = call noundef ptr @_ZNSt3__h13basic_ostreamIcNS_11char_traitsIcEEED2Ev(ptr noundef nonnull align 4 dereferenceable(4) %5, ptr noundef %16) #14, !dbg !7905
  ret ptr %5, !dbg !7904
}

; Function Attrs: nounwind
declare noundef ptr @_ZNSt3__h13basic_ostreamIcNS_11char_traitsIcEEED2Ev(ptr noundef nonnull returned align 4 dereferenceable(4), ptr noundef) unnamed_addr #5

; Function Attrs: nounwind
declare noundef ptr @_ZNSt3__h13basic_ostreamIcNS_11char_traitsIcEEED1Ev(ptr noundef nonnull returned align 4 dereferenceable(4)) unnamed_addr #5

; Function Attrs: nounwind
declare void @_ZNSt3__h13basic_ostreamIcNS_11char_traitsIcEEED0Ev(ptr noundef nonnull align 4 dereferenceable(4)) unnamed_addr #5

; Function Attrs: nounwind
declare noundef ptr @_ZTv0_n12_NSt3__h13basic_ostreamIcNS_11char_traitsIcEEED1Ev(ptr noundef) unnamed_addr #5

; Function Attrs: nounwind
declare void @_ZTv0_n12_NSt3__h13basic_ostreamIcNS_11char_traitsIcEEED0Ev(ptr noundef) unnamed_addr #5

; Function Attrs: noinline nounwind optnone sspstrong uwtable(sync)
define linkonce_odr hidden void @_ZNSt3__h14basic_ofstreamIcNS_11char_traitsIcEEED0Ev(ptr noundef nonnull align 4 dereferenceable(104) %0) unnamed_addr #3 comdat align 2 !dbg !7907 {
  %2 = alloca ptr, align 4
  store ptr %0, ptr %2, align 4
  call void @llvm.dbg.declare(metadata ptr %2, metadata !7908, metadata !DIExpression()), !dbg !7909
  %3 = load ptr, ptr %2, align 4
  %4 = call noundef ptr @_ZNSt3__h14basic_ofstreamIcNS_11char_traitsIcEEED1Ev(ptr noundef nonnull align 4 dereferenceable(104) %3) #14, !dbg !7910
  call void @_ZdlPv(ptr noundef %3) #15, !dbg !7910
  ret void, !dbg !7910
}

; Function Attrs: noinline nounwind optnone sspstrong uwtable(sync)
define linkonce_odr hidden noundef ptr @_ZTv0_n12_NSt3__h14basic_ofstreamIcNS_11char_traitsIcEEED1Ev(ptr noundef %0) unnamed_addr #3 comdat align 2 !dbg !7911 {
  %2 = alloca ptr, align 4
  %3 = alloca ptr, align 4
  store ptr %0, ptr %3, align 4
  %4 = load ptr, ptr %3, align 4, !dbg !7912
  store ptr %4, ptr %2, align 4, !dbg !7912
  %5 = load ptr, ptr %4, align 4, !dbg !7912
  %6 = getelementptr inbounds i8, ptr %5, i64 -12, !dbg !7912
  %7 = load i32, ptr %6, align 4, !dbg !7912
  %8 = getelementptr inbounds i8, ptr %4, i32 %7, !dbg !7912
  %9 = tail call noundef ptr @_ZNSt3__h14basic_ofstreamIcNS_11char_traitsIcEEED1Ev(ptr noundef nonnull align 4 dereferenceable(104) %8) #14, !dbg !7912
  ret ptr undef, !dbg !7912
}

; Function Attrs: noinline nounwind optnone sspstrong uwtable(sync)
define linkonce_odr hidden void @_ZTv0_n12_NSt3__h14basic_ofstreamIcNS_11char_traitsIcEEED0Ev(ptr noundef %0) unnamed_addr #3 comdat align 2 !dbg !7913 {
  %2 = alloca ptr, align 4
  store ptr %0, ptr %2, align 4
  %3 = load ptr, ptr %2, align 4, !dbg !7914
  %4 = load ptr, ptr %3, align 4, !dbg !7914
  %5 = getelementptr inbounds i8, ptr %4, i64 -12, !dbg !7914
  %6 = load i32, ptr %5, align 4, !dbg !7914
  %7 = getelementptr inbounds i8, ptr %3, i32 %6, !dbg !7914
  tail call void @_ZNSt3__h14basic_ofstreamIcNS_11char_traitsIcEEED0Ev(ptr noundef nonnull align 4 dereferenceable(104) %7) #14, !dbg !7914
  ret void, !dbg !7914
}

; Function Attrs: mustprogress noinline nounwind optnone sspstrong uwtable(sync)
define linkonce_odr hidden noundef zeroext i8 @_ZNKSt3__h9basic_iosIcNS_11char_traitsIcEEE5widenB6v15004Ec(ptr noundef nonnull align 4 dereferenceable(80) %0, i8 noundef zeroext %1) #0 comdat align 2 !dbg !7915 {
  %3 = alloca ptr, align 4
  %4 = alloca i8, align 1
  %5 = alloca %"class.std::__h::locale", align 4
  store ptr %0, ptr %3, align 4
  call void @llvm.dbg.declare(metadata ptr %3, metadata !7916, metadata !DIExpression()), !dbg !7917
  store i8 %1, ptr %4, align 1
  call void @llvm.dbg.declare(metadata ptr %4, metadata !7918, metadata !DIExpression()), !dbg !7919
  %6 = load ptr, ptr %3, align 4
  call void @_ZNKSt3__h8ios_base6getlocEv(ptr sret(%"class.std::__h::locale") align 4 %5, ptr noundef nonnull align 4 dereferenceable(72) %6), !dbg !7920
  %7 = call noundef nonnull align 4 dereferenceable(13) ptr @_ZNSt3__h9use_facetB6v15004INS_5ctypeIcEEEERKT_RKNS_6localeE(ptr noundef nonnull align 4 dereferenceable(4) %5), !dbg !7921
  %8 = load i8, ptr %4, align 1, !dbg !7922
  %9 = call noundef zeroext i8 @_ZNKSt3__h5ctypeIcE5widenB6v15004Ec(ptr noundef nonnull align 4 dereferenceable(13) %7, i8 noundef zeroext %8), !dbg !7923
  %10 = call noundef ptr @_ZNSt3__h6localeD1Ev(ptr noundef nonnull align 4 dereferenceable(4) %5) #14, !dbg !7924
  ret i8 %9, !dbg !7924
}

declare noundef nonnull align 4 dereferenceable(4) ptr @_ZNSt3__h13basic_ostreamIcNS_11char_traitsIcEEE3putEc(ptr noundef nonnull align 4 dereferenceable(4), i8 noundef zeroext) #4

declare noundef nonnull align 4 dereferenceable(4) ptr @_ZNSt3__h13basic_ostreamIcNS_11char_traitsIcEEE5flushEv(ptr noundef nonnull align 4 dereferenceable(4)) #4

declare void @_ZNKSt3__h8ios_base6getlocEv(ptr sret(%"class.std::__h::locale") align 4, ptr noundef nonnull align 4 dereferenceable(72)) #4

; Function Attrs: mustprogress noinline nounwind optnone sspstrong uwtable(sync)
define linkonce_odr hidden noundef nonnull align 4 dereferenceable(13) ptr @_ZNSt3__h9use_facetB6v15004INS_5ctypeIcEEEERKT_RKNS_6localeE(ptr noundef nonnull align 4 dereferenceable(4) %0) #0 comdat !dbg !7925 {
  %2 = alloca ptr, align 4
  store ptr %0, ptr %2, align 4
  call void @llvm.dbg.declare(metadata ptr %2, metadata !7933, metadata !DIExpression()), !dbg !7934
  %3 = load ptr, ptr %2, align 4, !dbg !7935
  %4 = call noundef ptr @_ZNKSt3__h6locale9use_facetERNS0_2idE(ptr noundef nonnull align 4 dereferenceable(4) %3, ptr noundef nonnull align 4 dereferenceable(8) @_ZNSt3__h5ctypeIcE2idE), !dbg !7936
  ret ptr %4, !dbg !7937
}

; Function Attrs: mustprogress noinline nounwind optnone sspstrong uwtable(sync)
define linkonce_odr hidden noundef zeroext i8 @_ZNKSt3__h5ctypeIcE5widenB6v15004Ec(ptr noundef nonnull align 4 dereferenceable(13) %0, i8 noundef zeroext %1) #0 comdat align 2 !dbg !7938 {
  %3 = alloca ptr, align 4
  %4 = alloca i8, align 1
  store ptr %0, ptr %3, align 4
  call void @llvm.dbg.declare(metadata ptr %3, metadata !7944, metadata !DIExpression()), !dbg !7946
  store i8 %1, ptr %4, align 1
  call void @llvm.dbg.declare(metadata ptr %4, metadata !7947, metadata !DIExpression()), !dbg !7948
  %5 = load ptr, ptr %3, align 4
  %6 = load i8, ptr %4, align 1, !dbg !7949
  %7 = load ptr, ptr %5, align 4, !dbg !7950
  %8 = getelementptr inbounds ptr, ptr %7, i64 7, !dbg !7950
  %9 = load ptr, ptr %8, align 4, !dbg !7950
  %10 = call noundef zeroext i8 %9(ptr noundef nonnull align 4 dereferenceable(13) %5, i8 noundef zeroext %6), !dbg !7950
  ret i8 %10, !dbg !7951
}

; Function Attrs: nounwind
declare noundef ptr @_ZNSt3__h6localeD1Ev(ptr noundef nonnull returned align 4 dereferenceable(4)) unnamed_addr #5

; Function Attrs: mustprogress noinline nounwind optnone sspstrong uwtable(sync)
define linkonce_odr hidden noundef ptr @_ZNKSt3__h12basic_stringIcNS_11char_traitsIcEENS_9allocatorIcEEE4dataB6v15004Ev(ptr noundef nonnull align 4 dereferenceable(12) %0) #0 comdat align 2 !dbg !7952 {
  %2 = alloca ptr, align 4
  store ptr %0, ptr %2, align 4
  call void @llvm.dbg.declare(metadata ptr %2, metadata !7953, metadata !DIExpression()), !dbg !7955
  %3 = load ptr, ptr %2, align 4
  %4 = call noundef ptr @_ZNKSt3__h12basic_stringIcNS_11char_traitsIcEENS_9allocatorIcEEE13__get_pointerB6v15004Ev(ptr noundef nonnull align 4 dereferenceable(12) %3) #14, !dbg !7956
  %5 = call noundef ptr @_ZNSt3__h12__to_addressB6v15004IKcEEPT_S3_(ptr noundef %4) #14, !dbg !7957
  ret ptr %5, !dbg !7958
}

; Function Attrs: mustprogress noinline nounwind optnone sspstrong uwtable(sync)
define linkonce_odr hidden noundef i32 @_ZNKSt3__h12basic_stringIcNS_11char_traitsIcEENS_9allocatorIcEEE4sizeB6v15004Ev(ptr noundef nonnull align 4 dereferenceable(12) %0) #0 comdat align 2 !dbg !7959 {
  %2 = alloca ptr, align 4
  store ptr %0, ptr %2, align 4
  call void @llvm.dbg.declare(metadata ptr %2, metadata !7960, metadata !DIExpression()), !dbg !7961
  %3 = load ptr, ptr %2, align 4
  %4 = call noundef zeroext i1 @_ZNKSt3__h12basic_stringIcNS_11char_traitsIcEENS_9allocatorIcEEE9__is_longB6v15004Ev(ptr noundef nonnull align 4 dereferenceable(12) %3) #14, !dbg !7962
  br i1 %4, label %5, label %7, !dbg !7962

5:                                                ; preds = %1
  %6 = call noundef i32 @_ZNKSt3__h12basic_stringIcNS_11char_traitsIcEENS_9allocatorIcEEE15__get_long_sizeB6v15004Ev(ptr noundef nonnull align 4 dereferenceable(12) %3) #14, !dbg !7963
  br label %9, !dbg !7962

7:                                                ; preds = %1
  %8 = call noundef i32 @_ZNKSt3__h12basic_stringIcNS_11char_traitsIcEENS_9allocatorIcEEE16__get_short_sizeB6v15004Ev(ptr noundef nonnull align 4 dereferenceable(12) %3) #14, !dbg !7964
  br label %9, !dbg !7962

9:                                                ; preds = %7, %5
  %10 = phi i32 [ %6, %5 ], [ %8, %7 ], !dbg !7962
  ret i32 %10, !dbg !7965
}

; Function Attrs: mustprogress noinline nounwind optnone sspstrong uwtable(sync)
define linkonce_odr noundef nonnull align 4 dereferenceable(4) ptr @_ZNSt3__h24__put_character_sequenceIcNS_11char_traitsIcEEEERNS_13basic_ostreamIT_T0_EES7_PKS4_j(ptr noundef nonnull align 4 dereferenceable(4) %0, ptr noundef %1, i32 noundef %2) #0 comdat !dbg !2210 {
  %4 = alloca ptr, align 4
  %5 = alloca ptr, align 4
  %6 = alloca i32, align 4
  %7 = alloca %"class.std::__h::basic_ostream<char>::sentry", align 4
  %8 = alloca %"class.std::__h::locale", align 4
  %9 = alloca %"class.std::__h::locale", align 4
  store ptr %0, ptr %4, align 4
  call void @llvm.dbg.declare(metadata ptr %4, metadata !7966, metadata !DIExpression()), !dbg !7967
  store ptr %1, ptr %5, align 4
  call void @llvm.dbg.declare(metadata ptr %5, metadata !7968, metadata !DIExpression()), !dbg !7969
  store i32 %2, ptr %6, align 4
  call void @llvm.dbg.declare(metadata ptr %6, metadata !7970, metadata !DIExpression()), !dbg !7971
  call void @llvm.dbg.declare(metadata ptr %7, metadata !7972, metadata !DIExpression()), !dbg !7974
  call void @llvm.memset.p0.i32(ptr align 4 %7, i8 0, i32 8, i1 false), !dbg !7974, !annotation !6167
  %10 = load ptr, ptr %4, align 4, !dbg !7975
  %11 = call noundef ptr @_ZNSt3__h13basic_ostreamIcNS_11char_traitsIcEEE6sentryC1ERS3_(ptr noundef nonnull align 4 dereferenceable(8) %7, ptr noundef nonnull align 4 dereferenceable(4) %10), !dbg !7974
  %12 = call noundef zeroext i1 @_ZNKSt3__h13basic_ostreamIcNS_11char_traitsIcEEE6sentrycvbB6v15004Ev(ptr noundef nonnull align 4 dereferenceable(8) %7), !dbg !7976
  br i1 %12, label %13, label %60, !dbg !7978

13:                                               ; preds = %3
  %14 = load ptr, ptr %4, align 4, !dbg !7979
  %15 = call noundef ptr @_ZNSt3__h19ostreambuf_iteratorIcNS_11char_traitsIcEEEC2B6v15004ERNS_13basic_ostreamIcS2_EE(ptr noundef nonnull align 4 dereferenceable(4) %9, ptr noundef nonnull align 4 dereferenceable(4) %14) #14, !dbg !7982
  %16 = load ptr, ptr %5, align 4, !dbg !7983
  %17 = load ptr, ptr %4, align 4, !dbg !7984
  %18 = load ptr, ptr %17, align 4, !dbg !7984
  %19 = getelementptr i8, ptr %18, i64 -12, !dbg !7984
  %20 = load i32, ptr %19, align 4, !dbg !7984
  %21 = getelementptr inbounds i8, ptr %17, i32 %20, !dbg !7984
  %22 = call noundef i32 @_ZNKSt3__h8ios_base5flagsB6v15004Ev(ptr noundef nonnull align 4 dereferenceable(72) %21), !dbg !7985
  %23 = and i32 %22, 176, !dbg !7986
  %24 = icmp eq i32 %23, 32, !dbg !7987
  br i1 %24, label %25, label %29, !dbg !7988

25:                                               ; preds = %13
  %26 = load ptr, ptr %5, align 4, !dbg !7989
  %27 = load i32, ptr %6, align 4, !dbg !7990
  %28 = getelementptr inbounds i8, ptr %26, i32 %27, !dbg !7991
  br label %31, !dbg !7988

29:                                               ; preds = %13
  %30 = load ptr, ptr %5, align 4, !dbg !7992
  br label %31, !dbg !7988

31:                                               ; preds = %29, %25
  %32 = phi ptr [ %28, %25 ], [ %30, %29 ], !dbg !7988
  %33 = load ptr, ptr %5, align 4, !dbg !7993
  %34 = load i32, ptr %6, align 4, !dbg !7994
  %35 = getelementptr inbounds i8, ptr %33, i32 %34, !dbg !7995
  %36 = load ptr, ptr %4, align 4, !dbg !7996
  %37 = load ptr, ptr %36, align 4, !dbg !7996
  %38 = getelementptr i8, ptr %37, i64 -12, !dbg !7996
  %39 = load i32, ptr %38, align 4, !dbg !7996
  %40 = getelementptr inbounds i8, ptr %36, i32 %39, !dbg !7996
  %41 = load ptr, ptr %4, align 4, !dbg !7997
  %42 = load ptr, ptr %41, align 4, !dbg !7997
  %43 = getelementptr i8, ptr %42, i64 -12, !dbg !7997
  %44 = load i32, ptr %43, align 4, !dbg !7997
  %45 = getelementptr inbounds i8, ptr %41, i32 %44, !dbg !7997
  %46 = call noundef zeroext i8 @_ZNKSt3__h9basic_iosIcNS_11char_traitsIcEEE4fillB6v15004Ev(ptr noundef nonnull align 4 dereferenceable(80) %45), !dbg !7998
  %47 = getelementptr inbounds %"class.std::__h::locale", ptr %9, i32 0, i32 0, !dbg !7999
  %48 = load [1 x i32], ptr %47, align 4, !dbg !7999
  %49 = call i32 @_ZNSt3__h16__pad_and_outputIcNS_11char_traitsIcEEEENS_19ostreambuf_iteratorIT_T0_EES6_PKS4_S8_S8_RNS_8ios_baseES4_([1 x i32] %48, ptr noundef %16, ptr noundef %32, ptr noundef %35, ptr noundef nonnull align 4 dereferenceable(72) %40, i8 noundef zeroext %46), !dbg !7999
  %50 = getelementptr inbounds %"class.std::__h::locale", ptr %8, i32 0, i32 0, !dbg !7999
  %51 = inttoptr i32 %49 to ptr, !dbg !7999
  store ptr %51, ptr %50, align 4, !dbg !7999
  %52 = call noundef zeroext i1 @_ZNKSt3__h19ostreambuf_iteratorIcNS_11char_traitsIcEEE6failedB6v15004Ev(ptr noundef nonnull align 4 dereferenceable(4) %8) #14, !dbg !8000
  br i1 %52, label %53, label %59, !dbg !8001

53:                                               ; preds = %31
  %54 = load ptr, ptr %4, align 4, !dbg !8002
  %55 = load ptr, ptr %54, align 4, !dbg !8002
  %56 = getelementptr i8, ptr %55, i64 -12, !dbg !8002
  %57 = load i32, ptr %56, align 4, !dbg !8002
  %58 = getelementptr inbounds i8, ptr %54, i32 %57, !dbg !8002
  call void @_ZNSt3__h9basic_iosIcNS_11char_traitsIcEEE8setstateB6v15004Ej(ptr noundef nonnull align 4 dereferenceable(80) %58, i32 noundef 5), !dbg !8003
  br label %59, !dbg !8002

59:                                               ; preds = %53, %31
  br label %60, !dbg !8004

60:                                               ; preds = %59, %3
  %61 = load ptr, ptr %4, align 4, !dbg !8005
  %62 = call noundef ptr @_ZNSt3__h13basic_ostreamIcNS_11char_traitsIcEEE6sentryD1Ev(ptr noundef nonnull align 4 dereferenceable(8) %7) #14, !dbg !8006
  ret ptr %61, !dbg !8006
}

declare noundef ptr @_ZNSt3__h13basic_ostreamIcNS_11char_traitsIcEEE6sentryC1ERS3_(ptr noundef nonnull returned align 4 dereferenceable(8), ptr noundef nonnull align 4 dereferenceable(4)) unnamed_addr #4

; Function Attrs: mustprogress noinline nounwind optnone sspstrong uwtable(sync)
define linkonce_odr hidden noundef zeroext i1 @_ZNKSt3__h13basic_ostreamIcNS_11char_traitsIcEEE6sentrycvbB6v15004Ev(ptr noundef nonnull align 4 dereferenceable(8) %0) #0 comdat align 2 !dbg !8007 {
  %2 = alloca ptr, align 4
  store ptr %0, ptr %2, align 4
  call void @llvm.dbg.declare(metadata ptr %2, metadata !8013, metadata !DIExpression()), !dbg !8015
  %3 = load ptr, ptr %2, align 4
  %4 = getelementptr inbounds %"class.std::__h::basic_ostream<char>::sentry", ptr %3, i32 0, i32 0, !dbg !8016
  %5 = load i8, ptr %4, align 4, !dbg !8016
  %6 = trunc i8 %5 to i1, !dbg !8016
  ret i1 %6, !dbg !8017
}

; Function Attrs: noinline nounwind optnone sspstrong uwtable(sync)
define linkonce_odr hidden noundef ptr @_ZNSt3__h19ostreambuf_iteratorIcNS_11char_traitsIcEEEC2B6v15004ERNS_13basic_ostreamIcS2_EE(ptr noundef nonnull returned align 4 dereferenceable(4) %0, ptr noundef nonnull align 4 dereferenceable(4) %1) unnamed_addr #3 comdat align 2 !dbg !8018 {
  %3 = alloca ptr, align 4
  %4 = alloca ptr, align 4
  store ptr %0, ptr %3, align 4
  call void @llvm.dbg.declare(metadata ptr %3, metadata !8019, metadata !DIExpression()), !dbg !8021
  store ptr %1, ptr %4, align 4
  call void @llvm.dbg.declare(metadata ptr %4, metadata !8022, metadata !DIExpression()), !dbg !8023
  %5 = load ptr, ptr %3, align 4
  %6 = getelementptr inbounds %"class.std::__h::locale", ptr %5, i32 0, i32 0, !dbg !8024
  %7 = load ptr, ptr %4, align 4, !dbg !8025
  %8 = load ptr, ptr %7, align 4, !dbg !8025
  %9 = getelementptr i8, ptr %8, i64 -12, !dbg !8025
  %10 = load i32, ptr %9, align 4, !dbg !8025
  %11 = getelementptr inbounds i8, ptr %7, i32 %10, !dbg !8025
  %12 = call noundef ptr @_ZNKSt3__h9basic_iosIcNS_11char_traitsIcEEE5rdbufB6v15004Ev(ptr noundef nonnull align 4 dereferenceable(80) %11), !dbg !8026
  store ptr %12, ptr %6, align 4, !dbg !8024
  ret ptr %5, !dbg !8027
}

; Function Attrs: mustprogress noinline nounwind optnone sspstrong uwtable(sync)
define linkonce_odr hidden noundef i32 @_ZNKSt3__h8ios_base5flagsB6v15004Ev(ptr noundef nonnull align 4 dereferenceable(72) %0) #0 comdat align 2 !dbg !8028 {
  %2 = alloca ptr, align 4
  store ptr %0, ptr %2, align 4
  call void @llvm.dbg.declare(metadata ptr %2, metadata !8029, metadata !DIExpression()), !dbg !8031
  %3 = load ptr, ptr %2, align 4
  %4 = getelementptr inbounds %"class.std::__h::ios_base", ptr %3, i32 0, i32 1, !dbg !8032
  %5 = load i32, ptr %4, align 4, !dbg !8032
  ret i32 %5, !dbg !8033
}

; Function Attrs: mustprogress noinline nounwind optnone sspstrong uwtable(sync)
define linkonce_odr hidden noundef zeroext i8 @_ZNKSt3__h9basic_iosIcNS_11char_traitsIcEEE4fillB6v15004Ev(ptr noundef nonnull align 4 dereferenceable(80) %0) #0 comdat align 2 !dbg !8034 {
  %2 = alloca ptr, align 4
  store ptr %0, ptr %2, align 4
  call void @llvm.dbg.declare(metadata ptr %2, metadata !8035, metadata !DIExpression()), !dbg !8036
  %3 = load ptr, ptr %2, align 4
  %4 = call noundef i32 @_ZNSt3__h11char_traitsIcE3eofEv() #14, !dbg !8037
  %5 = getelementptr inbounds %"class.std::__h::basic_ios", ptr %3, i32 0, i32 2, !dbg !8039
  %6 = load i32, ptr %5, align 4, !dbg !8039
  %7 = call noundef zeroext i1 @_ZNSt3__h11char_traitsIcE11eq_int_typeEii(i32 noundef %4, i32 noundef %6) #14, !dbg !8040
  br i1 %7, label %8, label %12, !dbg !8041

8:                                                ; preds = %1
  %9 = call noundef zeroext i8 @_ZNKSt3__h9basic_iosIcNS_11char_traitsIcEEE5widenB6v15004Ec(ptr noundef nonnull align 4 dereferenceable(80) %3, i8 noundef zeroext 32), !dbg !8042
  %10 = zext i8 %9 to i32, !dbg !8042
  %11 = getelementptr inbounds %"class.std::__h::basic_ios", ptr %3, i32 0, i32 2, !dbg !8043
  store i32 %10, ptr %11, align 4, !dbg !8044
  br label %12, !dbg !8043

12:                                               ; preds = %8, %1
  %13 = getelementptr inbounds %"class.std::__h::basic_ios", ptr %3, i32 0, i32 2, !dbg !8045
  %14 = load i32, ptr %13, align 4, !dbg !8045
  %15 = trunc i32 %14 to i8, !dbg !8045
  ret i8 %15, !dbg !8046
}

; Function Attrs: mustprogress noinline nounwind optnone sspstrong uwtable(sync)
define linkonce_odr hidden i32 @_ZNSt3__h16__pad_and_outputIcNS_11char_traitsIcEEEENS_19ostreambuf_iteratorIT_T0_EES6_PKS4_S8_S8_RNS_8ios_baseES4_([1 x i32] %0, ptr noundef %1, ptr noundef %2, ptr noundef %3, ptr noundef nonnull align 4 dereferenceable(72) %4, i8 noundef zeroext %5) #0 comdat !dbg !8047 {
  %7 = alloca %"class.std::__h::locale", align 4
  %8 = alloca %"class.std::__h::locale", align 4
  %9 = alloca ptr, align 4
  %10 = alloca ptr, align 4
  %11 = alloca ptr, align 4
  %12 = alloca ptr, align 4
  %13 = alloca i8, align 1
  %14 = alloca i32, align 4
  %15 = alloca i32, align 4
  %16 = alloca i32, align 4
  %17 = alloca %"class.std::__h::basic_string", align 4
  %18 = alloca i32, align 4
  %19 = getelementptr inbounds %"class.std::__h::locale", ptr %8, i32 0, i32 0
  store [1 x i32] %0, ptr %19, align 4
  call void @llvm.dbg.declare(metadata ptr %8, metadata !8051, metadata !DIExpression()), !dbg !8052
  store ptr %1, ptr %9, align 4
  call void @llvm.dbg.declare(metadata ptr %9, metadata !8053, metadata !DIExpression()), !dbg !8054
  store ptr %2, ptr %10, align 4
  call void @llvm.dbg.declare(metadata ptr %10, metadata !8055, metadata !DIExpression()), !dbg !8056
  store ptr %3, ptr %11, align 4
  call void @llvm.dbg.declare(metadata ptr %11, metadata !8057, metadata !DIExpression()), !dbg !8058
  store ptr %4, ptr %12, align 4
  call void @llvm.dbg.declare(metadata ptr %12, metadata !8059, metadata !DIExpression()), !dbg !8060
  store i8 %5, ptr %13, align 1
  call void @llvm.dbg.declare(metadata ptr %13, metadata !8061, metadata !DIExpression()), !dbg !8062
  %20 = getelementptr inbounds %"class.std::__h::locale", ptr %8, i32 0, i32 0, !dbg !8063
  %21 = load ptr, ptr %20, align 4, !dbg !8063
  %22 = icmp eq ptr %21, null, !dbg !8065
  br i1 %22, label %23, label %24, !dbg !8066

23:                                               ; preds = %6
  call void @llvm.memcpy.p0.p0.i32(ptr align 4 %7, ptr align 4 %8, i32 4, i1 false), !dbg !8067
  br label %102, !dbg !8068

24:                                               ; preds = %6
  call void @llvm.dbg.declare(metadata ptr %14, metadata !8069, metadata !DIExpression()), !dbg !8070
  store i32 0, ptr %14, align 4, !dbg !8070, !annotation !6167
  %25 = load ptr, ptr %11, align 4, !dbg !8071
  %26 = load ptr, ptr %9, align 4, !dbg !8072
  %27 = ptrtoint ptr %25 to i32, !dbg !8073
  %28 = ptrtoint ptr %26 to i32, !dbg !8073
  %29 = sub i32 %27, %28, !dbg !8073
  store i32 %29, ptr %14, align 4, !dbg !8070
  call void @llvm.dbg.declare(metadata ptr %15, metadata !8074, metadata !DIExpression()), !dbg !8075
  store i32 0, ptr %15, align 4, !dbg !8075, !annotation !6167
  %30 = load ptr, ptr %12, align 4, !dbg !8076
  %31 = call noundef i32 @_ZNKSt3__h8ios_base5widthB6v15004Ev(ptr noundef nonnull align 4 dereferenceable(72) %30), !dbg !8077
  store i32 %31, ptr %15, align 4, !dbg !8075
  %32 = load i32, ptr %15, align 4, !dbg !8078
  %33 = load i32, ptr %14, align 4, !dbg !8080
  %34 = icmp sgt i32 %32, %33, !dbg !8081
  br i1 %34, label %35, label %39, !dbg !8082

35:                                               ; preds = %24
  %36 = load i32, ptr %14, align 4, !dbg !8083
  %37 = load i32, ptr %15, align 4, !dbg !8084
  %38 = sub nsw i32 %37, %36, !dbg !8084
  store i32 %38, ptr %15, align 4, !dbg !8084
  br label %40, !dbg !8085

39:                                               ; preds = %24
  store i32 0, ptr %15, align 4, !dbg !8086
  br label %40

40:                                               ; preds = %39, %35
  call void @llvm.dbg.declare(metadata ptr %16, metadata !8087, metadata !DIExpression()), !dbg !8088
  store i32 0, ptr %16, align 4, !dbg !8088, !annotation !6167
  %41 = load ptr, ptr %10, align 4, !dbg !8089
  %42 = load ptr, ptr %9, align 4, !dbg !8090
  %43 = ptrtoint ptr %41 to i32, !dbg !8091
  %44 = ptrtoint ptr %42 to i32, !dbg !8091
  %45 = sub i32 %43, %44, !dbg !8091
  store i32 %45, ptr %16, align 4, !dbg !8088
  %46 = load i32, ptr %16, align 4, !dbg !8092
  %47 = icmp sgt i32 %46, 0, !dbg !8094
  br i1 %47, label %48, label %59, !dbg !8095

48:                                               ; preds = %40
  %49 = getelementptr inbounds %"class.std::__h::locale", ptr %8, i32 0, i32 0, !dbg !8096
  %50 = load ptr, ptr %49, align 4, !dbg !8096
  %51 = load ptr, ptr %9, align 4, !dbg !8099
  %52 = load i32, ptr %16, align 4, !dbg !8100
  %53 = call noundef i32 @_ZNSt3__h15basic_streambufIcNS_11char_traitsIcEEE5sputnB6v15004EPKci(ptr noundef nonnull align 4 dereferenceable(32) %50, ptr noundef %51, i32 noundef %52), !dbg !8101
  %54 = load i32, ptr %16, align 4, !dbg !8102
  %55 = icmp ne i32 %53, %54, !dbg !8103
  br i1 %55, label %56, label %58, !dbg !8104

56:                                               ; preds = %48
  %57 = getelementptr inbounds %"class.std::__h::locale", ptr %8, i32 0, i32 0, !dbg !8105
  store ptr null, ptr %57, align 4, !dbg !8107
  call void @llvm.memcpy.p0.p0.i32(ptr align 4 %7, ptr align 4 %8, i32 4, i1 false), !dbg !8108
  br label %102, !dbg !8109

58:                                               ; preds = %48
  br label %59, !dbg !8110

59:                                               ; preds = %58, %40
  %60 = load i32, ptr %15, align 4, !dbg !8111
  %61 = icmp sgt i32 %60, 0, !dbg !8113
  br i1 %61, label %62, label %80, !dbg !8114

62:                                               ; preds = %59
  call void @llvm.dbg.declare(metadata ptr %17, metadata !8115, metadata !DIExpression()), !dbg !8117
  call void @llvm.memset.p0.i32(ptr align 4 %17, i8 0, i32 12, i1 false), !dbg !8117, !annotation !6167
  %63 = load i32, ptr %15, align 4, !dbg !8118
  %64 = load i8, ptr %13, align 1, !dbg !8119
  %65 = call noundef ptr @_ZNSt3__h12basic_stringIcNS_11char_traitsIcEENS_9allocatorIcEEEC2B6v15004Ejc(ptr noundef nonnull align 4 dereferenceable(12) %17, i32 noundef %63, i8 noundef zeroext %64), !dbg !8117
  %66 = getelementptr inbounds %"class.std::__h::locale", ptr %8, i32 0, i32 0, !dbg !8120
  %67 = load ptr, ptr %66, align 4, !dbg !8120
  %68 = call noundef ptr @_ZNSt3__h12basic_stringIcNS_11char_traitsIcEENS_9allocatorIcEEE4dataB6v15004Ev(ptr noundef nonnull align 4 dereferenceable(12) %17) #14, !dbg !8122
  %69 = load i32, ptr %15, align 4, !dbg !8123
  %70 = call noundef i32 @_ZNSt3__h15basic_streambufIcNS_11char_traitsIcEEE5sputnB6v15004EPKci(ptr noundef nonnull align 4 dereferenceable(32) %67, ptr noundef %68, i32 noundef %69), !dbg !8124
  %71 = load i32, ptr %15, align 4, !dbg !8125
  %72 = icmp ne i32 %70, %71, !dbg !8126
  br i1 %72, label %73, label %75, !dbg !8127

73:                                               ; preds = %62
  %74 = getelementptr inbounds %"class.std::__h::locale", ptr %8, i32 0, i32 0, !dbg !8128
  store ptr null, ptr %74, align 4, !dbg !8130
  call void @llvm.memcpy.p0.p0.i32(ptr align 4 %7, ptr align 4 %8, i32 4, i1 false), !dbg !8131
  store i32 1, ptr %18, align 4
  br label %76, !dbg !8132

75:                                               ; preds = %62
  store i32 0, ptr %18, align 4, !dbg !8133
  br label %76, !dbg !8133

76:                                               ; preds = %75, %73
  %77 = call noundef ptr @_ZNSt3__h12basic_stringIcNS_11char_traitsIcEENS_9allocatorIcEEED1Ev(ptr noundef nonnull align 4 dereferenceable(12) %17) #14, !dbg !8133
  %78 = load i32, ptr %18, align 4
  switch i32 %78, label %106 [
    i32 0, label %79
    i32 1, label %102
  ]

79:                                               ; preds = %76
  br label %80, !dbg !8134

80:                                               ; preds = %79, %59
  %81 = load ptr, ptr %11, align 4, !dbg !8135
  %82 = load ptr, ptr %10, align 4, !dbg !8136
  %83 = ptrtoint ptr %81 to i32, !dbg !8137
  %84 = ptrtoint ptr %82 to i32, !dbg !8137
  %85 = sub i32 %83, %84, !dbg !8137
  store i32 %85, ptr %16, align 4, !dbg !8138
  %86 = load i32, ptr %16, align 4, !dbg !8139
  %87 = icmp sgt i32 %86, 0, !dbg !8141
  br i1 %87, label %88, label %99, !dbg !8142

88:                                               ; preds = %80
  %89 = getelementptr inbounds %"class.std::__h::locale", ptr %8, i32 0, i32 0, !dbg !8143
  %90 = load ptr, ptr %89, align 4, !dbg !8143
  %91 = load ptr, ptr %10, align 4, !dbg !8146
  %92 = load i32, ptr %16, align 4, !dbg !8147
  %93 = call noundef i32 @_ZNSt3__h15basic_streambufIcNS_11char_traitsIcEEE5sputnB6v15004EPKci(ptr noundef nonnull align 4 dereferenceable(32) %90, ptr noundef %91, i32 noundef %92), !dbg !8148
  %94 = load i32, ptr %16, align 4, !dbg !8149
  %95 = icmp ne i32 %93, %94, !dbg !8150
  br i1 %95, label %96, label %98, !dbg !8151

96:                                               ; preds = %88
  %97 = getelementptr inbounds %"class.std::__h::locale", ptr %8, i32 0, i32 0, !dbg !8152
  store ptr null, ptr %97, align 4, !dbg !8154
  call void @llvm.memcpy.p0.p0.i32(ptr align 4 %7, ptr align 4 %8, i32 4, i1 false), !dbg !8155
  br label %102, !dbg !8156

98:                                               ; preds = %88
  br label %99, !dbg !8157

99:                                               ; preds = %98, %80
  %100 = load ptr, ptr %12, align 4, !dbg !8158
  %101 = call noundef i32 @_ZNSt3__h8ios_base5widthB6v15004Ei(ptr noundef nonnull align 4 dereferenceable(72) %100, i32 noundef 0), !dbg !8159
  call void @llvm.memcpy.p0.p0.i32(ptr align 4 %7, ptr align 4 %8, i32 4, i1 false), !dbg !8160
  br label %102, !dbg !8161

102:                                              ; preds = %99, %96, %76, %56, %23
  %103 = getelementptr inbounds %"class.std::__h::locale", ptr %7, i32 0, i32 0, !dbg !8162
  %104 = load ptr, ptr %103, align 4, !dbg !8162
  %105 = ptrtoint ptr %104 to i32, !dbg !8162
  ret i32 %105, !dbg !8162

106:                                              ; preds = %76
  unreachable
}

; Function Attrs: mustprogress noinline nounwind optnone sspstrong uwtable(sync)
define linkonce_odr hidden noundef zeroext i1 @_ZNKSt3__h19ostreambuf_iteratorIcNS_11char_traitsIcEEE6failedB6v15004Ev(ptr noundef nonnull align 4 dereferenceable(4) %0) #0 comdat align 2 !dbg !8163 {
  %2 = alloca ptr, align 4
  store ptr %0, ptr %2, align 4
  call void @llvm.dbg.declare(metadata ptr %2, metadata !8164, metadata !DIExpression()), !dbg !8166
  %3 = load ptr, ptr %2, align 4
  %4 = getelementptr inbounds %"class.std::__h::locale", ptr %3, i32 0, i32 0, !dbg !8167
  %5 = load ptr, ptr %4, align 4, !dbg !8167
  %6 = icmp eq ptr %5, null, !dbg !8168
  ret i1 %6, !dbg !8169
}

; Function Attrs: mustprogress noinline nounwind optnone sspstrong uwtable(sync)
define linkonce_odr hidden void @_ZNSt3__h9basic_iosIcNS_11char_traitsIcEEE8setstateB6v15004Ej(ptr noundef nonnull align 4 dereferenceable(80) %0, i32 noundef %1) #0 comdat align 2 !dbg !8170 {
  %3 = alloca ptr, align 4
  %4 = alloca i32, align 4
  store ptr %0, ptr %3, align 4
  call void @llvm.dbg.declare(metadata ptr %3, metadata !8171, metadata !DIExpression()), !dbg !8173
  store i32 %1, ptr %4, align 4
  call void @llvm.dbg.declare(metadata ptr %4, metadata !8174, metadata !DIExpression()), !dbg !8175
  %5 = load ptr, ptr %3, align 4
  %6 = load i32, ptr %4, align 4, !dbg !8176
  call void @_ZNSt3__h8ios_base8setstateB6v15004Ej(ptr noundef nonnull align 4 dereferenceable(72) %5, i32 noundef %6), !dbg !8177
  ret void, !dbg !8178
}

; Function Attrs: nounwind
declare noundef ptr @_ZNSt3__h13basic_ostreamIcNS_11char_traitsIcEEE6sentryD1Ev(ptr noundef nonnull returned align 4 dereferenceable(8)) unnamed_addr #5

; Function Attrs: mustprogress noinline nounwind optnone sspstrong uwtable(sync)
define linkonce_odr hidden void @_ZNSt3__h8ios_base8setstateB6v15004Ej(ptr noundef nonnull align 4 dereferenceable(72) %0, i32 noundef %1) #0 comdat align 2 !dbg !8179 {
  %3 = alloca ptr, align 4
  %4 = alloca i32, align 4
  store ptr %0, ptr %3, align 4
  call void @llvm.dbg.declare(metadata ptr %3, metadata !8180, metadata !DIExpression()), !dbg !8182
  store i32 %1, ptr %4, align 4
  call void @llvm.dbg.declare(metadata ptr %4, metadata !8183, metadata !DIExpression()), !dbg !8184
  %5 = load ptr, ptr %3, align 4
  %6 = getelementptr inbounds %"class.std::__h::ios_base", ptr %5, i32 0, i32 4, !dbg !8185
  %7 = load i32, ptr %6, align 4, !dbg !8185
  %8 = load i32, ptr %4, align 4, !dbg !8186
  %9 = or i32 %7, %8, !dbg !8187
  call void @_ZNSt3__h8ios_base5clearEj(ptr noundef nonnull align 4 dereferenceable(72) %5, i32 noundef %9), !dbg !8188
  ret void, !dbg !8189
}

declare void @_ZNSt3__h8ios_base5clearEj(ptr noundef nonnull align 4 dereferenceable(72), i32 noundef) #4

; Function Attrs: mustprogress noinline nounwind optnone sspstrong uwtable(sync)
define linkonce_odr hidden noundef i32 @_ZNKSt3__h8ios_base5widthB6v15004Ev(ptr noundef nonnull align 4 dereferenceable(72) %0) #0 comdat align 2 !dbg !8190 {
  %2 = alloca ptr, align 4
  store ptr %0, ptr %2, align 4
  call void @llvm.dbg.declare(metadata ptr %2, metadata !8191, metadata !DIExpression()), !dbg !8192
  %3 = load ptr, ptr %2, align 4
  %4 = getelementptr inbounds %"class.std::__h::ios_base", ptr %3, i32 0, i32 3, !dbg !8193
  %5 = load i32, ptr %4, align 4, !dbg !8193
  ret i32 %5, !dbg !8194
}

; Function Attrs: mustprogress noinline nounwind optnone sspstrong uwtable(sync)
define linkonce_odr hidden noundef i32 @_ZNSt3__h15basic_streambufIcNS_11char_traitsIcEEE5sputnB6v15004EPKci(ptr noundef nonnull align 4 dereferenceable(32) %0, ptr noundef %1, i32 noundef %2) #0 comdat align 2 !dbg !8195 {
  %4 = alloca ptr, align 4
  %5 = alloca ptr, align 4
  %6 = alloca i32, align 4
  store ptr %0, ptr %4, align 4
  call void @llvm.dbg.declare(metadata ptr %4, metadata !8201, metadata !DIExpression()), !dbg !8202
  store ptr %1, ptr %5, align 4
  call void @llvm.dbg.declare(metadata ptr %5, metadata !8203, metadata !DIExpression()), !dbg !8204
  store i32 %2, ptr %6, align 4
  call void @llvm.dbg.declare(metadata ptr %6, metadata !8205, metadata !DIExpression()), !dbg !8206
  %7 = load ptr, ptr %4, align 4
  %8 = load ptr, ptr %5, align 4, !dbg !8207
  %9 = load i32, ptr %6, align 4, !dbg !8208
  %10 = load ptr, ptr %7, align 4, !dbg !8209
  %11 = getelementptr inbounds ptr, ptr %10, i64 12, !dbg !8209
  %12 = load ptr, ptr %11, align 4, !dbg !8209
  %13 = call noundef i32 %12(ptr noundef nonnull align 4 dereferenceable(32) %7, ptr noundef %8, i32 noundef %9), !dbg !8209
  ret i32 %13, !dbg !8210
}

; Function Attrs: noinline nounwind optnone sspstrong uwtable(sync)
define linkonce_odr hidden noundef ptr @_ZNSt3__h12basic_stringIcNS_11char_traitsIcEENS_9allocatorIcEEEC2B6v15004Ejc(ptr noundef nonnull returned align 4 dereferenceable(12) %0, i32 noundef %1, i8 noundef zeroext %2) unnamed_addr #3 comdat align 2 !dbg !8211 {
  %4 = alloca ptr, align 4
  %5 = alloca i32, align 4
  %6 = alloca i8, align 1
  %7 = alloca %"struct.std::__h::__less.5", align 1
  %8 = alloca %"struct.std::__h::__less.5", align 1
  store ptr %0, ptr %4, align 4
  call void @llvm.dbg.declare(metadata ptr %4, metadata !8212, metadata !DIExpression()), !dbg !8213
  store i32 %1, ptr %5, align 4
  call void @llvm.dbg.declare(metadata ptr %5, metadata !8214, metadata !DIExpression()), !dbg !8215
  store i8 %2, ptr %6, align 1
  call void @llvm.dbg.declare(metadata ptr %6, metadata !8216, metadata !DIExpression()), !dbg !8217
  %9 = load ptr, ptr %4, align 4
  %10 = getelementptr inbounds %"class.std::__h::basic_string", ptr %9, i32 0, i32 0, !dbg !8218
  %11 = call noundef ptr @_ZNSt3__h17__compressed_pairINS_12basic_stringIcNS_11char_traitsIcEENS_9allocatorIcEEE5__repES5_EC2B6v15004INS_18__default_init_tagESA_EEOT_OT0_(ptr noundef nonnull align 4 dereferenceable(12) %10, ptr noundef nonnull align 1 dereferenceable(1) %7, ptr noundef nonnull align 1 dereferenceable(1) %8), !dbg !8218
  %12 = load i32, ptr %5, align 4, !dbg !8219
  %13 = load i8, ptr %6, align 1, !dbg !8221
  call void @_ZNSt3__h12basic_stringIcNS_11char_traitsIcEENS_9allocatorIcEEE6__initEjc(ptr noundef nonnull align 4 dereferenceable(12) %9, i32 noundef %12, i8 noundef zeroext %13), !dbg !8222
  call void @_ZNSt3__h19__debug_db_insert_cB6v15004INS_12basic_stringIcNS_11char_traitsIcEENS_9allocatorIcEEEEEEvPT_(ptr noundef %9), !dbg !8223
  ret ptr %9, !dbg !8224
}

; Function Attrs: mustprogress noinline nounwind optnone sspstrong uwtable(sync)
define linkonce_odr hidden noundef ptr @_ZNSt3__h12basic_stringIcNS_11char_traitsIcEENS_9allocatorIcEEE4dataB6v15004Ev(ptr noundef nonnull align 4 dereferenceable(12) %0) #0 comdat align 2 !dbg !8225 {
  %2 = alloca ptr, align 4
  store ptr %0, ptr %2, align 4
  call void @llvm.dbg.declare(metadata ptr %2, metadata !8226, metadata !DIExpression()), !dbg !8227
  %3 = load ptr, ptr %2, align 4
  %4 = call noundef ptr @_ZNSt3__h12basic_stringIcNS_11char_traitsIcEENS_9allocatorIcEEE13__get_pointerB6v15004Ev(ptr noundef nonnull align 4 dereferenceable(12) %3) #14, !dbg !8228
  %5 = call noundef ptr @_ZNSt3__h12__to_addressB6v15004IcEEPT_S2_(ptr noundef %4) #14, !dbg !8229
  ret ptr %5, !dbg !8230
}

; Function Attrs: mustprogress noinline nounwind optnone sspstrong uwtable(sync)
define linkonce_odr hidden noundef i32 @_ZNSt3__h8ios_base5widthB6v15004Ei(ptr noundef nonnull align 4 dereferenceable(72) %0, i32 noundef %1) #0 comdat align 2 !dbg !8231 {
  %3 = alloca ptr, align 4
  %4 = alloca i32, align 4
  %5 = alloca i32, align 4
  store ptr %0, ptr %3, align 4
  call void @llvm.dbg.declare(metadata ptr %3, metadata !8232, metadata !DIExpression()), !dbg !8233
  store i32 %1, ptr %4, align 4
  call void @llvm.dbg.declare(metadata ptr %4, metadata !8234, metadata !DIExpression()), !dbg !8235
  %6 = load ptr, ptr %3, align 4
  call void @llvm.dbg.declare(metadata ptr %5, metadata !8236, metadata !DIExpression()), !dbg !8237
  store i32 0, ptr %5, align 4, !dbg !8237, !annotation !6167
  %7 = getelementptr inbounds %"class.std::__h::ios_base", ptr %6, i32 0, i32 3, !dbg !8238
  %8 = load i32, ptr %7, align 4, !dbg !8238
  store i32 %8, ptr %5, align 4, !dbg !8237
  %9 = load i32, ptr %4, align 4, !dbg !8239
  %10 = getelementptr inbounds %"class.std::__h::ios_base", ptr %6, i32 0, i32 3, !dbg !8240
  store i32 %9, ptr %10, align 4, !dbg !8241
  %11 = load i32, ptr %5, align 4, !dbg !8242
  ret i32 %11, !dbg !8243
}

; Function Attrs: mustprogress noinline nounwind optnone sspstrong uwtable(sync)
define linkonce_odr hidden noundef ptr @_ZNSt3__h12basic_stringIcNS_11char_traitsIcEENS_9allocatorIcEEE13__get_pointerB6v15004Ev(ptr noundef nonnull align 4 dereferenceable(12) %0) #0 comdat align 2 !dbg !8244 {
  %2 = alloca ptr, align 4
  store ptr %0, ptr %2, align 4
  call void @llvm.dbg.declare(metadata ptr %2, metadata !8245, metadata !DIExpression()), !dbg !8246
  %3 = load ptr, ptr %2, align 4
  %4 = call noundef zeroext i1 @_ZNKSt3__h12basic_stringIcNS_11char_traitsIcEENS_9allocatorIcEEE9__is_longB6v15004Ev(ptr noundef nonnull align 4 dereferenceable(12) %3) #14, !dbg !8247
  br i1 %4, label %5, label %7, !dbg !8247

5:                                                ; preds = %1
  %6 = call noundef ptr @_ZNSt3__h12basic_stringIcNS_11char_traitsIcEENS_9allocatorIcEEE18__get_long_pointerB6v15004Ev(ptr noundef nonnull align 4 dereferenceable(12) %3) #14, !dbg !8248
  br label %9, !dbg !8247

7:                                                ; preds = %1
  %8 = call noundef ptr @_ZNSt3__h12basic_stringIcNS_11char_traitsIcEENS_9allocatorIcEEE19__get_short_pointerB6v15004Ev(ptr noundef nonnull align 4 dereferenceable(12) %3) #14, !dbg !8249
  br label %9, !dbg !8247

9:                                                ; preds = %7, %5
  %10 = phi ptr [ %6, %5 ], [ %8, %7 ], !dbg !8247
  ret ptr %10, !dbg !8250
}

; Function Attrs: mustprogress noinline nounwind optnone sspstrong uwtable(sync)
define linkonce_odr hidden noundef ptr @_ZNSt3__h12__to_addressB6v15004IcEEPT_S2_(ptr noundef %0) #0 comdat !dbg !8251 {
  %2 = alloca ptr, align 4
  store ptr %0, ptr %2, align 4
  call void @llvm.dbg.declare(metadata ptr %2, metadata !8253, metadata !DIExpression()), !dbg !8254
  %3 = load ptr, ptr %2, align 4, !dbg !8255
  ret ptr %3, !dbg !8256
}

; Function Attrs: mustprogress noinline nounwind optnone sspstrong uwtable(sync)
define linkonce_odr hidden noundef zeroext i1 @_ZNKSt3__h12basic_stringIcNS_11char_traitsIcEENS_9allocatorIcEEE9__is_longB6v15004Ev(ptr noundef nonnull align 4 dereferenceable(12) %0) #0 comdat align 2 !dbg !8257 {
  %2 = alloca ptr, align 4
  store ptr %0, ptr %2, align 4
  call void @llvm.dbg.declare(metadata ptr %2, metadata !8258, metadata !DIExpression()), !dbg !8259
  %3 = load ptr, ptr %2, align 4
  %4 = getelementptr inbounds %"class.std::__h::basic_string", ptr %3, i32 0, i32 0, !dbg !8260
  %5 = call noundef nonnull align 4 dereferenceable(12) ptr @_ZNKSt3__h17__compressed_pairINS_12basic_stringIcNS_11char_traitsIcEENS_9allocatorIcEEE5__repES5_E5firstB6v15004Ev(ptr noundef nonnull align 4 dereferenceable(12) %4) #14, !dbg !8261
  %6 = getelementptr inbounds %"struct.std::__h::basic_string<char>::__rep", ptr %5, i32 0, i32 0, !dbg !8262
  %7 = getelementptr inbounds %"struct.std::__h::basic_string<char>::__short", ptr %6, i32 0, i32 0, !dbg !8263
  %8 = load i8, ptr %7, align 4, !dbg !8263
  %9 = and i8 %8, 1, !dbg !8263
  %10 = icmp ne i8 %9, 0, !dbg !8260
  ret i1 %10, !dbg !8264
}

; Function Attrs: mustprogress noinline nounwind optnone sspstrong uwtable(sync)
define linkonce_odr hidden noundef ptr @_ZNSt3__h12basic_stringIcNS_11char_traitsIcEENS_9allocatorIcEEE18__get_long_pointerB6v15004Ev(ptr noundef nonnull align 4 dereferenceable(12) %0) #0 comdat align 2 !dbg !8265 {
  %2 = alloca ptr, align 4
  store ptr %0, ptr %2, align 4
  call void @llvm.dbg.declare(metadata ptr %2, metadata !8266, metadata !DIExpression()), !dbg !8267
  %3 = load ptr, ptr %2, align 4
  %4 = getelementptr inbounds %"class.std::__h::basic_string", ptr %3, i32 0, i32 0, !dbg !8268
  %5 = call noundef nonnull align 4 dereferenceable(12) ptr @_ZNSt3__h17__compressed_pairINS_12basic_stringIcNS_11char_traitsIcEENS_9allocatorIcEEE5__repES5_E5firstB6v15004Ev(ptr noundef nonnull align 4 dereferenceable(12) %4) #14, !dbg !8269
  %6 = getelementptr inbounds %"struct.std::__h::basic_string<char>::__rep", ptr %5, i32 0, i32 0, !dbg !8270
  %7 = getelementptr inbounds %"struct.std::__h::basic_string<char>::__long", ptr %6, i32 0, i32 2, !dbg !8271
  %8 = load ptr, ptr %7, align 4, !dbg !8271
  ret ptr %8, !dbg !8272
}

; Function Attrs: mustprogress noinline nounwind optnone sspstrong uwtable(sync)
define linkonce_odr hidden noundef ptr @_ZNSt3__h12basic_stringIcNS_11char_traitsIcEENS_9allocatorIcEEE19__get_short_pointerB6v15004Ev(ptr noundef nonnull align 4 dereferenceable(12) %0) #0 comdat align 2 !dbg !8273 {
  %2 = alloca ptr, align 4
  store ptr %0, ptr %2, align 4
  call void @llvm.dbg.declare(metadata ptr %2, metadata !8274, metadata !DIExpression()), !dbg !8275
  %3 = load ptr, ptr %2, align 4
  %4 = getelementptr inbounds %"class.std::__h::basic_string", ptr %3, i32 0, i32 0, !dbg !8276
  %5 = call noundef nonnull align 4 dereferenceable(12) ptr @_ZNSt3__h17__compressed_pairINS_12basic_stringIcNS_11char_traitsIcEENS_9allocatorIcEEE5__repES5_E5firstB6v15004Ev(ptr noundef nonnull align 4 dereferenceable(12) %4) #14, !dbg !8277
  %6 = getelementptr inbounds %"struct.std::__h::basic_string<char>::__rep", ptr %5, i32 0, i32 0, !dbg !8278
  %7 = getelementptr inbounds %"struct.std::__h::basic_string<char>::__short", ptr %6, i32 0, i32 2, !dbg !8279
  %8 = getelementptr inbounds [11 x i8], ptr %7, i32 0, i32 0, !dbg !8276
  %9 = call noundef ptr @_ZNSt3__h14pointer_traitsIPcE10pointer_toB6v15004ERc(ptr noundef nonnull align 1 dereferenceable(1) %8) #14, !dbg !8280
  ret ptr %9, !dbg !8281
}

; Function Attrs: mustprogress noinline nounwind optnone sspstrong uwtable(sync)
define linkonce_odr hidden noundef nonnull align 4 dereferenceable(12) ptr @_ZNSt3__h17__compressed_pairINS_12basic_stringIcNS_11char_traitsIcEENS_9allocatorIcEEE5__repES5_E5firstB6v15004Ev(ptr noundef nonnull align 4 dereferenceable(12) %0) #0 comdat align 2 !dbg !8282 {
  %2 = alloca ptr, align 4
  store ptr %0, ptr %2, align 4
  call void @llvm.dbg.declare(metadata ptr %2, metadata !8283, metadata !DIExpression()), !dbg !8284
  %3 = load ptr, ptr %2, align 4
  %4 = call noundef nonnull align 4 dereferenceable(12) ptr @_ZNSt3__h22__compressed_pair_elemINS_12basic_stringIcNS_11char_traitsIcEENS_9allocatorIcEEE5__repELi0ELb0EE5__getB6v15004Ev(ptr noundef nonnull align 4 dereferenceable(12) %3) #14, !dbg !8285
  ret ptr %4, !dbg !8286
}

; Function Attrs: mustprogress noinline nounwind optnone sspstrong uwtable(sync)
define linkonce_odr hidden noundef ptr @_ZNSt3__h14pointer_traitsIPcE10pointer_toB6v15004ERc(ptr noundef nonnull align 1 dereferenceable(1) %0) #0 comdat align 2 !dbg !8287 {
  %2 = alloca ptr, align 4
  store ptr %0, ptr %2, align 4
  call void @llvm.dbg.declare(metadata ptr %2, metadata !8304, metadata !DIExpression()), !dbg !8305
  %3 = load ptr, ptr %2, align 4, !dbg !8306
  ret ptr %3, !dbg !8307
}

; Function Attrs: mustprogress noinline nounwind optnone sspstrong uwtable(sync)
define linkonce_odr hidden noundef nonnull align 4 dereferenceable(12) ptr @_ZNSt3__h22__compressed_pair_elemINS_12basic_stringIcNS_11char_traitsIcEENS_9allocatorIcEEE5__repELi0ELb0EE5__getB6v15004Ev(ptr noundef nonnull align 4 dereferenceable(12) %0) #0 comdat align 2 !dbg !8308 {
  %2 = alloca ptr, align 4
  store ptr %0, ptr %2, align 4
  call void @llvm.dbg.declare(metadata ptr %2, metadata !8309, metadata !DIExpression()), !dbg !8310
  %3 = load ptr, ptr %2, align 4
  %4 = getelementptr inbounds %"struct.std::__h::__compressed_pair_elem", ptr %3, i32 0, i32 0, !dbg !8311
  ret ptr %4, !dbg !8312
}

; Function Attrs: mustprogress noinline nounwind optnone sspstrong uwtable(sync)
define linkonce_odr hidden noundef nonnull align 4 dereferenceable(12) ptr @_ZNKSt3__h17__compressed_pairINS_12basic_stringIcNS_11char_traitsIcEENS_9allocatorIcEEE5__repES5_E5firstB6v15004Ev(ptr noundef nonnull align 4 dereferenceable(12) %0) #0 comdat align 2 !dbg !8313 {
  %2 = alloca ptr, align 4
  store ptr %0, ptr %2, align 4
  call void @llvm.dbg.declare(metadata ptr %2, metadata !8314, metadata !DIExpression()), !dbg !8316
  %3 = load ptr, ptr %2, align 4
  %4 = call noundef nonnull align 4 dereferenceable(12) ptr @_ZNKSt3__h22__compressed_pair_elemINS_12basic_stringIcNS_11char_traitsIcEENS_9allocatorIcEEE5__repELi0ELb0EE5__getB6v15004Ev(ptr noundef nonnull align 4 dereferenceable(12) %3) #14, !dbg !8317
  ret ptr %4, !dbg !8318
}

; Function Attrs: mustprogress noinline nounwind optnone sspstrong uwtable(sync)
define linkonce_odr hidden noundef nonnull align 4 dereferenceable(12) ptr @_ZNKSt3__h22__compressed_pair_elemINS_12basic_stringIcNS_11char_traitsIcEENS_9allocatorIcEEE5__repELi0ELb0EE5__getB6v15004Ev(ptr noundef nonnull align 4 dereferenceable(12) %0) #0 comdat align 2 !dbg !8319 {
  %2 = alloca ptr, align 4
  store ptr %0, ptr %2, align 4
  call void @llvm.dbg.declare(metadata ptr %2, metadata !8320, metadata !DIExpression()), !dbg !8322
  %3 = load ptr, ptr %2, align 4
  %4 = getelementptr inbounds %"struct.std::__h::__compressed_pair_elem", ptr %3, i32 0, i32 0, !dbg !8323
  ret ptr %4, !dbg !8324
}

; Function Attrs: noinline nounwind optnone sspstrong uwtable(sync)
define linkonce_odr hidden noundef ptr @_ZNSt3__h17__compressed_pairINS_12basic_stringIcNS_11char_traitsIcEENS_9allocatorIcEEE5__repES5_EC2B6v15004INS_18__default_init_tagESA_EEOT_OT0_(ptr noundef nonnull returned align 4 dereferenceable(12) %0, ptr noundef nonnull align 1 dereferenceable(1) %1, ptr noundef nonnull align 1 dereferenceable(1) %2) unnamed_addr #3 comdat align 2 !dbg !8325 {
  %4 = alloca ptr, align 4
  %5 = alloca ptr, align 4
  %6 = alloca ptr, align 4
  %7 = alloca %"struct.std::__h::__less.5", align 1
  %8 = alloca %"struct.std::__h::__less.5", align 1
  store ptr %0, ptr %4, align 4
  call void @llvm.dbg.declare(metadata ptr %4, metadata !8333, metadata !DIExpression()), !dbg !8334
  store ptr %1, ptr %5, align 4
  call void @llvm.dbg.declare(metadata ptr %5, metadata !8335, metadata !DIExpression()), !dbg !8336
  store ptr %2, ptr %6, align 4
  call void @llvm.dbg.declare(metadata ptr %6, metadata !8337, metadata !DIExpression()), !dbg !8338
  %9 = load ptr, ptr %4, align 4
  %10 = load ptr, ptr %5, align 4, !dbg !8339
  %11 = call noundef ptr @_ZNSt3__h22__compressed_pair_elemINS_12basic_stringIcNS_11char_traitsIcEENS_9allocatorIcEEE5__repELi0ELb0EEC2B6v15004ENS_18__default_init_tagE(ptr noundef nonnull align 4 dereferenceable(12) %9), !dbg !8340
  %12 = load ptr, ptr %6, align 4, !dbg !8341
  %13 = call noundef ptr @_ZNSt3__h22__compressed_pair_elemINS_9allocatorIcEELi1ELb1EEC2B6v15004ENS_18__default_init_tagE(ptr noundef nonnull align 1 dereferenceable(1) %9), !dbg !8342
  ret ptr %9, !dbg !8343
}

declare void @_ZNSt3__h12basic_stringIcNS_11char_traitsIcEENS_9allocatorIcEEE6__initEjc(ptr noundef nonnull align 4 dereferenceable(12), i32 noundef, i8 noundef zeroext) #4

; Function Attrs: mustprogress noinline nounwind optnone sspstrong uwtable(sync)
define linkonce_odr hidden void @_ZNSt3__h19__debug_db_insert_cB6v15004INS_12basic_stringIcNS_11char_traitsIcEENS_9allocatorIcEEEEEEvPT_(ptr noundef %0) #0 comdat !dbg !8344 {
  %2 = alloca ptr, align 4
  store ptr %0, ptr %2, align 4
  call void @llvm.dbg.declare(metadata ptr %2, metadata !8350, metadata !DIExpression()), !dbg !8351
  ret void, !dbg !8352
}

; Function Attrs: noinline nounwind optnone sspstrong uwtable(sync)
define linkonce_odr hidden noundef ptr @_ZNSt3__h22__compressed_pair_elemINS_12basic_stringIcNS_11char_traitsIcEENS_9allocatorIcEEE5__repELi0ELb0EEC2B6v15004ENS_18__default_init_tagE(ptr noundef nonnull returned align 4 dereferenceable(12) %0) unnamed_addr #3 comdat align 2 !dbg !8353 {
  %2 = alloca %"struct.std::__h::__less.5", align 1
  %3 = alloca ptr, align 4
  store ptr %0, ptr %3, align 4
  call void @llvm.dbg.declare(metadata ptr %3, metadata !8354, metadata !DIExpression()), !dbg !8355
  call void @llvm.dbg.declare(metadata ptr %2, metadata !8356, metadata !DIExpression()), !dbg !8357
  %4 = load ptr, ptr %3, align 4
  %5 = getelementptr inbounds %"struct.std::__h::__compressed_pair_elem", ptr %4, i32 0, i32 0, !dbg !8358
  ret ptr %4, !dbg !8359
}

; Function Attrs: noinline nounwind optnone sspstrong uwtable(sync)
define linkonce_odr hidden noundef ptr @_ZNSt3__h22__compressed_pair_elemINS_9allocatorIcEELi1ELb1EEC2B6v15004ENS_18__default_init_tagE(ptr noundef nonnull returned align 1 dereferenceable(1) %0) unnamed_addr #3 comdat align 2 !dbg !8360 {
  %2 = alloca %"struct.std::__h::__less.5", align 1
  %3 = alloca ptr, align 4
  store ptr %0, ptr %3, align 4
  call void @llvm.dbg.declare(metadata ptr %3, metadata !8361, metadata !DIExpression()), !dbg !8362
  call void @llvm.dbg.declare(metadata ptr %2, metadata !8363, metadata !DIExpression()), !dbg !8364
  %4 = load ptr, ptr %3, align 4
  %5 = call noundef ptr @_ZNSt3__h9allocatorIcEC2B6v15004Ev(ptr noundef nonnull align 1 dereferenceable(1) %4) #14, !dbg !8365
  ret ptr %4, !dbg !8366
}

; Function Attrs: noinline nounwind optnone sspstrong uwtable(sync)
define linkonce_odr hidden noundef ptr @_ZNSt3__h9allocatorIcEC2B6v15004Ev(ptr noundef nonnull returned align 1 dereferenceable(1) %0) unnamed_addr #3 comdat align 2 !dbg !8367 {
  %2 = alloca ptr, align 4
  store ptr %0, ptr %2, align 4
  call void @llvm.dbg.declare(metadata ptr %2, metadata !8368, metadata !DIExpression()), !dbg !8370
  %3 = load ptr, ptr %2, align 4
  %4 = call noundef ptr @_ZNSt3__h16__non_trivial_ifILb1ENS_9allocatorIcEEEC2B6v15004Ev(ptr noundef nonnull align 1 dereferenceable(1) %3) #14, !dbg !8371
  ret ptr %3, !dbg !8372
}

; Function Attrs: noinline nounwind optnone sspstrong uwtable(sync)
define linkonce_odr hidden noundef ptr @_ZNSt3__h16__non_trivial_ifILb1ENS_9allocatorIcEEEC2B6v15004Ev(ptr noundef nonnull returned align 1 dereferenceable(1) %0) unnamed_addr #3 comdat align 2 !dbg !8373 {
  %2 = alloca ptr, align 4
  store ptr %0, ptr %2, align 4
  call void @llvm.dbg.declare(metadata ptr %2, metadata !8374, metadata !DIExpression()), !dbg !8376
  %3 = load ptr, ptr %2, align 4
  ret ptr %3, !dbg !8377
}

; Function Attrs: mustprogress noinline nounwind optnone sspstrong uwtable(sync)
define linkonce_odr hidden noundef ptr @_ZNKSt3__h9basic_iosIcNS_11char_traitsIcEEE5rdbufB6v15004Ev(ptr noundef nonnull align 4 dereferenceable(80) %0) #0 comdat align 2 !dbg !8378 {
  %2 = alloca ptr, align 4
  store ptr %0, ptr %2, align 4
  call void @llvm.dbg.declare(metadata ptr %2, metadata !8379, metadata !DIExpression()), !dbg !8380
  %3 = load ptr, ptr %2, align 4
  %4 = call noundef ptr @_ZNKSt3__h8ios_base5rdbufB6v15004Ev(ptr noundef nonnull align 4 dereferenceable(72) %3), !dbg !8381
  ret ptr %4, !dbg !8382
}

; Function Attrs: mustprogress noinline nounwind optnone sspstrong uwtable(sync)
define linkonce_odr hidden noundef ptr @_ZNKSt3__h8ios_base5rdbufB6v15004Ev(ptr noundef nonnull align 4 dereferenceable(72) %0) #0 comdat align 2 !dbg !8383 {
  %2 = alloca ptr, align 4
  store ptr %0, ptr %2, align 4
  call void @llvm.dbg.declare(metadata ptr %2, metadata !8384, metadata !DIExpression()), !dbg !8385
  %3 = load ptr, ptr %2, align 4
  %4 = getelementptr inbounds %"class.std::__h::ios_base", ptr %3, i32 0, i32 6, !dbg !8386
  %5 = load ptr, ptr %4, align 4, !dbg !8386
  ret ptr %5, !dbg !8387
}

; Function Attrs: mustprogress noinline nounwind optnone sspstrong uwtable(sync)
define linkonce_odr hidden noundef i32 @_ZNKSt3__h12basic_stringIcNS_11char_traitsIcEENS_9allocatorIcEEE15__get_long_sizeB6v15004Ev(ptr noundef nonnull align 4 dereferenceable(12) %0) #0 comdat align 2 !dbg !8388 {
  %2 = alloca ptr, align 4
  store ptr %0, ptr %2, align 4
  call void @llvm.dbg.declare(metadata ptr %2, metadata !8389, metadata !DIExpression()), !dbg !8390
  %3 = load ptr, ptr %2, align 4
  %4 = getelementptr inbounds %"class.std::__h::basic_string", ptr %3, i32 0, i32 0, !dbg !8391
  %5 = call noundef nonnull align 4 dereferenceable(12) ptr @_ZNKSt3__h17__compressed_pairINS_12basic_stringIcNS_11char_traitsIcEENS_9allocatorIcEEE5__repES5_E5firstB6v15004Ev(ptr noundef nonnull align 4 dereferenceable(12) %4) #14, !dbg !8392
  %6 = getelementptr inbounds %"struct.std::__h::basic_string<char>::__rep", ptr %5, i32 0, i32 0, !dbg !8393
  %7 = getelementptr inbounds %"struct.std::__h::basic_string<char>::__long", ptr %6, i32 0, i32 1, !dbg !8394
  %8 = load i32, ptr %7, align 4, !dbg !8394
  ret i32 %8, !dbg !8395
}

; Function Attrs: mustprogress noinline nounwind optnone sspstrong uwtable(sync)
define linkonce_odr hidden noundef i32 @_ZNKSt3__h12basic_stringIcNS_11char_traitsIcEENS_9allocatorIcEEE16__get_short_sizeB6v15004Ev(ptr noundef nonnull align 4 dereferenceable(12) %0) #0 comdat align 2 !dbg !8396 {
  %2 = alloca ptr, align 4
  store ptr %0, ptr %2, align 4
  call void @llvm.dbg.declare(metadata ptr %2, metadata !8397, metadata !DIExpression()), !dbg !8398
  %3 = load ptr, ptr %2, align 4
  %4 = getelementptr inbounds %"class.std::__h::basic_string", ptr %3, i32 0, i32 0, !dbg !8399
  %5 = call noundef nonnull align 4 dereferenceable(12) ptr @_ZNKSt3__h17__compressed_pairINS_12basic_stringIcNS_11char_traitsIcEENS_9allocatorIcEEE5__repES5_E5firstB6v15004Ev(ptr noundef nonnull align 4 dereferenceable(12) %4) #14, !dbg !8400
  %6 = getelementptr inbounds %"struct.std::__h::basic_string<char>::__rep", ptr %5, i32 0, i32 0, !dbg !8401
  %7 = getelementptr inbounds %"struct.std::__h::basic_string<char>::__short", ptr %6, i32 0, i32 0, !dbg !8402
  %8 = load i8, ptr %7, align 4, !dbg !8402
  %9 = lshr i8 %8, 1, !dbg !8402
  %10 = zext i8 %9 to i32, !dbg !8399
  ret i32 %10, !dbg !8403
}

; Function Attrs: mustprogress noinline nounwind optnone sspstrong uwtable(sync)
define linkonce_odr hidden noundef ptr @_ZNKSt3__h12basic_stringIcNS_11char_traitsIcEENS_9allocatorIcEEE13__get_pointerB6v15004Ev(ptr noundef nonnull align 4 dereferenceable(12) %0) #0 comdat align 2 !dbg !8404 {
  %2 = alloca ptr, align 4
  store ptr %0, ptr %2, align 4
  call void @llvm.dbg.declare(metadata ptr %2, metadata !8405, metadata !DIExpression()), !dbg !8406
  %3 = load ptr, ptr %2, align 4
  %4 = call noundef zeroext i1 @_ZNKSt3__h12basic_stringIcNS_11char_traitsIcEENS_9allocatorIcEEE9__is_longB6v15004Ev(ptr noundef nonnull align 4 dereferenceable(12) %3) #14, !dbg !8407
  br i1 %4, label %5, label %7, !dbg !8407

5:                                                ; preds = %1
  %6 = call noundef ptr @_ZNKSt3__h12basic_stringIcNS_11char_traitsIcEENS_9allocatorIcEEE18__get_long_pointerB6v15004Ev(ptr noundef nonnull align 4 dereferenceable(12) %3) #14, !dbg !8408
  br label %9, !dbg !8407

7:                                                ; preds = %1
  %8 = call noundef ptr @_ZNKSt3__h12basic_stringIcNS_11char_traitsIcEENS_9allocatorIcEEE19__get_short_pointerB6v15004Ev(ptr noundef nonnull align 4 dereferenceable(12) %3) #14, !dbg !8409
  br label %9, !dbg !8407

9:                                                ; preds = %7, %5
  %10 = phi ptr [ %6, %5 ], [ %8, %7 ], !dbg !8407
  ret ptr %10, !dbg !8410
}

; Function Attrs: mustprogress noinline nounwind optnone sspstrong uwtable(sync)
define linkonce_odr hidden noundef ptr @_ZNSt3__h12__to_addressB6v15004IKcEEPT_S3_(ptr noundef %0) #0 comdat !dbg !8411 {
  %2 = alloca ptr, align 4
  store ptr %0, ptr %2, align 4
  call void @llvm.dbg.declare(metadata ptr %2, metadata !8416, metadata !DIExpression()), !dbg !8417
  %3 = load ptr, ptr %2, align 4, !dbg !8418
  ret ptr %3, !dbg !8419
}

; Function Attrs: mustprogress noinline nounwind optnone sspstrong uwtable(sync)
define linkonce_odr hidden noundef ptr @_ZNKSt3__h12basic_stringIcNS_11char_traitsIcEENS_9allocatorIcEEE18__get_long_pointerB6v15004Ev(ptr noundef nonnull align 4 dereferenceable(12) %0) #0 comdat align 2 !dbg !8420 {
  %2 = alloca ptr, align 4
  store ptr %0, ptr %2, align 4
  call void @llvm.dbg.declare(metadata ptr %2, metadata !8421, metadata !DIExpression()), !dbg !8422
  %3 = load ptr, ptr %2, align 4
  %4 = getelementptr inbounds %"class.std::__h::basic_string", ptr %3, i32 0, i32 0, !dbg !8423
  %5 = call noundef nonnull align 4 dereferenceable(12) ptr @_ZNKSt3__h17__compressed_pairINS_12basic_stringIcNS_11char_traitsIcEENS_9allocatorIcEEE5__repES5_E5firstB6v15004Ev(ptr noundef nonnull align 4 dereferenceable(12) %4) #14, !dbg !8424
  %6 = getelementptr inbounds %"struct.std::__h::basic_string<char>::__rep", ptr %5, i32 0, i32 0, !dbg !8425
  %7 = getelementptr inbounds %"struct.std::__h::basic_string<char>::__long", ptr %6, i32 0, i32 2, !dbg !8426
  %8 = load ptr, ptr %7, align 4, !dbg !8426
  ret ptr %8, !dbg !8427
}

; Function Attrs: mustprogress noinline nounwind optnone sspstrong uwtable(sync)
define linkonce_odr hidden noundef ptr @_ZNKSt3__h12basic_stringIcNS_11char_traitsIcEENS_9allocatorIcEEE19__get_short_pointerB6v15004Ev(ptr noundef nonnull align 4 dereferenceable(12) %0) #0 comdat align 2 !dbg !8428 {
  %2 = alloca ptr, align 4
  store ptr %0, ptr %2, align 4
  call void @llvm.dbg.declare(metadata ptr %2, metadata !8429, metadata !DIExpression()), !dbg !8430
  %3 = load ptr, ptr %2, align 4
  %4 = getelementptr inbounds %"class.std::__h::basic_string", ptr %3, i32 0, i32 0, !dbg !8431
  %5 = call noundef nonnull align 4 dereferenceable(12) ptr @_ZNKSt3__h17__compressed_pairINS_12basic_stringIcNS_11char_traitsIcEENS_9allocatorIcEEE5__repES5_E5firstB6v15004Ev(ptr noundef nonnull align 4 dereferenceable(12) %4) #14, !dbg !8432
  %6 = getelementptr inbounds %"struct.std::__h::basic_string<char>::__rep", ptr %5, i32 0, i32 0, !dbg !8433
  %7 = getelementptr inbounds %"struct.std::__h::basic_string<char>::__short", ptr %6, i32 0, i32 2, !dbg !8434
  %8 = getelementptr inbounds [11 x i8], ptr %7, i32 0, i32 0, !dbg !8431
  %9 = call noundef ptr @_ZNSt3__h14pointer_traitsIPKcE10pointer_toB6v15004ERS1_(ptr noundef nonnull align 1 dereferenceable(1) %8) #14, !dbg !8435
  ret ptr %9, !dbg !8436
}

; Function Attrs: mustprogress noinline nounwind optnone sspstrong uwtable(sync)
define linkonce_odr hidden noundef ptr @_ZNSt3__h14pointer_traitsIPKcE10pointer_toB6v15004ERS1_(ptr noundef nonnull align 1 dereferenceable(1) %0) #0 comdat align 2 !dbg !8437 {
  %2 = alloca ptr, align 4
  store ptr %0, ptr %2, align 4
  call void @llvm.dbg.declare(metadata ptr %2, metadata !8453, metadata !DIExpression()), !dbg !8454
  %3 = load ptr, ptr %2, align 4, !dbg !8455
  ret ptr %3, !dbg !8456
}

; Function Attrs: mustprogress noinline nounwind optnone sspstrong uwtable(sync)
define linkonce_odr hidden noundef zeroext i1 @_ZNKSt3__h9basic_iosIcNS_11char_traitsIcEEE4failB6v15004Ev(ptr noundef nonnull align 4 dereferenceable(80) %0) #0 comdat align 2 !dbg !8457 {
  %2 = alloca ptr, align 4
  store ptr %0, ptr %2, align 4
  call void @llvm.dbg.declare(metadata ptr %2, metadata !8458, metadata !DIExpression()), !dbg !8459
  %3 = load ptr, ptr %2, align 4
  %4 = call noundef zeroext i1 @_ZNKSt3__h8ios_base4failB6v15004Ev(ptr noundef nonnull align 4 dereferenceable(72) %3), !dbg !8460
  ret i1 %4, !dbg !8461
}

; Function Attrs: mustprogress noinline nounwind optnone sspstrong uwtable(sync)
define linkonce_odr hidden noundef zeroext i1 @_ZNKSt3__h8ios_base4failB6v15004Ev(ptr noundef nonnull align 4 dereferenceable(72) %0) #0 comdat align 2 !dbg !8462 {
  %2 = alloca ptr, align 4
  store ptr %0, ptr %2, align 4
  call void @llvm.dbg.declare(metadata ptr %2, metadata !8463, metadata !DIExpression()), !dbg !8464
  %3 = load ptr, ptr %2, align 4
  %4 = getelementptr inbounds %"class.std::__h::ios_base", ptr %3, i32 0, i32 4, !dbg !8465
  %5 = load i32, ptr %4, align 4, !dbg !8465
  %6 = and i32 %5, 5, !dbg !8466
  %7 = icmp ne i32 %6, 0, !dbg !8467
  ret i1 %7, !dbg !8468
}

; Function Attrs: mustprogress noinline nounwind optnone sspstrong uwtable(sync)
define linkonce_odr noundef nonnull align 4 dereferenceable(8) ptr @_ZNSt3__h7getlineIcNS_11char_traitsIcEENS_9allocatorIcEEEERNS_13basic_istreamIT_T0_EES9_RNS_12basic_stringIS6_S7_T1_EES6_(ptr noundef nonnull align 4 dereferenceable(8) %0, ptr noundef nonnull align 4 dereferenceable(12) %1, i8 noundef zeroext %2) #0 comdat !dbg !8469 {
  %4 = alloca ptr, align 4
  %5 = alloca ptr, align 4
  %6 = alloca i8, align 1
  %7 = alloca i32, align 4
  %8 = alloca %"struct.std::__h::__less.5", align 1
  %9 = alloca i32, align 4
  %10 = alloca i32, align 4
  %11 = alloca i8, align 1
  store ptr %0, ptr %4, align 4
  call void @llvm.dbg.declare(metadata ptr %4, metadata !8472, metadata !DIExpression()), !dbg !8473
  store ptr %1, ptr %5, align 4
  call void @llvm.dbg.declare(metadata ptr %5, metadata !8474, metadata !DIExpression()), !dbg !8475
  store i8 %2, ptr %6, align 1
  call void @llvm.dbg.declare(metadata ptr %6, metadata !8476, metadata !DIExpression()), !dbg !8477
  call void @llvm.dbg.declare(metadata ptr %7, metadata !8478, metadata !DIExpression()), !dbg !8479
  store i32 0, ptr %7, align 4, !dbg !8479, !annotation !6167
  store i32 0, ptr %7, align 4, !dbg !8479
  call void @llvm.dbg.declare(metadata ptr %8, metadata !8480, metadata !DIExpression()), !dbg !8482
  call void @llvm.memset.p0.i32(ptr align 1 %8, i8 0, i32 1, i1 false), !dbg !8482, !annotation !6167
  %12 = load ptr, ptr %4, align 4, !dbg !8483
  %13 = call noundef ptr @_ZNSt3__h13basic_istreamIcNS_11char_traitsIcEEE6sentryC1ERS3_b(ptr noundef nonnull align 1 dereferenceable(1) %8, ptr noundef nonnull align 4 dereferenceable(8) %12, i1 noundef zeroext true), !dbg !8482
  %14 = call noundef zeroext i1 @_ZNKSt3__h13basic_istreamIcNS_11char_traitsIcEEE6sentrycvbB6v15004Ev(ptr noundef nonnull align 1 dereferenceable(1) %8), !dbg !8484
  br i1 %14, label %15, label %65, !dbg !8486

15:                                               ; preds = %3
  %16 = load ptr, ptr %5, align 4, !dbg !8487
  call void @_ZNSt3__h12basic_stringIcNS_11char_traitsIcEENS_9allocatorIcEEE5clearB6v15004Ev(ptr noundef nonnull align 4 dereferenceable(12) %16) #14, !dbg !8489
  call void @llvm.dbg.declare(metadata ptr %9, metadata !8490, metadata !DIExpression()), !dbg !8491
  store i32 0, ptr %9, align 4, !dbg !8491, !annotation !6167
  store i32 0, ptr %9, align 4, !dbg !8491
  br label %17, !dbg !8492

17:                                               ; preds = %51, %15
  call void @llvm.dbg.declare(metadata ptr %10, metadata !8493, metadata !DIExpression()), !dbg !8495
  store i32 0, ptr %10, align 4, !dbg !8495, !annotation !6167
  %18 = load ptr, ptr %4, align 4, !dbg !8496
  %19 = load ptr, ptr %18, align 4, !dbg !8496
  %20 = getelementptr i8, ptr %19, i64 -12, !dbg !8496
  %21 = load i32, ptr %20, align 4, !dbg !8496
  %22 = getelementptr inbounds i8, ptr %18, i32 %21, !dbg !8496
  %23 = call noundef ptr @_ZNKSt3__h9basic_iosIcNS_11char_traitsIcEEE5rdbufB6v15004Ev(ptr noundef nonnull align 4 dereferenceable(80) %22), !dbg !8497
  %24 = call noundef i32 @_ZNSt3__h15basic_streambufIcNS_11char_traitsIcEEE6sbumpcB6v15004Ev(ptr noundef nonnull align 4 dereferenceable(32) %23), !dbg !8498
  store i32 %24, ptr %10, align 4, !dbg !8495
  %25 = load i32, ptr %10, align 4, !dbg !8499
  %26 = call noundef i32 @_ZNSt3__h11char_traitsIcE3eofEv() #14, !dbg !8501
  %27 = call noundef zeroext i1 @_ZNSt3__h11char_traitsIcE11eq_int_typeEii(i32 noundef %25, i32 noundef %26) #14, !dbg !8502
  br i1 %27, label %28, label %31, !dbg !8503

28:                                               ; preds = %17
  %29 = load i32, ptr %7, align 4, !dbg !8504
  %30 = or i32 %29, 2, !dbg !8504
  store i32 %30, ptr %7, align 4, !dbg !8504
  br label %52, !dbg !8506

31:                                               ; preds = %17
  %32 = load i32, ptr %9, align 4, !dbg !8507
  %33 = add nsw i32 %32, 1, !dbg !8507
  store i32 %33, ptr %9, align 4, !dbg !8507
  call void @llvm.dbg.declare(metadata ptr %11, metadata !8508, metadata !DIExpression()), !dbg !8509
  store i8 0, ptr %11, align 1, !dbg !8509, !annotation !6167
  %34 = load i32, ptr %10, align 4, !dbg !8510
  %35 = call noundef zeroext i8 @_ZNSt3__h11char_traitsIcE12to_char_typeEi(i32 noundef %34) #14, !dbg !8511
  store i8 %35, ptr %11, align 1, !dbg !8509
  %36 = load i8, ptr %11, align 1, !dbg !8512
  %37 = load i8, ptr %6, align 1, !dbg !8514
  %38 = call noundef zeroext i1 @_ZNSt3__h11char_traitsIcE2eqEcc(i8 noundef zeroext %36, i8 noundef zeroext %37) #14, !dbg !8515
  br i1 %38, label %39, label %40, !dbg !8516

39:                                               ; preds = %31
  br label %52, !dbg !8517

40:                                               ; preds = %31
  %41 = load ptr, ptr %5, align 4, !dbg !8518
  %42 = load i8, ptr %11, align 1, !dbg !8519
  call void @_ZNSt3__h12basic_stringIcNS_11char_traitsIcEENS_9allocatorIcEEE9push_backEc(ptr noundef nonnull align 4 dereferenceable(12) %41, i8 noundef zeroext %42), !dbg !8520
  %43 = load ptr, ptr %5, align 4, !dbg !8521
  %44 = call noundef i32 @_ZNKSt3__h12basic_stringIcNS_11char_traitsIcEENS_9allocatorIcEEE4sizeB6v15004Ev(ptr noundef nonnull align 4 dereferenceable(12) %43) #14, !dbg !8523
  %45 = load ptr, ptr %5, align 4, !dbg !8524
  %46 = call noundef i32 @_ZNKSt3__h12basic_stringIcNS_11char_traitsIcEENS_9allocatorIcEEE8max_sizeB6v15004Ev(ptr noundef nonnull align 4 dereferenceable(12) %45) #14, !dbg !8525
  %47 = icmp eq i32 %44, %46, !dbg !8526
  br i1 %47, label %48, label %51, !dbg !8527

48:                                               ; preds = %40
  %49 = load i32, ptr %7, align 4, !dbg !8528
  %50 = or i32 %49, 4, !dbg !8528
  store i32 %50, ptr %7, align 4, !dbg !8528
  br label %52, !dbg !8530

51:                                               ; preds = %40
  br label %17, !dbg !8492, !llvm.loop !8531

52:                                               ; preds = %48, %39, %28
  %53 = load i32, ptr %9, align 4, !dbg !8533
  %54 = icmp eq i32 %53, 0, !dbg !8535
  br i1 %54, label %55, label %58, !dbg !8536

55:                                               ; preds = %52
  %56 = load i32, ptr %7, align 4, !dbg !8537
  %57 = or i32 %56, 4, !dbg !8537
  store i32 %57, ptr %7, align 4, !dbg !8537
  br label %58, !dbg !8538

58:                                               ; preds = %55, %52
  %59 = load ptr, ptr %4, align 4, !dbg !8539
  %60 = load ptr, ptr %59, align 4, !dbg !8539
  %61 = getelementptr i8, ptr %60, i64 -12, !dbg !8539
  %62 = load i32, ptr %61, align 4, !dbg !8539
  %63 = getelementptr inbounds i8, ptr %59, i32 %62, !dbg !8539
  %64 = load i32, ptr %7, align 4, !dbg !8540
  call void @_ZNSt3__h9basic_iosIcNS_11char_traitsIcEEE8setstateB6v15004Ej(ptr noundef nonnull align 4 dereferenceable(80) %63, i32 noundef %64), !dbg !8541
  br label %65, !dbg !8542

65:                                               ; preds = %58, %3
  %66 = load ptr, ptr %4, align 4, !dbg !8543
  ret ptr %66, !dbg !8544
}

declare noundef ptr @_ZNSt3__h13basic_istreamIcNS_11char_traitsIcEEE6sentryC1ERS3_b(ptr noundef nonnull returned align 1 dereferenceable(1), ptr noundef nonnull align 4 dereferenceable(8), i1 noundef zeroext) unnamed_addr #4

; Function Attrs: mustprogress noinline nounwind optnone sspstrong uwtable(sync)
define linkonce_odr hidden noundef zeroext i1 @_ZNKSt3__h13basic_istreamIcNS_11char_traitsIcEEE6sentrycvbB6v15004Ev(ptr noundef nonnull align 1 dereferenceable(1) %0) #0 comdat align 2 !dbg !8545 {
  %2 = alloca ptr, align 4
  store ptr %0, ptr %2, align 4
  call void @llvm.dbg.declare(metadata ptr %2, metadata !8551, metadata !DIExpression()), !dbg !8553
  %3 = load ptr, ptr %2, align 4
  %4 = getelementptr inbounds %"struct.std::__h::__less.5", ptr %3, i32 0, i32 0, !dbg !8554
  %5 = load i8, ptr %4, align 1, !dbg !8554
  %6 = trunc i8 %5 to i1, !dbg !8554
  ret i1 %6, !dbg !8555
}

; Function Attrs: mustprogress noinline nounwind optnone sspstrong uwtable(sync)
define linkonce_odr hidden void @_ZNSt3__h12basic_stringIcNS_11char_traitsIcEENS_9allocatorIcEEE5clearB6v15004Ev(ptr noundef nonnull align 4 dereferenceable(12) %0) #0 comdat align 2 !dbg !8556 {
  %2 = alloca ptr, align 4
  %3 = alloca i8, align 1
  %4 = alloca i8, align 1
  store ptr %0, ptr %2, align 4
  call void @llvm.dbg.declare(metadata ptr %2, metadata !8557, metadata !DIExpression()), !dbg !8558
  %5 = load ptr, ptr %2, align 4
  call void @_ZNSt3__h25__debug_db_invalidate_allB6v15004INS_12basic_stringIcNS_11char_traitsIcEENS_9allocatorIcEEEEEEvPT_(ptr noundef %5), !dbg !8559
  %6 = call noundef zeroext i1 @_ZNKSt3__h12basic_stringIcNS_11char_traitsIcEENS_9allocatorIcEEE9__is_longB6v15004Ev(ptr noundef nonnull align 4 dereferenceable(12) %5) #14, !dbg !8560
  br i1 %6, label %7, label %9, !dbg !8562

7:                                                ; preds = %1
  %8 = call noundef ptr @_ZNSt3__h12basic_stringIcNS_11char_traitsIcEENS_9allocatorIcEEE18__get_long_pointerB6v15004Ev(ptr noundef nonnull align 4 dereferenceable(12) %5) #14, !dbg !8563
  store i8 0, ptr %3, align 1, !dbg !8565
  call void @_ZNSt3__h11char_traitsIcE6assignERcRKc(ptr noundef nonnull align 1 dereferenceable(1) %8, ptr noundef nonnull align 1 dereferenceable(1) %3) #14, !dbg !8566
  call void @_ZNSt3__h12basic_stringIcNS_11char_traitsIcEENS_9allocatorIcEEE15__set_long_sizeB6v15004Ej(ptr noundef nonnull align 4 dereferenceable(12) %5, i32 noundef 0) #14, !dbg !8567
  br label %11, !dbg !8568

9:                                                ; preds = %1
  %10 = call noundef ptr @_ZNSt3__h12basic_stringIcNS_11char_traitsIcEENS_9allocatorIcEEE19__get_short_pointerB6v15004Ev(ptr noundef nonnull align 4 dereferenceable(12) %5) #14, !dbg !8569
  store i8 0, ptr %4, align 1, !dbg !8571
  call void @_ZNSt3__h11char_traitsIcE6assignERcRKc(ptr noundef nonnull align 1 dereferenceable(1) %10, ptr noundef nonnull align 1 dereferenceable(1) %4) #14, !dbg !8572
  call void @_ZNSt3__h12basic_stringIcNS_11char_traitsIcEENS_9allocatorIcEEE16__set_short_sizeB6v15004Ej(ptr noundef nonnull align 4 dereferenceable(12) %5, i32 noundef 0) #14, !dbg !8573
  br label %11

11:                                               ; preds = %9, %7
  ret void, !dbg !8574
}

; Function Attrs: mustprogress noinline nounwind optnone sspstrong uwtable(sync)
define linkonce_odr hidden noundef i32 @_ZNSt3__h15basic_streambufIcNS_11char_traitsIcEEE6sbumpcB6v15004Ev(ptr noundef nonnull align 4 dereferenceable(32) %0) #0 comdat align 2 !dbg !8575 {
  %2 = alloca i32, align 4
  %3 = alloca ptr, align 4
  store ptr %0, ptr %3, align 4
  call void @llvm.dbg.declare(metadata ptr %3, metadata !8580, metadata !DIExpression()), !dbg !8581
  %4 = load ptr, ptr %3, align 4
  %5 = getelementptr inbounds %"class.std::__h::basic_streambuf", ptr %4, i32 0, i32 3, !dbg !8582
  %6 = load ptr, ptr %5, align 4, !dbg !8582
  %7 = getelementptr inbounds %"class.std::__h::basic_streambuf", ptr %4, i32 0, i32 4, !dbg !8584
  %8 = load ptr, ptr %7, align 4, !dbg !8584
  %9 = icmp eq ptr %6, %8, !dbg !8585
  br i1 %9, label %10, label %15, !dbg !8586

10:                                               ; preds = %1
  %11 = load ptr, ptr %4, align 4, !dbg !8587
  %12 = getelementptr inbounds ptr, ptr %11, i64 10, !dbg !8587
  %13 = load ptr, ptr %12, align 4, !dbg !8587
  %14 = call noundef i32 %13(ptr noundef nonnull align 4 dereferenceable(32) %4), !dbg !8587
  store i32 %14, ptr %2, align 4, !dbg !8588
  br label %21, !dbg !8588

15:                                               ; preds = %1
  %16 = getelementptr inbounds %"class.std::__h::basic_streambuf", ptr %4, i32 0, i32 3, !dbg !8589
  %17 = load ptr, ptr %16, align 4, !dbg !8590
  %18 = getelementptr inbounds i8, ptr %17, i32 1, !dbg !8590
  store ptr %18, ptr %16, align 4, !dbg !8590
  %19 = load i8, ptr %17, align 1, !dbg !8591
  %20 = call noundef i32 @_ZNSt3__h11char_traitsIcE11to_int_typeEc(i8 noundef zeroext %19) #14, !dbg !8592
  store i32 %20, ptr %2, align 4, !dbg !8593
  br label %21, !dbg !8593

21:                                               ; preds = %15, %10
  %22 = load i32, ptr %2, align 4, !dbg !8594
  ret i32 %22, !dbg !8594
}

declare void @_ZNSt3__h12basic_stringIcNS_11char_traitsIcEENS_9allocatorIcEEE9push_backEc(ptr noundef nonnull align 4 dereferenceable(12), i8 noundef zeroext) #4

; Function Attrs: mustprogress noinline nounwind optnone sspstrong uwtable(sync)
define linkonce_odr hidden noundef i32 @_ZNKSt3__h12basic_stringIcNS_11char_traitsIcEENS_9allocatorIcEEE8max_sizeB6v15004Ev(ptr noundef nonnull align 4 dereferenceable(12) %0) #0 comdat align 2 !dbg !8595 {
  %2 = alloca i32, align 4
  %3 = alloca ptr, align 4
  %4 = alloca i32, align 4
  %5 = alloca i8, align 1
  store ptr %0, ptr %3, align 4
  call void @llvm.dbg.declare(metadata ptr %3, metadata !8596, metadata !DIExpression()), !dbg !8597
  %6 = load ptr, ptr %3, align 4
  call void @llvm.dbg.declare(metadata ptr %4, metadata !8598, metadata !DIExpression()), !dbg !8599
  store i32 0, ptr %4, align 4, !dbg !8599, !annotation !6167
  %7 = call noundef nonnull align 1 dereferenceable(1) ptr @_ZNKSt3__h12basic_stringIcNS_11char_traitsIcEENS_9allocatorIcEEE7__allocB6v15004Ev(ptr noundef nonnull align 4 dereferenceable(12) %6) #14, !dbg !8600
  %8 = call noundef i32 @_ZNSt3__h16allocator_traitsINS_9allocatorIcEEE8max_sizeB6v15004IS2_vEEjRKS2_(ptr noundef nonnull align 1 dereferenceable(1) %7) #14, !dbg !8601
  store i32 %8, ptr %4, align 4, !dbg !8599
  %9 = load i32, ptr %4, align 4, !dbg !8602
  %10 = call noundef i32 @_ZNSt3__h14numeric_limitsIjE3maxB6v15004Ev() #14, !dbg !8604
  %11 = udiv i32 %10, 2, !dbg !8605
  %12 = icmp ule i32 %9, %11, !dbg !8606
  br i1 %12, label %13, label %16, !dbg !8607

13:                                               ; preds = %1
  %14 = load i32, ptr %4, align 4, !dbg !8608
  %15 = sub i32 %14, 16, !dbg !8610
  store i32 %15, ptr %2, align 4, !dbg !8611
  br label %28, !dbg !8611

16:                                               ; preds = %1
  call void @llvm.dbg.declare(metadata ptr %5, metadata !8612, metadata !DIExpression()), !dbg !8614
  store i8 0, ptr %5, align 1, !dbg !8614, !annotation !6167
  store i8 1, ptr %5, align 1, !dbg !8614
  %17 = load i8, ptr %5, align 1, !dbg !8615
  %18 = trunc i8 %17 to i1, !dbg !8615
  br i1 %18, label %19, label %22, !dbg !8615

19:                                               ; preds = %16
  %20 = load i32, ptr %4, align 4, !dbg !8616
  %21 = sub i32 %20, 16, !dbg !8617
  br label %26, !dbg !8615

22:                                               ; preds = %16
  %23 = load i32, ptr %4, align 4, !dbg !8618
  %24 = udiv i32 %23, 2, !dbg !8619
  %25 = sub i32 %24, 16, !dbg !8620
  br label %26, !dbg !8615

26:                                               ; preds = %22, %19
  %27 = phi i32 [ %21, %19 ], [ %25, %22 ], !dbg !8615
  store i32 %27, ptr %2, align 4, !dbg !8621
  br label %28, !dbg !8621

28:                                               ; preds = %26, %13
  %29 = load i32, ptr %2, align 4, !dbg !8622
  ret i32 %29, !dbg !8622
}

; Function Attrs: mustprogress noinline nounwind optnone sspstrong uwtable(sync)
define linkonce_odr hidden noundef nonnull align 1 dereferenceable(1) ptr @_ZNKSt3__h12basic_stringIcNS_11char_traitsIcEENS_9allocatorIcEEE7__allocB6v15004Ev(ptr noundef nonnull align 4 dereferenceable(12) %0) #0 comdat align 2 !dbg !8623 {
  %2 = alloca ptr, align 4
  store ptr %0, ptr %2, align 4
  call void @llvm.dbg.declare(metadata ptr %2, metadata !8624, metadata !DIExpression()), !dbg !8625
  %3 = load ptr, ptr %2, align 4
  %4 = getelementptr inbounds %"class.std::__h::basic_string", ptr %3, i32 0, i32 0, !dbg !8626
  %5 = call noundef nonnull align 1 dereferenceable(1) ptr @_ZNKSt3__h17__compressed_pairINS_12basic_stringIcNS_11char_traitsIcEENS_9allocatorIcEEE5__repES5_E6secondB6v15004Ev(ptr noundef nonnull align 4 dereferenceable(12) %4) #14, !dbg !8627
  ret ptr %5, !dbg !8628
}

; Function Attrs: mustprogress noinline nounwind optnone sspstrong uwtable(sync)
define linkonce_odr hidden noundef i32 @_ZNSt3__h16allocator_traitsINS_9allocatorIcEEE8max_sizeB6v15004IS2_vEEjRKS2_(ptr noundef nonnull align 1 dereferenceable(1) %0) #0 comdat align 2 !dbg !8629 {
  %2 = alloca ptr, align 4
  store ptr %0, ptr %2, align 4
  call void @llvm.dbg.declare(metadata ptr %2, metadata !8637, metadata !DIExpression()), !dbg !8638
  %3 = load ptr, ptr %2, align 4, !dbg !8639
  %4 = call noundef i32 @_ZNKSt3__h9allocatorIcE8max_sizeB6v15004Ev(ptr noundef nonnull align 1 dereferenceable(1) %3) #14, !dbg !8640
  ret i32 %4, !dbg !8641
}

; Function Attrs: mustprogress noinline nounwind optnone sspstrong uwtable(sync)
define linkonce_odr hidden noundef i32 @_ZNSt3__h14numeric_limitsIjE3maxB6v15004Ev() #0 comdat align 2 !dbg !8642 {
  %1 = call noundef i32 @_ZNSt3__h23__libcpp_numeric_limitsIjLb1EE3maxB6v15004Ev() #14, !dbg !8681
  ret i32 %1, !dbg !8682
}

; Function Attrs: mustprogress noinline nounwind optnone sspstrong uwtable(sync)
define linkonce_odr hidden noundef i32 @_ZNSt3__h23__libcpp_numeric_limitsIjLb1EE3maxB6v15004Ev() #0 comdat align 2 !dbg !8683 {
  ret i32 -1, !dbg !8684
}

; Function Attrs: mustprogress noinline nounwind optnone sspstrong uwtable(sync)
define linkonce_odr hidden noundef i32 @_ZNKSt3__h9allocatorIcE8max_sizeB6v15004Ev(ptr noundef nonnull align 1 dereferenceable(1) %0) #0 comdat align 2 !dbg !8685 {
  %2 = alloca ptr, align 4
  store ptr %0, ptr %2, align 4
  call void @llvm.dbg.declare(metadata ptr %2, metadata !8686, metadata !DIExpression()), !dbg !8688
  %3 = load ptr, ptr %2, align 4
  ret i32 -1, !dbg !8689
}

; Function Attrs: mustprogress noinline nounwind optnone sspstrong uwtable(sync)
define linkonce_odr hidden noundef nonnull align 1 dereferenceable(1) ptr @_ZNKSt3__h17__compressed_pairINS_12basic_stringIcNS_11char_traitsIcEENS_9allocatorIcEEE5__repES5_E6secondB6v15004Ev(ptr noundef nonnull align 4 dereferenceable(12) %0) #0 comdat align 2 !dbg !8690 {
  %2 = alloca ptr, align 4
  store ptr %0, ptr %2, align 4
  call void @llvm.dbg.declare(metadata ptr %2, metadata !8691, metadata !DIExpression()), !dbg !8692
  %3 = load ptr, ptr %2, align 4
  %4 = call noundef nonnull align 1 dereferenceable(1) ptr @_ZNKSt3__h22__compressed_pair_elemINS_9allocatorIcEELi1ELb1EE5__getB6v15004Ev(ptr noundef nonnull align 1 dereferenceable(1) %3) #14, !dbg !8693
  ret ptr %4, !dbg !8694
}

; Function Attrs: mustprogress noinline nounwind optnone sspstrong uwtable(sync)
define linkonce_odr hidden noundef nonnull align 1 dereferenceable(1) ptr @_ZNKSt3__h22__compressed_pair_elemINS_9allocatorIcEELi1ELb1EE5__getB6v15004Ev(ptr noundef nonnull align 1 dereferenceable(1) %0) #0 comdat align 2 !dbg !8695 {
  %2 = alloca ptr, align 4
  store ptr %0, ptr %2, align 4
  call void @llvm.dbg.declare(metadata ptr %2, metadata !8696, metadata !DIExpression()), !dbg !8698
  %3 = load ptr, ptr %2, align 4
  ret ptr %3, !dbg !8699
}

; Function Attrs: mustprogress noinline nounwind optnone sspstrong uwtable(sync)
define linkonce_odr hidden void @_ZNSt3__h25__debug_db_invalidate_allB6v15004INS_12basic_stringIcNS_11char_traitsIcEENS_9allocatorIcEEEEEEvPT_(ptr noundef %0) #0 comdat !dbg !8700 {
  %2 = alloca ptr, align 4
  store ptr %0, ptr %2, align 4
  call void @llvm.dbg.declare(metadata ptr %2, metadata !8701, metadata !DIExpression()), !dbg !8702
  ret void, !dbg !8703
}

; Function Attrs: mustprogress noinline nounwind optnone sspstrong uwtable(sync)
define linkonce_odr hidden void @_ZNSt3__h11char_traitsIcE6assignERcRKc(ptr noundef nonnull align 1 dereferenceable(1) %0, ptr noundef nonnull align 1 dereferenceable(1) %1) #0 comdat align 2 !dbg !8704 {
  %3 = alloca ptr, align 4
  %4 = alloca ptr, align 4
  store ptr %0, ptr %3, align 4
  call void @llvm.dbg.declare(metadata ptr %3, metadata !8705, metadata !DIExpression()), !dbg !8706
  store ptr %1, ptr %4, align 4
  call void @llvm.dbg.declare(metadata ptr %4, metadata !8707, metadata !DIExpression()), !dbg !8708
  %5 = load ptr, ptr %4, align 4, !dbg !8709
  %6 = load i8, ptr %5, align 1, !dbg !8709
  %7 = load ptr, ptr %3, align 4, !dbg !8710
  store i8 %6, ptr %7, align 1, !dbg !8711
  ret void, !dbg !8712
}

; Function Attrs: mustprogress noinline nounwind optnone sspstrong uwtable(sync)
define linkonce_odr hidden void @_ZNSt3__h12basic_stringIcNS_11char_traitsIcEENS_9allocatorIcEEE15__set_long_sizeB6v15004Ej(ptr noundef nonnull align 4 dereferenceable(12) %0, i32 noundef %1) #0 comdat align 2 !dbg !8713 {
  %3 = alloca ptr, align 4
  %4 = alloca i32, align 4
  store ptr %0, ptr %3, align 4
  call void @llvm.dbg.declare(metadata ptr %3, metadata !8714, metadata !DIExpression()), !dbg !8715
  store i32 %1, ptr %4, align 4
  call void @llvm.dbg.declare(metadata ptr %4, metadata !8716, metadata !DIExpression()), !dbg !8717
  %5 = load ptr, ptr %3, align 4
  %6 = load i32, ptr %4, align 4, !dbg !8718
  %7 = getelementptr inbounds %"class.std::__h::basic_string", ptr %5, i32 0, i32 0, !dbg !8719
  %8 = call noundef nonnull align 4 dereferenceable(12) ptr @_ZNSt3__h17__compressed_pairINS_12basic_stringIcNS_11char_traitsIcEENS_9allocatorIcEEE5__repES5_E5firstB6v15004Ev(ptr noundef nonnull align 4 dereferenceable(12) %7) #14, !dbg !8720
  %9 = getelementptr inbounds %"struct.std::__h::basic_string<char>::__rep", ptr %8, i32 0, i32 0, !dbg !8721
  %10 = getelementptr inbounds %"struct.std::__h::basic_string<char>::__long", ptr %9, i32 0, i32 1, !dbg !8722
  store i32 %6, ptr %10, align 4, !dbg !8723
  ret void, !dbg !8724
}

; Function Attrs: mustprogress noinline nounwind optnone sspstrong uwtable(sync)
define linkonce_odr hidden void @_ZNSt3__h12basic_stringIcNS_11char_traitsIcEENS_9allocatorIcEEE16__set_short_sizeB6v15004Ej(ptr noundef nonnull align 4 dereferenceable(12) %0, i32 noundef %1) #0 comdat align 2 !dbg !8725 {
  %3 = alloca ptr, align 4
  %4 = alloca i32, align 4
  store ptr %0, ptr %3, align 4
  call void @llvm.dbg.declare(metadata ptr %3, metadata !8726, metadata !DIExpression()), !dbg !8727
  store i32 %1, ptr %4, align 4
  call void @llvm.dbg.declare(metadata ptr %4, metadata !8728, metadata !DIExpression()), !dbg !8729
  %5 = load ptr, ptr %3, align 4
  %6 = load i32, ptr %4, align 4, !dbg !8730
  %7 = icmp ult i32 %6, 11, !dbg !8730
  call void @llvm.assume(i1 %7), !dbg !8730
  %8 = load i32, ptr %4, align 4, !dbg !8731
  %9 = trunc i32 %8 to i8, !dbg !8731
  %10 = getelementptr inbounds %"class.std::__h::basic_string", ptr %5, i32 0, i32 0, !dbg !8732
  %11 = call noundef nonnull align 4 dereferenceable(12) ptr @_ZNSt3__h17__compressed_pairINS_12basic_stringIcNS_11char_traitsIcEENS_9allocatorIcEEE5__repES5_E5firstB6v15004Ev(ptr noundef nonnull align 4 dereferenceable(12) %10) #14, !dbg !8733
  %12 = getelementptr inbounds %"struct.std::__h::basic_string<char>::__rep", ptr %11, i32 0, i32 0, !dbg !8734
  %13 = getelementptr inbounds %"struct.std::__h::basic_string<char>::__short", ptr %12, i32 0, i32 0, !dbg !8735
  %14 = load i8, ptr %13, align 4, !dbg !8736
  %15 = and i8 %9, 127, !dbg !8736
  %16 = shl i8 %15, 1, !dbg !8736
  %17 = and i8 %14, 1, !dbg !8736
  %18 = or i8 %17, %16, !dbg !8736
  store i8 %18, ptr %13, align 4, !dbg !8736
  %19 = getelementptr inbounds %"class.std::__h::basic_string", ptr %5, i32 0, i32 0, !dbg !8737
  %20 = call noundef nonnull align 4 dereferenceable(12) ptr @_ZNSt3__h17__compressed_pairINS_12basic_stringIcNS_11char_traitsIcEENS_9allocatorIcEEE5__repES5_E5firstB6v15004Ev(ptr noundef nonnull align 4 dereferenceable(12) %19) #14, !dbg !8738
  %21 = getelementptr inbounds %"struct.std::__h::basic_string<char>::__rep", ptr %20, i32 0, i32 0, !dbg !8739
  %22 = getelementptr inbounds %"struct.std::__h::basic_string<char>::__short", ptr %21, i32 0, i32 0, !dbg !8740
  %23 = load i8, ptr %22, align 4, !dbg !8741
  %24 = and i8 %23, -2, !dbg !8741
  %25 = or i8 %24, 0, !dbg !8741
  store i8 %25, ptr %22, align 4, !dbg !8741
  ret void, !dbg !8742
}

; Function Attrs: mustprogress noinline nounwind optnone sspstrong uwtable(sync)
define linkonce_odr hidden noundef zeroext i1 @_ZNKSt3__h13basic_filebufIcNS_11char_traitsIcEEE7is_openEv(ptr noundef nonnull align 4 dereferenceable(99) %0) #0 comdat align 2 !dbg !8743 {
  %2 = alloca ptr, align 4
  store ptr %0, ptr %2, align 4
  call void @llvm.dbg.declare(metadata ptr %2, metadata !8744, metadata !DIExpression()), !dbg !8746
  %3 = load ptr, ptr %2, align 4
  %4 = getelementptr inbounds %"class.std::__h::basic_filebuf", ptr %3, i32 0, i32 8, !dbg !8747
  %5 = load ptr, ptr %4, align 4, !dbg !8747
  %6 = icmp ne ptr %5, null, !dbg !8748
  ret i1 %6, !dbg !8749
}

; Function Attrs: mustprogress noinline nounwind optnone sspstrong uwtable(sync)
define linkonce_odr hidden void @_ZNSt3__h12basic_stringIcNS_11char_traitsIcEENS_9allocatorIcEEE14__default_initB6v15004Ev(ptr noundef nonnull align 4 dereferenceable(12) %0) #0 comdat align 2 !dbg !8750 {
  %2 = alloca ptr, align 4
  store ptr %0, ptr %2, align 4
  call void @llvm.dbg.declare(metadata ptr %2, metadata !8751, metadata !DIExpression()), !dbg !8752
  %3 = load ptr, ptr %2, align 4
  call void @_ZNSt3__h12basic_stringIcNS_11char_traitsIcEENS_9allocatorIcEEE6__zeroB6v15004Ev(ptr noundef nonnull align 4 dereferenceable(12) %3) #14, !dbg !8753
  ret void, !dbg !8754
}

; Function Attrs: mustprogress noinline nounwind optnone sspstrong uwtable(sync)
define linkonce_odr hidden void @_ZNSt3__h12basic_stringIcNS_11char_traitsIcEENS_9allocatorIcEEE6__zeroB6v15004Ev(ptr noundef nonnull align 4 dereferenceable(12) %0) #0 comdat align 2 !dbg !8755 {
  %2 = alloca ptr, align 4
  %3 = alloca %"struct.std::__h::basic_string<char>::__rep", align 4
  store ptr %0, ptr %2, align 4
  call void @llvm.dbg.declare(metadata ptr %2, metadata !8756, metadata !DIExpression()), !dbg !8757
  %4 = load ptr, ptr %2, align 4
  call void @llvm.memset.p0.i32(ptr align 4 %3, i8 0, i32 12, i1 false), !dbg !8758
  %5 = getelementptr inbounds %"class.std::__h::basic_string", ptr %4, i32 0, i32 0, !dbg !8759
  %6 = call noundef nonnull align 4 dereferenceable(12) ptr @_ZNSt3__h17__compressed_pairINS_12basic_stringIcNS_11char_traitsIcEENS_9allocatorIcEEE5__repES5_E5firstB6v15004Ev(ptr noundef nonnull align 4 dereferenceable(12) %5) #14, !dbg !8760
  call void @llvm.memcpy.p0.p0.i32(ptr align 4 %6, ptr align 4 %3, i32 12, i1 false), !dbg !8761
  ret void, !dbg !8762
}

; Function Attrs: noinline nounwind optnone sspstrong uwtable(sync)
define linkonce_odr hidden noundef ptr @_ZNSt3__h9basic_iosIcNS_11char_traitsIcEEEC2B6v15004Ev(ptr noundef nonnull returned align 4 dereferenceable(80) %0) unnamed_addr #3 comdat align 2 !dbg !8763 {
  %2 = alloca ptr, align 4
  store ptr %0, ptr %2, align 4
  call void @llvm.dbg.declare(metadata ptr %2, metadata !8764, metadata !DIExpression()), !dbg !8765
  %3 = load ptr, ptr %2, align 4
  %4 = call noundef ptr @_ZNSt3__h8ios_baseC2B6v15004Ev(ptr noundef nonnull align 4 dereferenceable(72) %3), !dbg !8766
  store ptr getelementptr inbounds ({ [4 x ptr] }, ptr @_ZTVNSt3__h9basic_iosIcNS_11char_traitsIcEEEE, i32 0, inrange i32 0, i32 2), ptr %3, align 4, !dbg !8767
  ret ptr %3, !dbg !8768
}

; Function Attrs: noinline nounwind optnone sspstrong uwtable(sync)
define linkonce_odr hidden noundef ptr @_ZNSt3__h13basic_ostreamIcNS_11char_traitsIcEEEC2B6v15004EPNS_15basic_streambufIcS2_EE(ptr noundef nonnull returned align 4 dereferenceable(4) %0, ptr noundef %1, ptr noundef %2) unnamed_addr #3 comdat align 2 !dbg !8769 {
  %4 = alloca ptr, align 4
  %5 = alloca ptr, align 4
  %6 = alloca ptr, align 4
  store ptr %0, ptr %4, align 4
  call void @llvm.dbg.declare(metadata ptr %4, metadata !8770, metadata !DIExpression()), !dbg !8771
  store ptr %1, ptr %5, align 4
  call void @llvm.dbg.declare(metadata ptr %5, metadata !8772, metadata !DIExpression()), !dbg !8771
  store ptr %2, ptr %6, align 4
  call void @llvm.dbg.declare(metadata ptr %6, metadata !8773, metadata !DIExpression()), !dbg !8774
  %7 = load ptr, ptr %4, align 4
  %8 = load ptr, ptr %5, align 4
  %9 = load ptr, ptr %8, align 4, !dbg !8775
  store ptr %9, ptr %7, align 4, !dbg !8775
  %10 = getelementptr inbounds ptr, ptr %8, i64 1, !dbg !8775
  %11 = load ptr, ptr %10, align 4, !dbg !8775
  %12 = load ptr, ptr %7, align 4, !dbg !8775
  %13 = getelementptr i8, ptr %12, i64 -12, !dbg !8775
  %14 = load i32, ptr %13, align 4, !dbg !8775
  %15 = getelementptr inbounds i8, ptr %7, i32 %14, !dbg !8775
  store ptr %11, ptr %15, align 4, !dbg !8775
  %16 = load ptr, ptr %7, align 4, !dbg !8776
  %17 = getelementptr i8, ptr %16, i64 -12, !dbg !8776
  %18 = load i32, ptr %17, align 4, !dbg !8776
  %19 = getelementptr inbounds i8, ptr %7, i32 %18, !dbg !8776
  %20 = load ptr, ptr %6, align 4, !dbg !8778
  call void @_ZNSt3__h9basic_iosIcNS_11char_traitsIcEEE4initB6v15004EPNS_15basic_streambufIcS2_EE(ptr noundef nonnull align 4 dereferenceable(80) %19, ptr noundef %20), !dbg !8776
  ret ptr %7, !dbg !8779
}

; Function Attrs: noinline nounwind optnone sspstrong uwtable(sync)
define linkonce_odr noundef ptr @_ZNSt3__h13basic_filebufIcNS_11char_traitsIcEEEC2Ev(ptr noundef nonnull returned align 4 dereferenceable(99) %0) unnamed_addr #3 comdat align 2 !dbg !8780 {
  %2 = alloca ptr, align 4
  %3 = alloca ptr, align 4
  %4 = alloca %"class.std::__h::locale", align 4
  %5 = alloca %"class.std::__h::locale", align 4
  store ptr %0, ptr %3, align 4
  call void @llvm.dbg.declare(metadata ptr %3, metadata !8781, metadata !DIExpression()), !dbg !8782
  %6 = load ptr, ptr %3, align 4
  store ptr %6, ptr %2, align 4
  %7 = call noundef ptr @_ZNSt3__h15basic_streambufIcNS_11char_traitsIcEEEC2Ev(ptr noundef nonnull align 4 dereferenceable(32) %6), !dbg !8783
  store ptr getelementptr inbounds ({ [16 x ptr] }, ptr @_ZTVNSt3__h13basic_filebufIcNS_11char_traitsIcEEEE, i32 0, inrange i32 0, i32 2), ptr %6, align 4, !dbg !8784
  %8 = getelementptr inbounds %"class.std::__h::basic_filebuf", ptr %6, i32 0, i32 1, !dbg !8785
  store ptr null, ptr %8, align 4, !dbg !8785
  %9 = getelementptr inbounds %"class.std::__h::basic_filebuf", ptr %6, i32 0, i32 2, !dbg !8786
  store ptr null, ptr %9, align 4, !dbg !8786
  %10 = getelementptr inbounds %"class.std::__h::basic_filebuf", ptr %6, i32 0, i32 3, !dbg !8787
  store ptr null, ptr %10, align 4, !dbg !8787
  %11 = getelementptr inbounds %"class.std::__h::basic_filebuf", ptr %6, i32 0, i32 5, !dbg !8788
  store i32 0, ptr %11, align 4, !dbg !8788
  %12 = getelementptr inbounds %"class.std::__h::basic_filebuf", ptr %6, i32 0, i32 6, !dbg !8789
  store ptr null, ptr %12, align 4, !dbg !8789
  %13 = getelementptr inbounds %"class.std::__h::basic_filebuf", ptr %6, i32 0, i32 7, !dbg !8790
  store i32 0, ptr %13, align 4, !dbg !8790
  %14 = getelementptr inbounds %"class.std::__h::basic_filebuf", ptr %6, i32 0, i32 8, !dbg !8791
  store ptr null, ptr %14, align 4, !dbg !8791
  %15 = getelementptr inbounds %"class.std::__h::basic_filebuf", ptr %6, i32 0, i32 9, !dbg !8792
  store ptr null, ptr %15, align 4, !dbg !8792
  %16 = getelementptr inbounds %"class.std::__h::basic_filebuf", ptr %6, i32 0, i32 10, !dbg !8793
  call void @llvm.memset.p0.i32(ptr align 4 %16, i8 0, i32 8, i1 false), !dbg !8793
  %17 = getelementptr inbounds %"class.std::__h::basic_filebuf", ptr %6, i32 0, i32 11, !dbg !8794
  call void @llvm.memset.p0.i32(ptr align 4 %17, i8 0, i32 8, i1 false), !dbg !8794
  %18 = getelementptr inbounds %"class.std::__h::basic_filebuf", ptr %6, i32 0, i32 12, !dbg !8795
  store i32 0, ptr %18, align 4, !dbg !8795
  %19 = getelementptr inbounds %"class.std::__h::basic_filebuf", ptr %6, i32 0, i32 13, !dbg !8796
  store i32 0, ptr %19, align 4, !dbg !8796
  %20 = getelementptr inbounds %"class.std::__h::basic_filebuf", ptr %6, i32 0, i32 14, !dbg !8797
  store i8 0, ptr %20, align 4, !dbg !8797
  %21 = getelementptr inbounds %"class.std::__h::basic_filebuf", ptr %6, i32 0, i32 15, !dbg !8798
  store i8 0, ptr %21, align 1, !dbg !8798
  %22 = getelementptr inbounds %"class.std::__h::basic_filebuf", ptr %6, i32 0, i32 16, !dbg !8799
  store i8 0, ptr %22, align 2, !dbg !8799
  call void @_ZNKSt3__h15basic_streambufIcNS_11char_traitsIcEEE6getlocB6v15004Ev(ptr sret(%"class.std::__h::locale") align 4 %4, ptr noundef nonnull align 4 dereferenceable(32) %6), !dbg !8800
  %23 = call noundef zeroext i1 @_ZNSt3__h9has_facetB6v15004INS_7codecvtIcc11__mbstate_tEEEEbRKNS_6localeE(ptr noundef nonnull align 4 dereferenceable(4) %4) #14, !dbg !8803
  %24 = call noundef ptr @_ZNSt3__h6localeD1Ev(ptr noundef nonnull align 4 dereferenceable(4) %4) #14, !dbg !8803
  br i1 %23, label %25, label %34, !dbg !8804

25:                                               ; preds = %1
  call void @_ZNKSt3__h15basic_streambufIcNS_11char_traitsIcEEE6getlocB6v15004Ev(ptr sret(%"class.std::__h::locale") align 4 %5, ptr noundef nonnull align 4 dereferenceable(32) %6), !dbg !8805
  %26 = call noundef nonnull align 4 dereferenceable(8) ptr @_ZNSt3__h9use_facetB6v15004INS_7codecvtIcc11__mbstate_tEEEERKT_RKNS_6localeE(ptr noundef nonnull align 4 dereferenceable(4) %5), !dbg !8807
  %27 = getelementptr inbounds %"class.std::__h::basic_filebuf", ptr %6, i32 0, i32 9, !dbg !8808
  store ptr %26, ptr %27, align 4, !dbg !8809
  %28 = call noundef ptr @_ZNSt3__h6localeD1Ev(ptr noundef nonnull align 4 dereferenceable(4) %5) #14, !dbg !8808
  %29 = getelementptr inbounds %"class.std::__h::basic_filebuf", ptr %6, i32 0, i32 9, !dbg !8810
  %30 = load ptr, ptr %29, align 4, !dbg !8810
  %31 = call noundef zeroext i1 @_ZNKSt3__h7codecvtIcc11__mbstate_tE13always_noconvB6v15004Ev(ptr noundef nonnull align 4 dereferenceable(8) %30) #14, !dbg !8811
  %32 = getelementptr inbounds %"class.std::__h::basic_filebuf", ptr %6, i32 0, i32 16, !dbg !8812
  %33 = zext i1 %31 to i8, !dbg !8813
  store i8 %33, ptr %32, align 2, !dbg !8813
  br label %34, !dbg !8814

34:                                               ; preds = %25, %1
  %35 = load ptr, ptr %6, align 4, !dbg !8815
  %36 = getelementptr inbounds ptr, ptr %35, i64 3, !dbg !8815
  %37 = load ptr, ptr %36, align 4, !dbg !8815
  %38 = call noundef ptr %37(ptr noundef nonnull align 4 dereferenceable(99) %6, ptr noundef null, i32 noundef 4096), !dbg !8815
  %39 = load ptr, ptr %2, align 4, !dbg !8816
  ret ptr %39, !dbg !8816
}

; Function Attrs: mustprogress noinline nounwind optnone sspstrong uwtable(sync)
define linkonce_odr noundef ptr @_ZNSt3__h13basic_filebufIcNS_11char_traitsIcEEE4openEPKcj(ptr noundef nonnull align 4 dereferenceable(99) %0, ptr noundef %1, i32 noundef %2) #0 comdat align 2 !dbg !8817 {
  %4 = alloca ptr, align 4
  %5 = alloca ptr, align 4
  %6 = alloca i32, align 4
  %7 = alloca ptr, align 4
  %8 = alloca ptr, align 4
  store ptr %0, ptr %4, align 4
  call void @llvm.dbg.declare(metadata ptr %4, metadata !8818, metadata !DIExpression()), !dbg !8819
  store ptr %1, ptr %5, align 4
  call void @llvm.dbg.declare(metadata ptr %5, metadata !8820, metadata !DIExpression()), !dbg !8821
  store i32 %2, ptr %6, align 4
  call void @llvm.dbg.declare(metadata ptr %6, metadata !8822, metadata !DIExpression()), !dbg !8823
  %9 = load ptr, ptr %4, align 4
  call void @llvm.dbg.declare(metadata ptr %7, metadata !8824, metadata !DIExpression()), !dbg !8825
  store ptr null, ptr %7, align 4, !dbg !8825, !annotation !6167
  store ptr null, ptr %7, align 4, !dbg !8825
  %10 = getelementptr inbounds %"class.std::__h::basic_filebuf", ptr %9, i32 0, i32 8, !dbg !8826
  %11 = load ptr, ptr %10, align 4, !dbg !8826
  %12 = icmp eq ptr %11, null, !dbg !8828
  br i1 %12, label %13, label %47, !dbg !8829

13:                                               ; preds = %3
  call void @llvm.dbg.declare(metadata ptr %8, metadata !8830, metadata !DIExpression()), !dbg !8833
  store ptr null, ptr %8, align 4, !dbg !8833, !annotation !6167
  %14 = load i32, ptr %6, align 4, !dbg !8834
  %15 = call noundef ptr @_ZNSt3__h13basic_filebufIcNS_11char_traitsIcEEE15__make_mdstringEj(i32 noundef %14) #14, !dbg !8835
  store ptr %15, ptr %8, align 4, !dbg !8833
  %16 = load ptr, ptr %8, align 4, !dbg !8833
  %17 = icmp ne ptr %16, null, !dbg !8833
  br i1 %17, label %18, label %46, !dbg !8836

18:                                               ; preds = %13
  store ptr %9, ptr %7, align 4, !dbg !8837
  %19 = load ptr, ptr %5, align 4, !dbg !8839
  %20 = load ptr, ptr %8, align 4, !dbg !8840
  %21 = call ptr @fopen(ptr noundef %19, ptr noundef %20), !dbg !8841
  %22 = getelementptr inbounds %"class.std::__h::basic_filebuf", ptr %9, i32 0, i32 8, !dbg !8842
  store ptr %21, ptr %22, align 4, !dbg !8843
  %23 = getelementptr inbounds %"class.std::__h::basic_filebuf", ptr %9, i32 0, i32 8, !dbg !8844
  %24 = load ptr, ptr %23, align 4, !dbg !8844
  %25 = icmp ne ptr %24, null, !dbg !8844
  br i1 %25, label %26, label %44, !dbg !8846

26:                                               ; preds = %18
  %27 = load i32, ptr %6, align 4, !dbg !8847
  %28 = getelementptr inbounds %"class.std::__h::basic_filebuf", ptr %9, i32 0, i32 12, !dbg !8849
  store i32 %27, ptr %28, align 4, !dbg !8850
  %29 = load i32, ptr %6, align 4, !dbg !8851
  %30 = and i32 %29, 2, !dbg !8853
  %31 = icmp ne i32 %30, 0, !dbg !8851
  br i1 %31, label %32, label %43, !dbg !8854

32:                                               ; preds = %26
  %33 = getelementptr inbounds %"class.std::__h::basic_filebuf", ptr %9, i32 0, i32 8, !dbg !8855
  %34 = load ptr, ptr %33, align 4, !dbg !8855
  %35 = call i32 @fseek(ptr noundef %34, i32 noundef 0, i32 noundef 2), !dbg !8858
  %36 = icmp ne i32 %35, 0, !dbg !8858
  br i1 %36, label %37, label %42, !dbg !8859

37:                                               ; preds = %32
  %38 = getelementptr inbounds %"class.std::__h::basic_filebuf", ptr %9, i32 0, i32 8, !dbg !8860
  %39 = load ptr, ptr %38, align 4, !dbg !8860
  %40 = call i32 @fclose(ptr noundef %39), !dbg !8862
  %41 = getelementptr inbounds %"class.std::__h::basic_filebuf", ptr %9, i32 0, i32 8, !dbg !8863
  store ptr null, ptr %41, align 4, !dbg !8864
  store ptr null, ptr %7, align 4, !dbg !8865
  br label %42, !dbg !8866

42:                                               ; preds = %37, %32
  br label %43, !dbg !8867

43:                                               ; preds = %42, %26
  br label %45, !dbg !8868

44:                                               ; preds = %18
  store ptr null, ptr %7, align 4, !dbg !8869
  br label %45

45:                                               ; preds = %44, %43
  br label %46, !dbg !8870

46:                                               ; preds = %45, %13
  br label %47, !dbg !8871

47:                                               ; preds = %46, %3
  %48 = load ptr, ptr %7, align 4, !dbg !8872
  ret ptr %48, !dbg !8873
}

; Function Attrs: mustprogress noinline nounwind optnone sspstrong uwtable(sync)
define linkonce_odr hidden noundef ptr @_ZNSt3__h13basic_filebufIcNS_11char_traitsIcEEE15__make_mdstringEj(i32 noundef %0) #0 comdat align 2 !dbg !8874 {
  %2 = alloca ptr, align 4
  %3 = alloca i32, align 4
  store i32 %0, ptr %3, align 4
  call void @llvm.dbg.declare(metadata ptr %3, metadata !8875, metadata !DIExpression()), !dbg !8876
  %4 = load i32, ptr %3, align 4, !dbg !8877
  %5 = and i32 %4, -3, !dbg !8878
  switch i32 %5, label %18 [
    i32 16, label %6
    i32 48, label %6
    i32 17, label %7
    i32 1, label %7
    i32 8, label %8
    i32 24, label %9
    i32 56, label %10
    i32 25, label %11
    i32 9, label %11
    i32 20, label %12
    i32 52, label %12
    i32 21, label %13
    i32 5, label %13
    i32 12, label %14
    i32 28, label %15
    i32 60, label %16
    i32 29, label %17
    i32 13, label %17
  ], !dbg !8879

6:                                                ; preds = %1, %1
  store ptr @.str.9, ptr %2, align 4, !dbg !8880
  br label %19, !dbg !8880

7:                                                ; preds = %1, %1
  store ptr @.str.5, ptr %2, align 4, !dbg !8882
  br label %19, !dbg !8882

8:                                                ; preds = %1
  store ptr @.str.4, ptr %2, align 4, !dbg !8883
  br label %19, !dbg !8883

9:                                                ; preds = %1
  store ptr @.str.10, ptr %2, align 4, !dbg !8884
  br label %19, !dbg !8884

10:                                               ; preds = %1
  store ptr @.str.11, ptr %2, align 4, !dbg !8885
  br label %19, !dbg !8885

11:                                               ; preds = %1, %1
  store ptr @.str.12, ptr %2, align 4, !dbg !8886
  br label %19, !dbg !8886

12:                                               ; preds = %1, %1
  store ptr @.str.13, ptr %2, align 4, !dbg !8887
  br label %19, !dbg !8887

13:                                               ; preds = %1, %1
  store ptr @.str.14, ptr %2, align 4, !dbg !8888
  br label %19, !dbg !8888

14:                                               ; preds = %1
  store ptr @.str.15, ptr %2, align 4, !dbg !8889
  br label %19, !dbg !8889

15:                                               ; preds = %1
  store ptr @.str.16, ptr %2, align 4, !dbg !8890
  br label %19, !dbg !8890

16:                                               ; preds = %1
  store ptr @.str.17, ptr %2, align 4, !dbg !8891
  br label %19, !dbg !8891

17:                                               ; preds = %1, %1
  store ptr @.str.18, ptr %2, align 4, !dbg !8892
  br label %19, !dbg !8892

18:                                               ; preds = %1
  store ptr null, ptr %2, align 4, !dbg !8893
  br label %19, !dbg !8893

19:                                               ; preds = %18, %17, %16, %15, %14, %13, %12, %11, %10, %9, %8, %7, %6
  %20 = load ptr, ptr %2, align 4, !dbg !8894
  ret ptr %20, !dbg !8894
}

declare ptr @fopen(ptr noundef, ptr noundef) #4

declare i32 @fseek(ptr noundef, i32 noundef, i32 noundef) #4

declare noundef ptr @_ZNSt3__h15basic_streambufIcNS_11char_traitsIcEEEC2Ev(ptr noundef nonnull returned align 4 dereferenceable(32)) unnamed_addr #4

; Function Attrs: mustprogress noinline nounwind optnone sspstrong uwtable(sync)
define linkonce_odr hidden void @_ZNKSt3__h15basic_streambufIcNS_11char_traitsIcEEE6getlocB6v15004Ev(ptr noalias sret(%"class.std::__h::locale") align 4 %0, ptr noundef nonnull align 4 dereferenceable(32) %1) #0 comdat align 2 !dbg !8895 {
  %3 = alloca ptr, align 4
  %4 = alloca ptr, align 4
  store ptr %0, ptr %3, align 4
  store ptr %1, ptr %4, align 4
  call void @llvm.dbg.declare(metadata ptr %4, metadata !8899, metadata !DIExpression()), !dbg !8900
  %5 = load ptr, ptr %4, align 4
  %6 = getelementptr inbounds %"class.std::__h::basic_streambuf", ptr %5, i32 0, i32 1, !dbg !8901
  %7 = call noundef ptr @_ZNSt3__h6localeC1ERKS0_(ptr noundef nonnull align 4 dereferenceable(4) %0, ptr noundef nonnull align 4 dereferenceable(4) %6) #14, !dbg !8901
  ret void, !dbg !8902
}

; Function Attrs: mustprogress noinline nounwind optnone sspstrong uwtable(sync)
define linkonce_odr hidden noundef zeroext i1 @_ZNSt3__h9has_facetB6v15004INS_7codecvtIcc11__mbstate_tEEEEbRKNS_6localeE(ptr noundef nonnull align 4 dereferenceable(4) %0) #0 comdat !dbg !8903 {
  %2 = alloca ptr, align 4
  store ptr %0, ptr %2, align 4
  call void @llvm.dbg.declare(metadata ptr %2, metadata !8906, metadata !DIExpression()), !dbg !8907
  %3 = load ptr, ptr %2, align 4, !dbg !8908
  %4 = call noundef zeroext i1 @_ZNKSt3__h6locale9has_facetERNS0_2idE(ptr noundef nonnull align 4 dereferenceable(4) %3, ptr noundef nonnull align 4 dereferenceable(8) @_ZNSt3__h7codecvtIcc11__mbstate_tE2idE), !dbg !8909
  ret i1 %4, !dbg !8910
}

declare noundef zeroext i1 @_ZNKSt3__h6locale9has_facetERNS0_2idE(ptr noundef nonnull align 4 dereferenceable(4), ptr noundef nonnull align 4 dereferenceable(8)) #4

; Function Attrs: nounwind
declare noundef ptr @_ZNSt3__h6localeC1ERKS0_(ptr noundef nonnull returned align 4 dereferenceable(4), ptr noundef nonnull align 4 dereferenceable(4)) unnamed_addr #5

; Function Attrs: mustprogress noinline nounwind optnone sspstrong uwtable(sync)
define linkonce_odr hidden void @_ZNSt3__h9basic_iosIcNS_11char_traitsIcEEE4initB6v15004EPNS_15basic_streambufIcS2_EE(ptr noundef nonnull align 4 dereferenceable(80) %0, ptr noundef %1) #0 comdat align 2 !dbg !8911 {
  %3 = alloca ptr, align 4
  %4 = alloca ptr, align 4
  store ptr %0, ptr %3, align 4
  call void @llvm.dbg.declare(metadata ptr %3, metadata !8912, metadata !DIExpression()), !dbg !8913
  store ptr %1, ptr %4, align 4
  call void @llvm.dbg.declare(metadata ptr %4, metadata !8914, metadata !DIExpression()), !dbg !8915
  %5 = load ptr, ptr %3, align 4
  %6 = load ptr, ptr %4, align 4, !dbg !8916
  call void @_ZNSt3__h8ios_base4initEPv(ptr noundef nonnull align 4 dereferenceable(72) %5, ptr noundef %6), !dbg !8917
  %7 = getelementptr inbounds %"class.std::__h::basic_ios", ptr %5, i32 0, i32 1, !dbg !8918
  store ptr null, ptr %7, align 4, !dbg !8919
  %8 = call noundef i32 @_ZNSt3__h11char_traitsIcE3eofEv() #14, !dbg !8920
  %9 = getelementptr inbounds %"class.std::__h::basic_ios", ptr %5, i32 0, i32 2, !dbg !8921
  store i32 %8, ptr %9, align 4, !dbg !8922
  ret void, !dbg !8923
}

declare void @_ZNSt3__h8ios_base4initEPv(ptr noundef nonnull align 4 dereferenceable(72), ptr noundef) #4

; Function Attrs: noinline nounwind optnone sspstrong uwtable(sync)
define linkonce_odr hidden noundef ptr @_ZNSt3__h8ios_baseC2B6v15004Ev(ptr noundef nonnull returned align 4 dereferenceable(72) %0) unnamed_addr #3 comdat align 2 !dbg !8924 {
  %2 = alloca ptr, align 4
  store ptr %0, ptr %2, align 4
  call void @llvm.dbg.declare(metadata ptr %2, metadata !8925, metadata !DIExpression()), !dbg !8926
  %3 = load ptr, ptr %2, align 4
  store ptr getelementptr inbounds ({ [4 x ptr] }, ptr @_ZTVNSt3__h8ios_baseE, i32 0, inrange i32 0, i32 2), ptr %3, align 4, !dbg !8927
  ret ptr %3, !dbg !8928
}

; Function Attrs: noinline nounwind optnone sspstrong uwtable(sync)
define linkonce_odr hidden noundef ptr @_ZNSt3__h13basic_istreamIcNS_11char_traitsIcEEEC2B6v15004EPNS_15basic_streambufIcS2_EE(ptr noundef nonnull returned align 4 dereferenceable(8) %0, ptr noundef %1, ptr noundef %2) unnamed_addr #3 comdat align 2 !dbg !8929 {
  %4 = alloca ptr, align 4
  %5 = alloca ptr, align 4
  %6 = alloca ptr, align 4
  store ptr %0, ptr %4, align 4
  call void @llvm.dbg.declare(metadata ptr %4, metadata !8930, metadata !DIExpression()), !dbg !8932
  store ptr %1, ptr %5, align 4
  call void @llvm.dbg.declare(metadata ptr %5, metadata !8933, metadata !DIExpression()), !dbg !8932
  store ptr %2, ptr %6, align 4
  call void @llvm.dbg.declare(metadata ptr %6, metadata !8934, metadata !DIExpression()), !dbg !8935
  %7 = load ptr, ptr %4, align 4
  %8 = load ptr, ptr %5, align 4
  %9 = load ptr, ptr %8, align 4, !dbg !8936
  store ptr %9, ptr %7, align 4, !dbg !8936
  %10 = getelementptr inbounds ptr, ptr %8, i64 1, !dbg !8936
  %11 = load ptr, ptr %10, align 4, !dbg !8936
  %12 = load ptr, ptr %7, align 4, !dbg !8936
  %13 = getelementptr i8, ptr %12, i64 -12, !dbg !8936
  %14 = load i32, ptr %13, align 4, !dbg !8936
  %15 = getelementptr inbounds i8, ptr %7, i32 %14, !dbg !8936
  store ptr %11, ptr %15, align 4, !dbg !8936
  %16 = getelementptr inbounds %"class.std::__h::basic_istream", ptr %7, i32 0, i32 1, !dbg !8937
  store i32 0, ptr %16, align 4, !dbg !8937
  %17 = load ptr, ptr %7, align 4, !dbg !8938
  %18 = getelementptr i8, ptr %17, i64 -12, !dbg !8938
  %19 = load i32, ptr %18, align 4, !dbg !8938
  %20 = getelementptr inbounds i8, ptr %7, i32 %19, !dbg !8938
  %21 = load ptr, ptr %6, align 4, !dbg !8940
  call void @_ZNSt3__h9basic_iosIcNS_11char_traitsIcEEE4initB6v15004EPNS_15basic_streambufIcS2_EE(ptr noundef nonnull align 4 dereferenceable(80) %20, ptr noundef %21), !dbg !8938
  ret ptr %7, !dbg !8941
}

; Function Attrs: mustprogress noinline nounwind optnone sspstrong uwtable(sync)
define noundef i32 @_Z24innerMayIllegalInforFlowi(i32 noundef %0) #0 !dbg !8942 {
  %2 = alloca i32, align 4
  %3 = alloca %"class.std::__h::basic_ifstream", align 4
  %4 = alloca %"class.std::__h::basic_ofstream", align 4
  %5 = alloca %"class.std::__h::basic_string", align 4
  store i32 %0, ptr %2, align 4
  call void @llvm.dbg.declare(metadata ptr %2, metadata !8943, metadata !DIExpression()), !dbg !8944
  call void @llvm.dbg.declare(metadata ptr %3, metadata !8945, metadata !DIExpression()), !dbg !8946
  call void @llvm.memset.p0.i32(ptr align 4 %3, i8 0, i32 188, i1 false), !dbg !8946, !annotation !6167
  %6 = call noundef ptr @_ZNSt3__h14basic_ifstreamIcNS_11char_traitsIcEEEC1EPKcj(ptr noundef nonnull align 4 dereferenceable(108) %3, ptr noundef @.str, i32 noundef 8), !dbg !8946
  call void @llvm.dbg.declare(metadata ptr %4, metadata !8947, metadata !DIExpression()), !dbg !8948
  call void @llvm.memset.p0.i32(ptr align 4 %4, i8 0, i32 184, i1 false), !dbg !8948, !annotation !6167
  %7 = call noundef ptr @_ZNSt3__h14basic_ofstreamIcNS_11char_traitsIcEEEC1EPKcj(ptr noundef nonnull align 4 dereferenceable(104) %4, ptr noundef @.str.1, i32 noundef 1), !dbg !8948
  call void @llvm.dbg.declare(metadata ptr %5, metadata !8949, metadata !DIExpression()), !dbg !8950
  call void @llvm.memset.p0.i32(ptr align 4 %5, i8 0, i32 12, i1 false), !dbg !8950, !annotation !6167
  %8 = call noundef ptr @_ZNSt3__h12basic_stringIcNS_11char_traitsIcEENS_9allocatorIcEEEC2B6v15004Ev(ptr noundef nonnull align 4 dereferenceable(12) %5) #14, !dbg !8950
  %9 = call noundef zeroext i1 @_ZNKSt3__h14basic_ifstreamIcNS_11char_traitsIcEEE7is_openEv(ptr noundef nonnull align 4 dereferenceable(108) %3), !dbg !8951
  br i1 %9, label %10, label %26, !dbg !8953

10:                                               ; preds = %1
  %11 = call noundef zeroext i1 @_ZNKSt3__h14basic_ofstreamIcNS_11char_traitsIcEEE7is_openEv(ptr noundef nonnull align 4 dereferenceable(104) %4), !dbg !8954
  br i1 %11, label %12, label %26, !dbg !8955

12:                                               ; preds = %10
  %13 = call noundef nonnull align 4 dereferenceable(8) ptr @_ZNSt3__h7getlineB6v15004IcNS_11char_traitsIcEENS_9allocatorIcEEEERNS_13basic_istreamIT_T0_EES9_RNS_12basic_stringIS6_S7_T1_EE(ptr noundef nonnull align 4 dereferenceable(8) %3, ptr noundef nonnull align 4 dereferenceable(12) %5), !dbg !8956
  %14 = load ptr, ptr %13, align 4, !dbg !8956
  %15 = getelementptr i8, ptr %14, i64 -12, !dbg !8956
  %16 = load i32, ptr %15, align 4, !dbg !8956
  %17 = getelementptr inbounds i8, ptr %13, i32 %16, !dbg !8956
  %18 = call noundef zeroext i1 @_ZNKSt3__h9basic_iosIcNS_11char_traitsIcEEEcvbB6v15004Ev(ptr noundef nonnull align 4 dereferenceable(80) %17), !dbg !8956
  br i1 %18, label %19, label %25, !dbg !8959

19:                                               ; preds = %12
  %20 = call noundef nonnull align 4 dereferenceable(4) ptr @_ZNSt3__hlsINS_11char_traitsIcEEEERNS_13basic_ostreamIcT_EES6_PKc(ptr noundef nonnull align 4 dereferenceable(4) %4, ptr noundef @.str.2), !dbg !8960
  %21 = call noundef nonnull align 4 dereferenceable(4) ptr @_ZNSt3__h13basic_ostreamIcNS_11char_traitsIcEEElsB6v15004EPFRS3_S4_E(ptr noundef nonnull align 4 dereferenceable(4) %20, ptr noundef @_ZNSt3__h4endlIcNS_11char_traitsIcEEEERNS_13basic_ostreamIT_T0_EES7_), !dbg !8962
  %22 = load i32, ptr %2, align 4, !dbg !8963
  %23 = call noundef nonnull align 4 dereferenceable(4) ptr @_ZNSt3__h13basic_ostreamIcNS_11char_traitsIcEEElsEi(ptr noundef nonnull align 4 dereferenceable(4) %4, i32 noundef %22), !dbg !8964
  %24 = call noundef nonnull align 4 dereferenceable(4) ptr @_ZNSt3__h13basic_ostreamIcNS_11char_traitsIcEEElsB6v15004EPFRS3_S4_E(ptr noundef nonnull align 4 dereferenceable(4) %23, ptr noundef @_ZNSt3__h4endlIcNS_11char_traitsIcEEEERNS_13basic_ostreamIT_T0_EES7_), !dbg !8965
  br label %25, !dbg !8966

25:                                               ; preds = %19, %12
  br label %26, !dbg !8967

26:                                               ; preds = %25, %10, %1
  %27 = call noundef ptr @_ZNSt3__h12basic_stringIcNS_11char_traitsIcEENS_9allocatorIcEEED1Ev(ptr noundef nonnull align 4 dereferenceable(12) %5) #14, !dbg !8968
  %28 = call noundef ptr @_ZNSt3__h14basic_ofstreamIcNS_11char_traitsIcEEED1Ev(ptr noundef nonnull align 4 dereferenceable(104) %4) #14, !dbg !8968
  %29 = call noundef ptr @_ZNSt3__h14basic_ifstreamIcNS_11char_traitsIcEEED1Ev(ptr noundef nonnull align 4 dereferenceable(108) %3) #14, !dbg !8968
  ret i32 0, !dbg !8968
}

; Function Attrs: mustprogress noinline nounwind optnone sspstrong uwtable(sync)
define linkonce_odr noundef nonnull align 4 dereferenceable(4) ptr @_ZNSt3__hlsINS_11char_traitsIcEEEERNS_13basic_ostreamIcT_EES6_PKc(ptr noundef nonnull align 4 dereferenceable(4) %0, ptr noundef %1) #0 comdat !dbg !8969 {
  %3 = alloca ptr, align 4
  %4 = alloca ptr, align 4
  store ptr %0, ptr %3, align 4
  call void @llvm.dbg.declare(metadata ptr %3, metadata !8973, metadata !DIExpression()), !dbg !8974
  store ptr %1, ptr %4, align 4
  call void @llvm.dbg.declare(metadata ptr %4, metadata !8975, metadata !DIExpression()), !dbg !8976
  %5 = load ptr, ptr %3, align 4, !dbg !8977
  %6 = load ptr, ptr %4, align 4, !dbg !8978
  %7 = load ptr, ptr %4, align 4, !dbg !8979
  %8 = call noundef i32 @_ZNSt3__h11char_traitsIcE6lengthEPKc(ptr noundef %7) #14, !dbg !8980
  %9 = call noundef nonnull align 4 dereferenceable(4) ptr @_ZNSt3__h24__put_character_sequenceIcNS_11char_traitsIcEEEERNS_13basic_ostreamIT_T0_EES7_PKS4_j(ptr noundef nonnull align 4 dereferenceable(4) %5, ptr noundef %6, i32 noundef %8), !dbg !8981
  ret ptr %9, !dbg !8982
}

; Function Attrs: mustprogress noinline nounwind optnone sspstrong uwtable(sync)
define linkonce_odr hidden noundef i32 @_ZNSt3__h11char_traitsIcE6lengthEPKc(ptr noundef %0) #0 comdat align 2 !dbg !8983 {
  %2 = alloca ptr, align 4
  store ptr %0, ptr %2, align 4
  call void @llvm.dbg.declare(metadata ptr %2, metadata !8984, metadata !DIExpression()), !dbg !8985
  %3 = load ptr, ptr %2, align 4, !dbg !8986
  %4 = call i32 @strlen(ptr noundef %3) #14, !dbg !8987
  ret i32 %4, !dbg !8988
}

; Function Attrs: nounwind
declare i32 @strlen(ptr noundef) #5

; Function Attrs: mustprogress noinline nounwind optnone sspstrong uwtable(sync)
define noundef i32 @_Z26innerFalseIllegalInforFlowi(i32 noundef %0) #0 !dbg !8989 {
  %2 = alloca i32, align 4
  %3 = alloca %"class.std::__h::basic_ifstream", align 4
  %4 = alloca %"class.std::__h::basic_string", align 4
  store i32 %0, ptr %2, align 4
  call void @llvm.dbg.declare(metadata ptr %2, metadata !8990, metadata !DIExpression()), !dbg !8991
  call void @llvm.dbg.declare(metadata ptr %3, metadata !8992, metadata !DIExpression()), !dbg !8993
  call void @llvm.memset.p0.i32(ptr align 4 %3, i8 0, i32 188, i1 false), !dbg !8993, !annotation !6167
  %5 = call noundef ptr @_ZNSt3__h14basic_ifstreamIcNS_11char_traitsIcEEEC1EPKcj(ptr noundef nonnull align 4 dereferenceable(108) %3, ptr noundef @.str, i32 noundef 8), !dbg !8993
  call void @llvm.dbg.declare(metadata ptr %4, metadata !8994, metadata !DIExpression()), !dbg !8995
  call void @llvm.memset.p0.i32(ptr align 4 %4, i8 0, i32 12, i1 false), !dbg !8995, !annotation !6167
  %6 = call noundef ptr @_ZNSt3__h12basic_stringIcNS_11char_traitsIcEENS_9allocatorIcEEEC2B6v15004Ev(ptr noundef nonnull align 4 dereferenceable(12) %4) #14, !dbg !8995
  %7 = call noundef zeroext i1 @_ZNKSt3__h14basic_ifstreamIcNS_11char_traitsIcEEE7is_openEv(ptr noundef nonnull align 4 dereferenceable(108) %3), !dbg !8996
  br i1 %7, label %8, label %13, !dbg !8998

8:                                                ; preds = %1
  %9 = load i32, ptr %2, align 4, !dbg !8999
  %10 = icmp eq i32 %9, 0, !dbg !9000
  br i1 %10, label %11, label %13, !dbg !9001

11:                                               ; preds = %8
  %12 = call noundef nonnull align 4 dereferenceable(8) ptr @_ZNSt3__h7getlineB6v15004IcNS_11char_traitsIcEENS_9allocatorIcEEEERNS_13basic_istreamIT_T0_EES9_RNS_12basic_stringIS6_S7_T1_EE(ptr noundef nonnull align 4 dereferenceable(8) %3, ptr noundef nonnull align 4 dereferenceable(12) %4), !dbg !9002
  br label %13, !dbg !9004

13:                                               ; preds = %11, %8, %1
  %14 = call noundef ptr @_ZNSt3__h12basic_stringIcNS_11char_traitsIcEENS_9allocatorIcEEED1Ev(ptr noundef nonnull align 4 dereferenceable(12) %4) #14, !dbg !9005
  %15 = call noundef ptr @_ZNSt3__h14basic_ifstreamIcNS_11char_traitsIcEEED1Ev(ptr noundef nonnull align 4 dereferenceable(108) %3) #14, !dbg !9005
  ret i32 0, !dbg !9005
}

; Function Attrs: mustprogress noinline nounwind optnone sspstrong uwtable(sync)
define void @_Z14innerHelloWordv() #0 !dbg !9006 {
  %1 = call noundef nonnull align 4 dereferenceable(4) ptr @_ZNSt3__hlsINS_11char_traitsIcEEEERNS_13basic_ostreamIcT_EES6_PKc(ptr noundef nonnull align 4 dereferenceable(4) @_ZNSt3__h4coutE, ptr noundef @.str.3), !dbg !9007
  %2 = call noundef nonnull align 4 dereferenceable(4) ptr @_ZNSt3__h13basic_ostreamIcNS_11char_traitsIcEEElsB6v15004EPFRS3_S4_E(ptr noundef nonnull align 4 dereferenceable(4) %1, ptr noundef @_ZNSt3__h4endlIcNS_11char_traitsIcEEEERNS_13basic_ostreamIT_T0_EES7_), !dbg !9008
  ret void, !dbg !9009
}

; Function Attrs: mustprogress noinline nounwind optnone sspstrong uwtable(sync)
define noundef i32 @_Z27innerTureIllegalInforFlow_ci(i32 noundef %0) #0 !dbg !9010 {
  %2 = alloca i32, align 4
  %3 = alloca ptr, align 4
  %4 = alloca ptr, align 4
  %5 = alloca [1024 x i8], align 1
  store i32 %0, ptr %2, align 4
  call void @llvm.dbg.declare(metadata ptr %2, metadata !9011, metadata !DIExpression()), !dbg !9012
  call void @llvm.dbg.declare(metadata ptr %3, metadata !9013, metadata !DIExpression()), !dbg !9014
  store ptr null, ptr %3, align 4, !dbg !9014, !annotation !6167
  %6 = call ptr @fopen(ptr noundef @.str, ptr noundef @.str.4), !dbg !9015
  store ptr %6, ptr %3, align 4, !dbg !9014
  call void @llvm.dbg.declare(metadata ptr %4, metadata !9016, metadata !DIExpression()), !dbg !9017
  store ptr null, ptr %4, align 4, !dbg !9017, !annotation !6167
  %7 = call ptr @fopen(ptr noundef @.str.1, ptr noundef @.str.5), !dbg !9018
  store ptr %7, ptr %4, align 4, !dbg !9017
  call void @llvm.dbg.declare(metadata ptr %5, metadata !9019, metadata !DIExpression()), !dbg !9023
  call void @llvm.memset.p0.i32(ptr align 1 %5, i8 0, i32 1024, i1 false), !dbg !9023
  %8 = load ptr, ptr %3, align 4, !dbg !9024
  %9 = icmp ne ptr %8, null, !dbg !9024
  br i1 %9, label %10, label %26, !dbg !9026

10:                                               ; preds = %1
  %11 = load ptr, ptr %4, align 4, !dbg !9027
  %12 = icmp ne ptr %11, null, !dbg !9027
  br i1 %12, label %13, label %26, !dbg !9028

13:                                               ; preds = %10
  %14 = getelementptr inbounds [1024 x i8], ptr %5, i32 0, i32 0, !dbg !9029
  %15 = load ptr, ptr %3, align 4, !dbg !9032
  %16 = call ptr @fgets(ptr noundef %14, i32 noundef 1024, ptr noundef %15), !dbg !9033
  %17 = icmp ne ptr %16, null, !dbg !9033
  br i1 %17, label %18, label %25, !dbg !9034

18:                                               ; preds = %13
  %19 = load ptr, ptr %4, align 4, !dbg !9035
  %20 = getelementptr inbounds [1024 x i8], ptr %5, i32 0, i32 0, !dbg !9037
  %21 = call i32 (ptr, ptr, ...) @fprintf(ptr noundef %19, ptr noundef @.str.6, ptr noundef %20), !dbg !9038
  %22 = load ptr, ptr %4, align 4, !dbg !9039
  %23 = load i32, ptr %2, align 4, !dbg !9040
  %24 = call i32 (ptr, ptr, ...) @fprintf(ptr noundef %22, ptr noundef @.str.7, i32 noundef %23), !dbg !9041
  br label %25, !dbg !9042

25:                                               ; preds = %18, %13
  br label %26, !dbg !9043

26:                                               ; preds = %25, %10, %1
  %27 = load ptr, ptr %3, align 4, !dbg !9044
  %28 = icmp ne ptr %27, null, !dbg !9044
  br i1 %28, label %29, label %32, !dbg !9046

29:                                               ; preds = %26
  %30 = load ptr, ptr %3, align 4, !dbg !9047
  %31 = call i32 @fclose(ptr noundef %30), !dbg !9048
  br label %32, !dbg !9048

32:                                               ; preds = %29, %26
  %33 = load ptr, ptr %4, align 4, !dbg !9049
  %34 = icmp ne ptr %33, null, !dbg !9049
  br i1 %34, label %35, label %38, !dbg !9051

35:                                               ; preds = %32
  %36 = load ptr, ptr %4, align 4, !dbg !9052
  %37 = call i32 @fclose(ptr noundef %36), !dbg !9053
  br label %38, !dbg !9053

38:                                               ; preds = %35, %32
  ret i32 0, !dbg !9054
}

declare ptr @fgets(ptr noundef, i32 noundef, ptr noundef) #4

declare i32 @fprintf(ptr noundef, ptr noundef, ...) #4

; Function Attrs: mustprogress noinline nounwind optnone sspstrong uwtable(sync)
define noundef i32 @_Z26innerMayIllegalInforFlow_ci(i32 noundef %0) #0 !dbg !9055 {
  %2 = alloca i32, align 4
  %3 = alloca ptr, align 4
  %4 = alloca ptr, align 4
  %5 = alloca [1024 x i8], align 1
  store i32 %0, ptr %2, align 4
  call void @llvm.dbg.declare(metadata ptr %2, metadata !9056, metadata !DIExpression()), !dbg !9057
  call void @llvm.dbg.declare(metadata ptr %3, metadata !9058, metadata !DIExpression()), !dbg !9059
  store ptr null, ptr %3, align 4, !dbg !9059, !annotation !6167
  %6 = call ptr @fopen(ptr noundef @.str, ptr noundef @.str.4), !dbg !9060
  store ptr %6, ptr %3, align 4, !dbg !9059
  call void @llvm.dbg.declare(metadata ptr %4, metadata !9061, metadata !DIExpression()), !dbg !9062
  store ptr null, ptr %4, align 4, !dbg !9062, !annotation !6167
  %7 = call ptr @fopen(ptr noundef @.str.1, ptr noundef @.str.5), !dbg !9063
  store ptr %7, ptr %4, align 4, !dbg !9062
  call void @llvm.dbg.declare(metadata ptr %5, metadata !9064, metadata !DIExpression()), !dbg !9065
  call void @llvm.memset.p0.i32(ptr align 1 %5, i8 0, i32 1024, i1 false), !dbg !9065
  %8 = load ptr, ptr %3, align 4, !dbg !9066
  %9 = icmp ne ptr %8, null, !dbg !9066
  br i1 %9, label %10, label %25, !dbg !9068

10:                                               ; preds = %1
  %11 = load ptr, ptr %4, align 4, !dbg !9069
  %12 = icmp ne ptr %11, null, !dbg !9069
  br i1 %12, label %13, label %25, !dbg !9070

13:                                               ; preds = %10
  %14 = getelementptr inbounds [1024 x i8], ptr %5, i32 0, i32 0, !dbg !9071
  %15 = load ptr, ptr %3, align 4, !dbg !9074
  %16 = call ptr @fgets(ptr noundef %14, i32 noundef 1024, ptr noundef %15), !dbg !9075
  %17 = icmp ne ptr %16, null, !dbg !9075
  br i1 %17, label %18, label %24, !dbg !9076

18:                                               ; preds = %13
  %19 = load ptr, ptr %4, align 4, !dbg !9077
  %20 = call i32 (ptr, ptr, ...) @fprintf(ptr noundef %19, ptr noundef @.str.8), !dbg !9079
  %21 = load ptr, ptr %4, align 4, !dbg !9080
  %22 = load i32, ptr %2, align 4, !dbg !9081
  %23 = call i32 (ptr, ptr, ...) @fprintf(ptr noundef %21, ptr noundef @.str.7, i32 noundef %22), !dbg !9082
  br label %24, !dbg !9083

24:                                               ; preds = %18, %13
  br label %25, !dbg !9084

25:                                               ; preds = %24, %10, %1
  %26 = load ptr, ptr %3, align 4, !dbg !9085
  %27 = icmp ne ptr %26, null, !dbg !9085
  br i1 %27, label %28, label %31, !dbg !9087

28:                                               ; preds = %25
  %29 = load ptr, ptr %3, align 4, !dbg !9088
  %30 = call i32 @fclose(ptr noundef %29), !dbg !9089
  br label %31, !dbg !9089

31:                                               ; preds = %28, %25
  %32 = load ptr, ptr %4, align 4, !dbg !9090
  %33 = icmp ne ptr %32, null, !dbg !9090
  br i1 %33, label %34, label %37, !dbg !9092

34:                                               ; preds = %31
  %35 = load ptr, ptr %4, align 4, !dbg !9093
  %36 = call i32 @fclose(ptr noundef %35), !dbg !9094
  br label %37, !dbg !9094

37:                                               ; preds = %34, %31
  ret i32 0, !dbg !9095
}

; Function Attrs: mustprogress noinline nounwind optnone sspstrong uwtable(sync)
define noundef i32 @_Z28innerFalseIllegalInforFlow_ci(i32 noundef %0) #0 !dbg !9096 {
  %2 = alloca i32, align 4
  %3 = alloca ptr, align 4
  %4 = alloca [1024 x i8], align 1
  store i32 %0, ptr %2, align 4
  call void @llvm.dbg.declare(metadata ptr %2, metadata !9097, metadata !DIExpression()), !dbg !9098
  call void @llvm.dbg.declare(metadata ptr %3, metadata !9099, metadata !DIExpression()), !dbg !9100
  store ptr null, ptr %3, align 4, !dbg !9100, !annotation !6167
  %5 = call ptr @fopen(ptr noundef @.str, ptr noundef @.str.4), !dbg !9101
  store ptr %5, ptr %3, align 4, !dbg !9100
  call void @llvm.dbg.declare(metadata ptr %4, metadata !9102, metadata !DIExpression()), !dbg !9103
  call void @llvm.memset.p0.i32(ptr align 1 %4, i8 0, i32 1024, i1 false), !dbg !9103
  %6 = load ptr, ptr %3, align 4, !dbg !9104
  %7 = icmp ne ptr %6, null, !dbg !9104
  br i1 %7, label %8, label %15, !dbg !9106

8:                                                ; preds = %1
  %9 = load i32, ptr %2, align 4, !dbg !9107
  %10 = icmp eq i32 %9, 0, !dbg !9108
  br i1 %10, label %11, label %15, !dbg !9109

11:                                               ; preds = %8
  %12 = getelementptr inbounds [1024 x i8], ptr %4, i32 0, i32 0, !dbg !9110
  %13 = load ptr, ptr %3, align 4, !dbg !9112
  %14 = call ptr @fgets(ptr noundef %12, i32 noundef 1024, ptr noundef %13), !dbg !9113
  br label %15, !dbg !9114

15:                                               ; preds = %11, %8, %1
  %16 = load ptr, ptr %3, align 4, !dbg !9115
  %17 = icmp ne ptr %16, null, !dbg !9115
  br i1 %17, label %18, label %21, !dbg !9117

18:                                               ; preds = %15
  %19 = load ptr, ptr %3, align 4, !dbg !9118
  %20 = call i32 @fclose(ptr noundef %19), !dbg !9119
  br label %21, !dbg !9119

21:                                               ; preds = %18, %15
  ret i32 0, !dbg !9120
}

declare noundef i32 @_ZN4OHOS13IPCObjectStub17GetObjectRefCountEv(ptr noundef nonnull align 8 dereferenceable(57)) unnamed_addr #4

declare noundef i32 @_ZN4OHOS13IPCObjectStub11SendRequestEjRNS_13MessageParcelES2_RNS_13MessageOptionE(ptr noundef nonnull align 8 dereferenceable(57), i32 noundef, ptr noundef nonnull align 4 dereferenceable(116), ptr noundef nonnull align 4 dereferenceable(116), ptr noundef nonnull align 4 dereferenceable(8)) unnamed_addr #4

; Function Attrs: mustprogress noinline nounwind optnone sspstrong uwtable(sync)
define linkonce_odr hidden noundef zeroext i1 @_ZNK4OHOS13IPCObjectStub13IsProxyObjectEv(ptr noundef nonnull align 8 dereferenceable(57) %0) unnamed_addr #0 comdat align 2 !dbg !9121 {
  %2 = alloca ptr, align 4
  store ptr %0, ptr %2, align 4
  call void @llvm.dbg.declare(metadata ptr %2, metadata !9122, metadata !DIExpression()), !dbg !9124
  %3 = load ptr, ptr %2, align 4
  ret i1 false, !dbg !9125
}

declare noundef zeroext i1 @_ZNK4OHOS13IRemoteObject12IsObjectDeadEv(ptr noundef nonnull align 4 dereferenceable(16)) unnamed_addr #4

declare void @_ZN4OHOS13IRemoteObject22GetInterfaceDescriptorEv(ptr sret(%"class.std::__h::basic_string") align 4, ptr noundef nonnull align 4 dereferenceable(16)) unnamed_addr #4

declare noundef zeroext i1 @_ZNK4OHOS13IRemoteObject19CheckObjectLegalityEv(ptr noundef nonnull align 4 dereferenceable(16)) unnamed_addr #4

declare noundef zeroext i1 @_ZN4OHOS13IPCObjectStub17AddDeathRecipientERKNS_4sptrINS_13IRemoteObject14DeathRecipientEEE(ptr noundef nonnull align 8 dereferenceable(57), ptr noundef nonnull align 1) unnamed_addr #4

declare noundef zeroext i1 @_ZN4OHOS13IPCObjectStub20RemoveDeathRecipientERKNS_4sptrINS_13IRemoteObject14DeathRecipientEEE(ptr noundef nonnull align 8 dereferenceable(57), ptr noundef nonnull align 1) unnamed_addr #4

declare noundef zeroext i1 @_ZNK4OHOS13IRemoteObject11MarshallingERNS_6ParcelE(ptr noundef nonnull align 4 dereferenceable(16), ptr noundef nonnull align 4 dereferenceable(61)) unnamed_addr #4

; Function Attrs: mustprogress noinline nounwind optnone sspstrong uwtable(sync)
define linkonce_odr void @_ZN4OHOS11IRemoteStubINS_5SDemo13ISDemoServiceEE11AsInterfaceEv(ptr noalias sret(%"class.std::__h::locale") align 4 %0, ptr noundef nonnull align 8 dereferenceable(64) %1) unnamed_addr #0 comdat align 2 !dbg !9126 {
  %3 = alloca ptr, align 4
  %4 = alloca ptr, align 4
  store ptr %0, ptr %3, align 4
  store ptr %1, ptr %4, align 4
  call void @llvm.dbg.declare(metadata ptr %4, metadata !9127, metadata !DIExpression()), !dbg !9129
  %5 = load ptr, ptr %4, align 4
  %6 = getelementptr inbounds i8, ptr %5, i32 60, !dbg !9130
  %7 = call noundef ptr @_ZN4OHOS4sptrINS_13IRemoteBrokerEEC2EPS1_(ptr noundef nonnull align 4 dereferenceable(4) %0, ptr noundef %6), !dbg !9130
  ret void, !dbg !9131
}

declare noundef i32 @_ZN4OHOS13IPCObjectStub4DumpEiRKNSt3__h6vectorINS1_12basic_stringIDsNS1_11char_traitsIDsEENS1_9allocatorIDsEEEENS6_IS8_EEEE(ptr noundef nonnull align 8 dereferenceable(57), i32 noundef, ptr noundef nonnull align 1) unnamed_addr #4

; Function Attrs: noinline nounwind optnone sspstrong uwtable(sync)
define noundef ptr @_ZN4OHOS5SDemo9SDemoStubD1Ev(ptr noundef nonnull returned align 8 dereferenceable(64) %0) unnamed_addr #3 align 2 !dbg !9132 {
  %2 = alloca ptr, align 4
  %3 = alloca ptr, align 4
  store ptr %0, ptr %3, align 4
  call void @llvm.dbg.declare(metadata ptr %3, metadata !9133, metadata !DIExpression()), !dbg !9135
  %4 = load ptr, ptr %3, align 4
  store ptr %4, ptr %2, align 4
  call void @llvm.trap() #18, !dbg !9136
  unreachable, !dbg !9136
}

; Function Attrs: noinline nounwind optnone sspstrong uwtable(sync)
define void @_ZN4OHOS5SDemo9SDemoStubD0Ev(ptr noundef nonnull align 8 dereferenceable(64) %0) unnamed_addr #3 align 2 !dbg !9137 {
  %2 = alloca ptr, align 4
  store ptr %0, ptr %2, align 4
  call void @llvm.dbg.declare(metadata ptr %2, metadata !9138, metadata !DIExpression()), !dbg !9139
  %3 = load ptr, ptr %2, align 4
  call void @llvm.trap() #18, !dbg !9140
  unreachable, !dbg !9140
}

; Function Attrs: mustprogress noinline nounwind optnone sspstrong uwtable(sync)
define noundef i32 @_ZN4OHOS5SDemo9SDemoStub15OnRemoteRequestEjRNS_13MessageParcelES3_RNS_13MessageOptionE(ptr noundef nonnull align 8 dereferenceable(64) %0, i32 noundef %1, ptr noundef nonnull align 4 dereferenceable(116) %2, ptr noundef nonnull align 4 dereferenceable(116) %3, ptr noundef nonnull align 4 dereferenceable(8) %4) unnamed_addr #0 align 2 !dbg !9141 {
  %6 = alloca i32, align 4
  %7 = alloca ptr, align 4
  %8 = alloca i32, align 4
  %9 = alloca ptr, align 4
  %10 = alloca ptr, align 4
  %11 = alloca ptr, align 4
  %12 = alloca %"class.std::__h::basic_string", align 4
  %13 = alloca %"class.std::__h::basic_string", align 4
  %14 = alloca i32, align 4
  store ptr %0, ptr %7, align 4
  call void @llvm.dbg.declare(metadata ptr %7, metadata !9142, metadata !DIExpression()), !dbg !9143
  store i32 %1, ptr %8, align 4
  call void @llvm.dbg.declare(metadata ptr %8, metadata !9144, metadata !DIExpression()), !dbg !9145
  store ptr %2, ptr %9, align 4
  call void @llvm.dbg.declare(metadata ptr %9, metadata !9146, metadata !DIExpression()), !dbg !9147
  store ptr %3, ptr %10, align 4
  call void @llvm.dbg.declare(metadata ptr %10, metadata !9148, metadata !DIExpression()), !dbg !9149
  store ptr %4, ptr %11, align 4
  call void @llvm.dbg.declare(metadata ptr %11, metadata !9150, metadata !DIExpression()), !dbg !9151
  %15 = load ptr, ptr %7, align 4
  call void @llvm.dbg.declare(metadata ptr %12, metadata !9152, metadata !DIExpression()), !dbg !9153
  call void @llvm.memset.p0.i32(ptr align 4 %12, i8 0, i32 12, i1 false), !dbg !9153, !annotation !6167
  call void @_ZN4OHOS5SDemo13ISDemoService13GetDescriptorEv(ptr sret(%"class.std::__h::basic_string") align 4 %12), !dbg !9154
  call void @llvm.dbg.declare(metadata ptr %13, metadata !9155, metadata !DIExpression()), !dbg !9156
  call void @llvm.memset.p0.i32(ptr align 4 %13, i8 0, i32 12, i1 false), !dbg !9156, !annotation !6167
  %16 = load ptr, ptr %9, align 4, !dbg !9157
  call void @_ZN4OHOS13MessageParcel18ReadInterfaceTokenEv(ptr sret(%"class.std::__h::basic_string") align 4 %13, ptr noundef nonnull align 4 dereferenceable(116) %16), !dbg !9158
  %17 = call noundef zeroext i1 @_ZNSt3__hneB6v15004IDsNS_11char_traitsIDsEENS_9allocatorIDsEEEEbRKNS_12basic_stringIT_T0_T1_EESB_(ptr noundef nonnull align 4 dereferenceable(12) %12, ptr noundef nonnull align 4 dereferenceable(12) %13) #14, !dbg !9159
  br i1 %17, label %18, label %19, !dbg !9161

18:                                               ; preds = %5
  store i32 7, ptr %6, align 4, !dbg !9162
  store i32 1, ptr %14, align 4
  br label %55, !dbg !9162

19:                                               ; preds = %5
  %20 = load i32, ptr %8, align 4, !dbg !9164
  switch i32 %20, label %49 [
    i32 0, label %21
    i32 1, label %25
    i32 2, label %29
    i32 3, label %33
    i32 4, label %37
    i32 5, label %41
    i32 6, label %45
  ], !dbg !9165

21:                                               ; preds = %19
  %22 = load ptr, ptr %9, align 4, !dbg !9166
  %23 = load ptr, ptr %10, align 4, !dbg !9168
  %24 = call noundef i32 @_ZN4OHOS5SDemo9SDemoStub25tureIllegalInforFlowInnerERNS_13MessageParcelES3_(ptr noundef nonnull align 8 dereferenceable(64) %15, ptr noundef nonnull align 4 dereferenceable(116) %22, ptr noundef nonnull align 4 dereferenceable(116) %23), !dbg !9169
  store i32 %24, ptr %6, align 4, !dbg !9170
  store i32 1, ptr %14, align 4
  br label %55, !dbg !9170

25:                                               ; preds = %19
  %26 = load ptr, ptr %9, align 4, !dbg !9171
  %27 = load ptr, ptr %10, align 4, !dbg !9172
  %28 = call noundef i32 @_ZN4OHOS5SDemo9SDemoStub24mayIllegalInforFlowInnerERNS_13MessageParcelES3_(ptr noundef nonnull align 8 dereferenceable(64) %15, ptr noundef nonnull align 4 dereferenceable(116) %26, ptr noundef nonnull align 4 dereferenceable(116) %27), !dbg !9173
  store i32 %28, ptr %6, align 4, !dbg !9174
  store i32 1, ptr %14, align 4
  br label %55, !dbg !9174

29:                                               ; preds = %19
  %30 = load ptr, ptr %9, align 4, !dbg !9175
  %31 = load ptr, ptr %10, align 4, !dbg !9176
  %32 = call noundef i32 @_ZN4OHOS5SDemo9SDemoStub26falseIllegalInforFlowInnerERNS_13MessageParcelES3_(ptr noundef nonnull align 8 dereferenceable(64) %15, ptr noundef nonnull align 4 dereferenceable(116) %30, ptr noundef nonnull align 4 dereferenceable(116) %31), !dbg !9177
  store i32 %32, ptr %6, align 4, !dbg !9178
  store i32 1, ptr %14, align 4
  br label %55, !dbg !9178

33:                                               ; preds = %19
  %34 = load ptr, ptr %9, align 4, !dbg !9179
  %35 = load ptr, ptr %10, align 4, !dbg !9180
  %36 = call noundef i32 @_ZN4OHOS5SDemo9SDemoStub14helloWordInnerERNS_13MessageParcelES3_(ptr noundef nonnull align 8 dereferenceable(64) %15, ptr noundef nonnull align 4 dereferenceable(116) %34, ptr noundef nonnull align 4 dereferenceable(116) %35), !dbg !9181
  store i32 %36, ptr %6, align 4, !dbg !9182
  store i32 1, ptr %14, align 4
  br label %55, !dbg !9182

37:                                               ; preds = %19
  %38 = load ptr, ptr %9, align 4, !dbg !9183
  %39 = load ptr, ptr %10, align 4, !dbg !9184
  %40 = call noundef i32 @_ZN4OHOS5SDemo9SDemoStub27tureIllegalInforFlowInner_cERNS_13MessageParcelES3_(ptr noundef nonnull align 8 dereferenceable(64) %15, ptr noundef nonnull align 4 dereferenceable(116) %38, ptr noundef nonnull align 4 dereferenceable(116) %39), !dbg !9185
  store i32 %40, ptr %6, align 4, !dbg !9186
  store i32 1, ptr %14, align 4
  br label %55, !dbg !9186

41:                                               ; preds = %19
  %42 = load ptr, ptr %9, align 4, !dbg !9187
  %43 = load ptr, ptr %10, align 4, !dbg !9188
  %44 = call noundef i32 @_ZN4OHOS5SDemo9SDemoStub26mayIllegalInforFlowInner_cERNS_13MessageParcelES3_(ptr noundef nonnull align 8 dereferenceable(64) %15, ptr noundef nonnull align 4 dereferenceable(116) %42, ptr noundef nonnull align 4 dereferenceable(116) %43), !dbg !9189
  store i32 %44, ptr %6, align 4, !dbg !9190
  store i32 1, ptr %14, align 4
  br label %55, !dbg !9190

45:                                               ; preds = %19
  %46 = load ptr, ptr %9, align 4, !dbg !9191
  %47 = load ptr, ptr %10, align 4, !dbg !9192
  %48 = call noundef i32 @_ZN4OHOS5SDemo9SDemoStub28falseIllegalInforFlowInner_cERNS_13MessageParcelES3_(ptr noundef nonnull align 8 dereferenceable(64) %15, ptr noundef nonnull align 4 dereferenceable(116) %46, ptr noundef nonnull align 4 dereferenceable(116) %47), !dbg !9193
  store i32 %48, ptr %6, align 4, !dbg !9194
  store i32 1, ptr %14, align 4
  br label %55, !dbg !9194

49:                                               ; preds = %19
  %50 = load i32, ptr %8, align 4, !dbg !9195
  %51 = load ptr, ptr %9, align 4, !dbg !9196
  %52 = load ptr, ptr %10, align 4, !dbg !9197
  %53 = load ptr, ptr %11, align 4, !dbg !9198
  %54 = call noundef i32 @_ZN4OHOS13IPCObjectStub15OnRemoteRequestEjRNS_13MessageParcelES2_RNS_13MessageOptionE(ptr noundef nonnull align 8 dereferenceable(57) %15, i32 noundef %50, ptr noundef nonnull align 4 dereferenceable(116) %51, ptr noundef nonnull align 4 dereferenceable(116) %52, ptr noundef nonnull align 4 dereferenceable(8) %53), !dbg !9199
  store i32 %54, ptr %6, align 4, !dbg !9200
  store i32 1, ptr %14, align 4
  br label %55, !dbg !9200

55:                                               ; preds = %49, %45, %41, %37, %33, %29, %25, %21, %18
  %56 = call noundef ptr @_ZNSt3__h12basic_stringIDsNS_11char_traitsIDsEENS_9allocatorIDsEEED2Ev(ptr noundef nonnull align 4 dereferenceable(12) %13) #14, !dbg !9201
  %57 = call noundef ptr @_ZNSt3__h12basic_stringIDsNS_11char_traitsIDsEENS_9allocatorIDsEEED2Ev(ptr noundef nonnull align 4 dereferenceable(12) %12) #14, !dbg !9201
  %58 = load i32, ptr %6, align 4, !dbg !9201
  ret i32 %58, !dbg !9201
}

declare void @_ZN4OHOS13IPCObjectStub16OnFirstStrongRefEPKv(ptr noundef nonnull align 8 dereferenceable(57), ptr noundef) unnamed_addr #4

declare void @_ZN4OHOS13IPCObjectStub15OnLastStrongRefEPKv(ptr noundef nonnull align 8 dereferenceable(57), ptr noundef) unnamed_addr #4

declare noundef i32 @_ZN4OHOS13IPCObjectStub12OnRemoteDumpEjRNS_13MessageParcelES2_RNS_13MessageOptionE(ptr noundef nonnull align 8 dereferenceable(57), i32 noundef, ptr noundef nonnull align 4 dereferenceable(116), ptr noundef nonnull align 4 dereferenceable(116), ptr noundef nonnull align 4 dereferenceable(8)) unnamed_addr #4

declare noundef i32 @_ZN4OHOS13IPCObjectStub12ProcessProtoEjRNS_13MessageParcelES2_RNS_13MessageOptionE(ptr noundef nonnull align 8 dereferenceable(57), i32 noundef, ptr noundef nonnull align 4 dereferenceable(116), ptr noundef nonnull align 4 dereferenceable(116), ptr noundef nonnull align 4 dereferenceable(8)) unnamed_addr #4

declare noundef i32 @_ZNK4OHOS13IPCObjectStub13GetObjectTypeEv(ptr noundef nonnull align 8 dereferenceable(57)) unnamed_addr #4

declare noundef i32 @_ZN4OHOS13IPCObjectStub21GetAndSaveDBinderDataEij(ptr noundef nonnull align 8 dereferenceable(57), i32 noundef, i32 noundef) unnamed_addr #4

; Function Attrs: mustprogress noinline nounwind optnone sspstrong uwtable(sync)
define linkonce_odr void @_ZN4OHOS11IRemoteStubINS_5SDemo13ISDemoServiceEE8AsObjectEv(ptr noalias sret(%"class.std::__h::locale") align 4 %0, ptr noundef nonnull align 8 dereferenceable(64) %1) unnamed_addr #0 comdat align 2 !dbg !9202 {
  %3 = alloca ptr, align 4
  %4 = alloca ptr, align 4
  store ptr %0, ptr %3, align 4
  store ptr %1, ptr %4, align 4
  call void @llvm.dbg.declare(metadata ptr %4, metadata !9203, metadata !DIExpression()), !dbg !9204
  %5 = load ptr, ptr %4, align 4
  %6 = call noundef ptr @_ZN4OHOS4sptrINS_13IRemoteObjectEEC2EPS1_(ptr noundef nonnull align 4 dereferenceable(4) %0, ptr noundef %5), !dbg !9205
  ret void, !dbg !9206
}

; Function Attrs: noinline nounwind optnone sspstrong uwtable(sync)
define noundef ptr @_ZThn60_N4OHOS5SDemo9SDemoStubD1Ev(ptr noundef %0) unnamed_addr #3 align 2 !dbg !9207 {
  %2 = alloca ptr, align 4
  %3 = alloca ptr, align 4
  store ptr %0, ptr %3, align 4
  %4 = load ptr, ptr %3, align 4, !dbg !9208
  store ptr %4, ptr %2, align 4, !dbg !9208
  %5 = getelementptr inbounds i8, ptr %4, i32 -60, !dbg !9208
  %6 = tail call noundef ptr @_ZN4OHOS5SDemo9SDemoStubD1Ev(ptr noundef nonnull align 8 dereferenceable(64) %5) #14, !dbg !9208
  ret ptr undef, !dbg !9208
}

; Function Attrs: noinline nounwind optnone sspstrong uwtable(sync)
define void @_ZThn60_N4OHOS5SDemo9SDemoStubD0Ev(ptr noundef %0) unnamed_addr #3 align 2 !dbg !9209 {
  %2 = alloca ptr, align 4
  store ptr %0, ptr %2, align 4
  %3 = load ptr, ptr %2, align 4, !dbg !9210
  %4 = getelementptr inbounds i8, ptr %3, i32 -60, !dbg !9210
  tail call void @_ZN4OHOS5SDemo9SDemoStubD0Ev(ptr noundef nonnull align 8 dereferenceable(64) %4) #14, !dbg !9210
  ret void, !dbg !9210
}

; Function Attrs: noinline nounwind optnone sspstrong uwtable(sync)
define linkonce_odr void @_ZThn60_N4OHOS11IRemoteStubINS_5SDemo13ISDemoServiceEE8AsObjectEv(ptr noalias sret(%"class.std::__h::locale") align 4 %0, ptr noundef %1) unnamed_addr #3 comdat align 2 !dbg !9211 {
  %3 = alloca ptr, align 4
  %4 = alloca ptr, align 4
  store ptr %0, ptr %3, align 4
  store ptr %1, ptr %4, align 4
  %5 = load ptr, ptr %4, align 4, !dbg !9212
  %6 = getelementptr inbounds i8, ptr %5, i32 -60, !dbg !9212
  tail call void @_ZN4OHOS11IRemoteStubINS_5SDemo13ISDemoServiceEE8AsObjectEv(ptr sret(%"class.std::__h::locale") align 4 %0, ptr noundef nonnull align 8 dereferenceable(64) %6), !dbg !9212
  ret void, !dbg !9212
}

declare void @__cxa_pure_virtual() unnamed_addr

; Function Attrs: noinline nounwind optnone sspstrong uwtable(sync)
define noundef ptr @_ZTv0_n16_N4OHOS5SDemo9SDemoStubD1Ev(ptr noundef %0) unnamed_addr #3 align 2 !dbg !9213 {
  %2 = alloca ptr, align 4
  %3 = alloca ptr, align 4
  store ptr %0, ptr %3, align 4
  %4 = load ptr, ptr %3, align 4, !dbg !9214
  store ptr %4, ptr %2, align 4, !dbg !9214
  %5 = load ptr, ptr %4, align 8, !dbg !9214
  %6 = getelementptr inbounds i8, ptr %5, i64 -16, !dbg !9214
  %7 = load i32, ptr %6, align 4, !dbg !9214
  %8 = getelementptr inbounds i8, ptr %4, i32 %7, !dbg !9214
  %9 = tail call noundef ptr @_ZN4OHOS5SDemo9SDemoStubD1Ev(ptr noundef nonnull align 8 dereferenceable(64) %8) #14, !dbg !9214
  ret ptr undef, !dbg !9214
}

; Function Attrs: noinline nounwind optnone sspstrong uwtable(sync)
define void @_ZTv0_n16_N4OHOS5SDemo9SDemoStubD0Ev(ptr noundef %0) unnamed_addr #3 align 2 !dbg !9215 {
  %2 = alloca ptr, align 4
  store ptr %0, ptr %2, align 4
  %3 = load ptr, ptr %2, align 4, !dbg !9216
  %4 = load ptr, ptr %3, align 8, !dbg !9216
  %5 = getelementptr inbounds i8, ptr %4, i64 -16, !dbg !9216
  %6 = load i32, ptr %5, align 4, !dbg !9216
  %7 = getelementptr inbounds i8, ptr %3, i32 %6, !dbg !9216
  tail call void @_ZN4OHOS5SDemo9SDemoStubD0Ev(ptr noundef nonnull align 8 dereferenceable(64) %7) #14, !dbg !9216
  ret void, !dbg !9216
}

declare noundef zeroext i1 @_ZTv0_n20_NK4OHOS13IRemoteObject11MarshallingERNS_6ParcelE(ptr noundef, ptr noundef nonnull align 4 dereferenceable(61)) unnamed_addr #4

; Function Attrs: noinline nounwind optnone sspstrong uwtable(sync)
define noundef ptr @_ZTv0_n12_N4OHOS5SDemo9SDemoStubD1Ev(ptr noundef %0) unnamed_addr #3 align 2 !dbg !9217 {
  %2 = alloca ptr, align 4
  %3 = alloca ptr, align 4
  store ptr %0, ptr %3, align 4
  %4 = load ptr, ptr %3, align 4, !dbg !9218
  store ptr %4, ptr %2, align 4, !dbg !9218
  %5 = load ptr, ptr %4, align 8, !dbg !9218
  %6 = getelementptr inbounds i8, ptr %5, i64 -12, !dbg !9218
  %7 = load i32, ptr %6, align 4, !dbg !9218
  %8 = getelementptr inbounds i8, ptr %4, i32 %7, !dbg !9218
  %9 = tail call noundef ptr @_ZN4OHOS5SDemo9SDemoStubD1Ev(ptr noundef nonnull align 8 dereferenceable(64) %8) #14, !dbg !9218
  ret ptr undef, !dbg !9218
}

; Function Attrs: noinline nounwind optnone sspstrong uwtable(sync)
define void @_ZTv0_n12_N4OHOS5SDemo9SDemoStubD0Ev(ptr noundef %0) unnamed_addr #3 align 2 !dbg !9219 {
  %2 = alloca ptr, align 4
  store ptr %0, ptr %2, align 4
  %3 = load ptr, ptr %2, align 4, !dbg !9220
  %4 = load ptr, ptr %3, align 8, !dbg !9220
  %5 = getelementptr inbounds i8, ptr %4, i64 -12, !dbg !9220
  %6 = load i32, ptr %5, align 4, !dbg !9220
  %7 = getelementptr inbounds i8, ptr %3, i32 %6, !dbg !9220
  tail call void @_ZN4OHOS5SDemo9SDemoStubD0Ev(ptr noundef nonnull align 8 dereferenceable(64) %7) #14, !dbg !9220
  ret void, !dbg !9220
}

declare void @_ZN4OHOS7RefBase14RefPtrCallbackEv(ptr noundef nonnull align 4 dereferenceable(8)) unnamed_addr #4

declare void @_ZTv0_n20_N4OHOS13IPCObjectStub16OnFirstStrongRefEPKv(ptr noundef, ptr noundef) unnamed_addr #4

declare void @_ZTv0_n24_N4OHOS13IPCObjectStub15OnLastStrongRefEPKv(ptr noundef, ptr noundef) unnamed_addr #4

declare void @_ZN4OHOS7RefBase13OnLastWeakRefEPKv(ptr noundef nonnull align 4 dereferenceable(8), ptr noundef) unnamed_addr #4

declare noundef zeroext i1 @_ZN4OHOS7RefBase17OnAttemptPromotedEPKv(ptr noundef nonnull align 4 dereferenceable(8), ptr noundef) unnamed_addr #4

; Function Attrs: noinline nounwind optnone sspstrong uwtable(sync)
define linkonce_odr hidden noundef ptr @_ZN4OHOS4sptrINS_13IRemoteObjectEEC2EPS1_(ptr noundef nonnull returned align 4 dereferenceable(4) %0, ptr noundef %1) unnamed_addr #3 comdat align 2 !dbg !9221 {
  %3 = alloca ptr, align 4
  %4 = alloca ptr, align 4
  %5 = alloca ptr, align 4
  store ptr %0, ptr %4, align 4
  call void @llvm.dbg.declare(metadata ptr %4, metadata !9222, metadata !DIExpression()), !dbg !9224
  store ptr %1, ptr %5, align 4
  call void @llvm.dbg.declare(metadata ptr %5, metadata !9225, metadata !DIExpression()), !dbg !9226
  %6 = load ptr, ptr %4, align 4
  store ptr %6, ptr %3, align 4
  %7 = getelementptr inbounds %"class.std::__h::locale", ptr %6, i32 0, i32 0, !dbg !9227
  store ptr null, ptr %7, align 4, !dbg !9227
  %8 = load ptr, ptr %5, align 4, !dbg !9228
  %9 = getelementptr inbounds %"class.std::__h::locale", ptr %6, i32 0, i32 0, !dbg !9230
  store ptr %8, ptr %9, align 4, !dbg !9231
  %10 = getelementptr inbounds %"class.std::__h::locale", ptr %6, i32 0, i32 0, !dbg !9232
  %11 = load ptr, ptr %10, align 4, !dbg !9232
  %12 = icmp ne ptr %11, null, !dbg !9234
  br i1 %12, label %13, label %20, !dbg !9235

13:                                               ; preds = %2
  %14 = getelementptr inbounds %"class.std::__h::locale", ptr %6, i32 0, i32 0, !dbg !9236
  %15 = load ptr, ptr %14, align 4, !dbg !9236
  %16 = load ptr, ptr %15, align 4, !dbg !9238
  %17 = getelementptr i8, ptr %16, i64 -16, !dbg !9238
  %18 = load i32, ptr %17, align 4, !dbg !9238
  %19 = getelementptr inbounds i8, ptr %15, i32 %18, !dbg !9238
  call void @_ZN4OHOS7RefBase12IncStrongRefEPKv(ptr noundef nonnull align 4 dereferenceable(8) %19, ptr noundef %6), !dbg !9238
  br label %20, !dbg !9239

20:                                               ; preds = %13, %2
  %21 = load ptr, ptr %3, align 4, !dbg !9240
  ret ptr %21, !dbg !9240
}

declare void @_ZN4OHOS7RefBase12IncStrongRefEPKv(ptr noundef nonnull align 4 dereferenceable(8), ptr noundef) #4

; Function Attrs: mustprogress noinline nounwind optnone sspstrong uwtable(sync)
define linkonce_odr hidden void @_ZN4OHOS5SDemo13ISDemoService13GetDescriptorEv(ptr noalias sret(%"class.std::__h::basic_string") align 4 %0) #0 comdat align 2 !dbg !9241 {
  %2 = alloca ptr, align 4
  store ptr %0, ptr %2, align 4
  %3 = call noundef ptr @_ZNSt3__h12basic_stringIDsNS_11char_traitsIDsEENS_9allocatorIDsEEEC2B6v15004IDnEEPKDs(ptr noundef nonnull align 4 dereferenceable(12) %0, ptr noundef @.str.19), !dbg !9242
  ret void, !dbg !9242
}

declare void @_ZN4OHOS13MessageParcel18ReadInterfaceTokenEv(ptr sret(%"class.std::__h::basic_string") align 4, ptr noundef nonnull align 4 dereferenceable(116)) #4

; Function Attrs: mustprogress noinline nounwind optnone sspstrong uwtable(sync)
define linkonce_odr hidden noundef zeroext i1 @_ZNSt3__hneB6v15004IDsNS_11char_traitsIDsEENS_9allocatorIDsEEEEbRKNS_12basic_stringIT_T0_T1_EESB_(ptr noundef nonnull align 4 dereferenceable(12) %0, ptr noundef nonnull align 4 dereferenceable(12) %1) #0 comdat !dbg !9243 {
  %3 = alloca ptr, align 4
  %4 = alloca ptr, align 4
  store ptr %0, ptr %3, align 4
  call void @llvm.dbg.declare(metadata ptr %3, metadata !9246, metadata !DIExpression()), !dbg !9247
  store ptr %1, ptr %4, align 4
  call void @llvm.dbg.declare(metadata ptr %4, metadata !9248, metadata !DIExpression()), !dbg !9249
  %5 = load ptr, ptr %3, align 4, !dbg !9250
  %6 = load ptr, ptr %4, align 4, !dbg !9251
  %7 = call noundef zeroext i1 @_ZNSt3__heqB6v15004IDsNS_11char_traitsIDsEENS_9allocatorIDsEEEEbRKNS_12basic_stringIT_T0_T1_EESB_(ptr noundef nonnull align 4 dereferenceable(12) %5, ptr noundef nonnull align 4 dereferenceable(12) %6) #14, !dbg !9252
  %8 = xor i1 %7, true, !dbg !9253
  ret i1 %8, !dbg !9254
}

; Function Attrs: mustprogress noinline nounwind optnone sspstrong uwtable(sync)
define noundef i32 @_ZN4OHOS5SDemo9SDemoStub25tureIllegalInforFlowInnerERNS_13MessageParcelES3_(ptr noundef nonnull align 8 dereferenceable(64) %0, ptr noundef nonnull align 4 dereferenceable(116) %1, ptr noundef nonnull align 4 dereferenceable(116) %2) #0 align 2 !dbg !9255 {
  %4 = alloca ptr, align 4
  %5 = alloca ptr, align 4
  %6 = alloca ptr, align 4
  %7 = alloca i32, align 4
  %8 = alloca i32, align 4
  %9 = alloca i32, align 4
  store ptr %0, ptr %4, align 4
  call void @llvm.dbg.declare(metadata ptr %4, metadata !9256, metadata !DIExpression()), !dbg !9257
  store ptr %1, ptr %5, align 4
  call void @llvm.dbg.declare(metadata ptr %5, metadata !9258, metadata !DIExpression()), !dbg !9259
  store ptr %2, ptr %6, align 4
  call void @llvm.dbg.declare(metadata ptr %6, metadata !9260, metadata !DIExpression()), !dbg !9261
  %10 = load ptr, ptr %4, align 4
  call void @llvm.dbg.declare(metadata ptr %7, metadata !9262, metadata !DIExpression()), !dbg !9263
  store i32 0, ptr %7, align 4, !dbg !9263, !annotation !6167
  store i32 0, ptr %7, align 4, !dbg !9263
  call void @llvm.dbg.declare(metadata ptr %8, metadata !9264, metadata !DIExpression()), !dbg !9265
  store i32 0, ptr %8, align 4, !dbg !9265, !annotation !6167
  %11 = load ptr, ptr %5, align 4, !dbg !9266
  %12 = call noundef i32 @_ZN4OHOS6Parcel9ReadInt32Ev(ptr noundef nonnull align 4 dereferenceable(61) %11), !dbg !9267
  store i32 %12, ptr %8, align 4, !dbg !9268
  call void @llvm.dbg.declare(metadata ptr %9, metadata !9269, metadata !DIExpression()), !dbg !9270
  store i32 0, ptr %9, align 4, !dbg !9270, !annotation !6167
  %13 = getelementptr inbounds i8, ptr %10, i32 60, !dbg !9271
  %14 = load i32, ptr %8, align 4, !dbg !9272
  %15 = load ptr, ptr %13, align 4, !dbg !9271
  %16 = getelementptr inbounds ptr, ptr %15, i64 3, !dbg !9271
  %17 = load ptr, ptr %16, align 4, !dbg !9271
  %18 = call noundef i32 %17(ptr noundef nonnull align 4 dereferenceable(4) %13, i32 noundef %14), !dbg !9271
  store i32 %18, ptr %9, align 4, !dbg !9270
  %19 = load ptr, ptr %6, align 4, !dbg !9273
  %20 = load i32, ptr %7, align 4, !dbg !9274
  %21 = call noundef zeroext i1 @_ZN4OHOS6Parcel10WriteInt32Ei(ptr noundef nonnull align 4 dereferenceable(61) %19, i32 noundef %20), !dbg !9275
  %22 = load ptr, ptr %6, align 4, !dbg !9276
  %23 = load i32, ptr %9, align 4, !dbg !9277
  %24 = call noundef zeroext i1 @_ZN4OHOS6Parcel10WriteInt32Ei(ptr noundef nonnull align 4 dereferenceable(61) %22, i32 noundef %23), !dbg !9278
  %25 = load i32, ptr %7, align 4, !dbg !9279
  ret i32 %25, !dbg !9280
}

; Function Attrs: mustprogress noinline nounwind optnone sspstrong uwtable(sync)
define noundef i32 @_ZN4OHOS5SDemo9SDemoStub24mayIllegalInforFlowInnerERNS_13MessageParcelES3_(ptr noundef nonnull align 8 dereferenceable(64) %0, ptr noundef nonnull align 4 dereferenceable(116) %1, ptr noundef nonnull align 4 dereferenceable(116) %2) #0 align 2 !dbg !9281 {
  %4 = alloca ptr, align 4
  %5 = alloca ptr, align 4
  %6 = alloca ptr, align 4
  %7 = alloca i32, align 4
  %8 = alloca i32, align 4
  %9 = alloca i32, align 4
  store ptr %0, ptr %4, align 4
  call void @llvm.dbg.declare(metadata ptr %4, metadata !9282, metadata !DIExpression()), !dbg !9283
  store ptr %1, ptr %5, align 4
  call void @llvm.dbg.declare(metadata ptr %5, metadata !9284, metadata !DIExpression()), !dbg !9285
  store ptr %2, ptr %6, align 4
  call void @llvm.dbg.declare(metadata ptr %6, metadata !9286, metadata !DIExpression()), !dbg !9287
  %10 = load ptr, ptr %4, align 4
  call void @llvm.dbg.declare(metadata ptr %7, metadata !9288, metadata !DIExpression()), !dbg !9289
  store i32 0, ptr %7, align 4, !dbg !9289, !annotation !6167
  store i32 0, ptr %7, align 4, !dbg !9289
  call void @llvm.dbg.declare(metadata ptr %8, metadata !9290, metadata !DIExpression()), !dbg !9291
  store i32 0, ptr %8, align 4, !dbg !9291, !annotation !6167
  %11 = load ptr, ptr %5, align 4, !dbg !9292
  %12 = call noundef i32 @_ZN4OHOS6Parcel9ReadInt32Ev(ptr noundef nonnull align 4 dereferenceable(61) %11), !dbg !9293
  store i32 %12, ptr %8, align 4, !dbg !9294
  call void @llvm.dbg.declare(metadata ptr %9, metadata !9295, metadata !DIExpression()), !dbg !9296
  store i32 0, ptr %9, align 4, !dbg !9296, !annotation !6167
  %13 = getelementptr inbounds i8, ptr %10, i32 60, !dbg !9297
  %14 = load i32, ptr %8, align 4, !dbg !9298
  %15 = load ptr, ptr %13, align 4, !dbg !9297
  %16 = getelementptr inbounds ptr, ptr %15, i64 4, !dbg !9297
  %17 = load ptr, ptr %16, align 4, !dbg !9297
  %18 = call noundef i32 %17(ptr noundef nonnull align 4 dereferenceable(4) %13, i32 noundef %14), !dbg !9297
  store i32 %18, ptr %9, align 4, !dbg !9296
  %19 = load ptr, ptr %6, align 4, !dbg !9299
  %20 = load i32, ptr %7, align 4, !dbg !9300
  %21 = call noundef zeroext i1 @_ZN4OHOS6Parcel10WriteInt32Ei(ptr noundef nonnull align 4 dereferenceable(61) %19, i32 noundef %20), !dbg !9301
  %22 = load ptr, ptr %6, align 4, !dbg !9302
  %23 = load i32, ptr %9, align 4, !dbg !9303
  %24 = call noundef zeroext i1 @_ZN4OHOS6Parcel10WriteInt32Ei(ptr noundef nonnull align 4 dereferenceable(61) %22, i32 noundef %23), !dbg !9304
  %25 = load i32, ptr %7, align 4, !dbg !9305
  ret i32 %25, !dbg !9306
}

; Function Attrs: mustprogress noinline nounwind optnone sspstrong uwtable(sync)
define noundef i32 @_ZN4OHOS5SDemo9SDemoStub26falseIllegalInforFlowInnerERNS_13MessageParcelES3_(ptr noundef nonnull align 8 dereferenceable(64) %0, ptr noundef nonnull align 4 dereferenceable(116) %1, ptr noundef nonnull align 4 dereferenceable(116) %2) #0 align 2 !dbg !9307 {
  %4 = alloca ptr, align 4
  %5 = alloca ptr, align 4
  %6 = alloca ptr, align 4
  %7 = alloca i32, align 4
  %8 = alloca i32, align 4
  %9 = alloca i32, align 4
  store ptr %0, ptr %4, align 4
  call void @llvm.dbg.declare(metadata ptr %4, metadata !9308, metadata !DIExpression()), !dbg !9309
  store ptr %1, ptr %5, align 4
  call void @llvm.dbg.declare(metadata ptr %5, metadata !9310, metadata !DIExpression()), !dbg !9311
  store ptr %2, ptr %6, align 4
  call void @llvm.dbg.declare(metadata ptr %6, metadata !9312, metadata !DIExpression()), !dbg !9313
  %10 = load ptr, ptr %4, align 4
  call void @llvm.dbg.declare(metadata ptr %7, metadata !9314, metadata !DIExpression()), !dbg !9315
  store i32 0, ptr %7, align 4, !dbg !9315, !annotation !6167
  store i32 0, ptr %7, align 4, !dbg !9315
  call void @llvm.dbg.declare(metadata ptr %8, metadata !9316, metadata !DIExpression()), !dbg !9317
  store i32 0, ptr %8, align 4, !dbg !9317, !annotation !6167
  %11 = load ptr, ptr %5, align 4, !dbg !9318
  %12 = call noundef i32 @_ZN4OHOS6Parcel9ReadInt32Ev(ptr noundef nonnull align 4 dereferenceable(61) %11), !dbg !9319
  store i32 %12, ptr %8, align 4, !dbg !9320
  call void @llvm.dbg.declare(metadata ptr %9, metadata !9321, metadata !DIExpression()), !dbg !9322
  store i32 0, ptr %9, align 4, !dbg !9322, !annotation !6167
  %13 = getelementptr inbounds i8, ptr %10, i32 60, !dbg !9323
  %14 = load i32, ptr %8, align 4, !dbg !9324
  %15 = load ptr, ptr %13, align 4, !dbg !9323
  %16 = getelementptr inbounds ptr, ptr %15, i64 5, !dbg !9323
  %17 = load ptr, ptr %16, align 4, !dbg !9323
  %18 = call noundef i32 %17(ptr noundef nonnull align 4 dereferenceable(4) %13, i32 noundef %14), !dbg !9323
  store i32 %18, ptr %9, align 4, !dbg !9322
  %19 = load ptr, ptr %6, align 4, !dbg !9325
  %20 = load i32, ptr %7, align 4, !dbg !9326
  %21 = call noundef zeroext i1 @_ZN4OHOS6Parcel10WriteInt32Ei(ptr noundef nonnull align 4 dereferenceable(61) %19, i32 noundef %20), !dbg !9327
  %22 = load ptr, ptr %6, align 4, !dbg !9328
  %23 = load i32, ptr %9, align 4, !dbg !9329
  %24 = call noundef zeroext i1 @_ZN4OHOS6Parcel10WriteInt32Ei(ptr noundef nonnull align 4 dereferenceable(61) %22, i32 noundef %23), !dbg !9330
  %25 = load i32, ptr %7, align 4, !dbg !9331
  ret i32 %25, !dbg !9332
}

; Function Attrs: mustprogress noinline nounwind optnone sspstrong uwtable(sync)
define noundef i32 @_ZN4OHOS5SDemo9SDemoStub14helloWordInnerERNS_13MessageParcelES3_(ptr noundef nonnull align 8 dereferenceable(64) %0, ptr noundef nonnull align 4 dereferenceable(116) %1, ptr noundef nonnull align 4 dereferenceable(116) %2) #0 align 2 !dbg !9333 {
  %4 = alloca ptr, align 4
  %5 = alloca ptr, align 4
  %6 = alloca ptr, align 4
  %7 = alloca i32, align 4
  store ptr %0, ptr %4, align 4
  call void @llvm.dbg.declare(metadata ptr %4, metadata !9334, metadata !DIExpression()), !dbg !9335
  store ptr %1, ptr %5, align 4
  call void @llvm.dbg.declare(metadata ptr %5, metadata !9336, metadata !DIExpression()), !dbg !9337
  store ptr %2, ptr %6, align 4
  call void @llvm.dbg.declare(metadata ptr %6, metadata !9338, metadata !DIExpression()), !dbg !9339
  %8 = load ptr, ptr %4, align 4
  call void @llvm.dbg.declare(metadata ptr %7, metadata !9340, metadata !DIExpression()), !dbg !9341
  store i32 0, ptr %7, align 4, !dbg !9341, !annotation !6167
  store i32 0, ptr %7, align 4, !dbg !9341
  %9 = getelementptr inbounds i8, ptr %8, i32 60, !dbg !9342
  %10 = load ptr, ptr %9, align 4, !dbg !9342
  %11 = getelementptr inbounds ptr, ptr %10, i64 6, !dbg !9342
  %12 = load ptr, ptr %11, align 4, !dbg !9342
  call void %12(ptr noundef nonnull align 4 dereferenceable(4) %9), !dbg !9342
  %13 = load ptr, ptr %6, align 4, !dbg !9343
  %14 = load i32, ptr %7, align 4, !dbg !9344
  %15 = call noundef zeroext i1 @_ZN4OHOS6Parcel10WriteInt32Ei(ptr noundef nonnull align 4 dereferenceable(61) %13, i32 noundef %14), !dbg !9345
  %16 = load i32, ptr %7, align 4, !dbg !9346
  ret i32 %16, !dbg !9347
}

; Function Attrs: mustprogress noinline nounwind optnone sspstrong uwtable(sync)
define noundef i32 @_ZN4OHOS5SDemo9SDemoStub27tureIllegalInforFlowInner_cERNS_13MessageParcelES3_(ptr noundef nonnull align 8 dereferenceable(64) %0, ptr noundef nonnull align 4 dereferenceable(116) %1, ptr noundef nonnull align 4 dereferenceable(116) %2) #0 align 2 !dbg !9348 {
  %4 = alloca ptr, align 4
  %5 = alloca ptr, align 4
  %6 = alloca ptr, align 4
  %7 = alloca i32, align 4
  %8 = alloca i32, align 4
  %9 = alloca i32, align 4
  store ptr %0, ptr %4, align 4
  call void @llvm.dbg.declare(metadata ptr %4, metadata !9349, metadata !DIExpression()), !dbg !9350
  store ptr %1, ptr %5, align 4
  call void @llvm.dbg.declare(metadata ptr %5, metadata !9351, metadata !DIExpression()), !dbg !9352
  store ptr %2, ptr %6, align 4
  call void @llvm.dbg.declare(metadata ptr %6, metadata !9353, metadata !DIExpression()), !dbg !9354
  %10 = load ptr, ptr %4, align 4
  call void @llvm.dbg.declare(metadata ptr %7, metadata !9355, metadata !DIExpression()), !dbg !9356
  store i32 0, ptr %7, align 4, !dbg !9356, !annotation !6167
  store i32 0, ptr %7, align 4, !dbg !9356
  call void @llvm.dbg.declare(metadata ptr %8, metadata !9357, metadata !DIExpression()), !dbg !9358
  store i32 0, ptr %8, align 4, !dbg !9358, !annotation !6167
  %11 = load ptr, ptr %5, align 4, !dbg !9359
  %12 = call noundef i32 @_ZN4OHOS6Parcel9ReadInt32Ev(ptr noundef nonnull align 4 dereferenceable(61) %11), !dbg !9360
  store i32 %12, ptr %8, align 4, !dbg !9358
  call void @llvm.dbg.declare(metadata ptr %9, metadata !9361, metadata !DIExpression()), !dbg !9362
  store i32 0, ptr %9, align 4, !dbg !9362, !annotation !6167
  %13 = getelementptr inbounds i8, ptr %10, i32 60, !dbg !9363
  %14 = load i32, ptr %8, align 4, !dbg !9364
  %15 = load ptr, ptr %13, align 4, !dbg !9363
  %16 = getelementptr inbounds ptr, ptr %15, i64 7, !dbg !9363
  %17 = load ptr, ptr %16, align 4, !dbg !9363
  %18 = call noundef i32 %17(ptr noundef nonnull align 4 dereferenceable(4) %13, i32 noundef %14), !dbg !9363
  store i32 %18, ptr %9, align 4, !dbg !9362
  %19 = load ptr, ptr %6, align 4, !dbg !9365
  %20 = load i32, ptr %7, align 4, !dbg !9366
  %21 = call noundef zeroext i1 @_ZN4OHOS6Parcel10WriteInt32Ei(ptr noundef nonnull align 4 dereferenceable(61) %19, i32 noundef %20), !dbg !9367
  %22 = load ptr, ptr %6, align 4, !dbg !9368
  %23 = load i32, ptr %9, align 4, !dbg !9369
  %24 = call noundef zeroext i1 @_ZN4OHOS6Parcel10WriteInt32Ei(ptr noundef nonnull align 4 dereferenceable(61) %22, i32 noundef %23), !dbg !9370
  %25 = load i32, ptr %7, align 4, !dbg !9371
  ret i32 %25, !dbg !9372
}

; Function Attrs: mustprogress noinline nounwind optnone sspstrong uwtable(sync)
define noundef i32 @_ZN4OHOS5SDemo9SDemoStub26mayIllegalInforFlowInner_cERNS_13MessageParcelES3_(ptr noundef nonnull align 8 dereferenceable(64) %0, ptr noundef nonnull align 4 dereferenceable(116) %1, ptr noundef nonnull align 4 dereferenceable(116) %2) #0 align 2 !dbg !9373 {
  %4 = alloca ptr, align 4
  %5 = alloca ptr, align 4
  %6 = alloca ptr, align 4
  %7 = alloca i32, align 4
  %8 = alloca i32, align 4
  %9 = alloca i32, align 4
  store ptr %0, ptr %4, align 4
  call void @llvm.dbg.declare(metadata ptr %4, metadata !9374, metadata !DIExpression()), !dbg !9375
  store ptr %1, ptr %5, align 4
  call void @llvm.dbg.declare(metadata ptr %5, metadata !9376, metadata !DIExpression()), !dbg !9377
  store ptr %2, ptr %6, align 4
  call void @llvm.dbg.declare(metadata ptr %6, metadata !9378, metadata !DIExpression()), !dbg !9379
  %10 = load ptr, ptr %4, align 4
  call void @llvm.dbg.declare(metadata ptr %7, metadata !9380, metadata !DIExpression()), !dbg !9381
  store i32 0, ptr %7, align 4, !dbg !9381, !annotation !6167
  store i32 0, ptr %7, align 4, !dbg !9381
  call void @llvm.dbg.declare(metadata ptr %8, metadata !9382, metadata !DIExpression()), !dbg !9383
  store i32 0, ptr %8, align 4, !dbg !9383, !annotation !6167
  %11 = load ptr, ptr %5, align 4, !dbg !9384
  %12 = call noundef i32 @_ZN4OHOS6Parcel9ReadInt32Ev(ptr noundef nonnull align 4 dereferenceable(61) %11), !dbg !9385
  store i32 %12, ptr %8, align 4, !dbg !9383
  call void @llvm.dbg.declare(metadata ptr %9, metadata !9386, metadata !DIExpression()), !dbg !9387
  store i32 0, ptr %9, align 4, !dbg !9387, !annotation !6167
  %13 = getelementptr inbounds i8, ptr %10, i32 60, !dbg !9388
  %14 = load i32, ptr %8, align 4, !dbg !9389
  %15 = load ptr, ptr %13, align 4, !dbg !9388
  %16 = getelementptr inbounds ptr, ptr %15, i64 8, !dbg !9388
  %17 = load ptr, ptr %16, align 4, !dbg !9388
  %18 = call noundef i32 %17(ptr noundef nonnull align 4 dereferenceable(4) %13, i32 noundef %14), !dbg !9388
  store i32 %18, ptr %9, align 4, !dbg !9387
  %19 = load ptr, ptr %6, align 4, !dbg !9390
  %20 = load i32, ptr %7, align 4, !dbg !9391
  %21 = call noundef zeroext i1 @_ZN4OHOS6Parcel10WriteInt32Ei(ptr noundef nonnull align 4 dereferenceable(61) %19, i32 noundef %20), !dbg !9392
  %22 = load ptr, ptr %6, align 4, !dbg !9393
  %23 = load i32, ptr %9, align 4, !dbg !9394
  %24 = call noundef zeroext i1 @_ZN4OHOS6Parcel10WriteInt32Ei(ptr noundef nonnull align 4 dereferenceable(61) %22, i32 noundef %23), !dbg !9395
  %25 = load i32, ptr %7, align 4, !dbg !9396
  ret i32 %25, !dbg !9397
}

; Function Attrs: mustprogress noinline nounwind optnone sspstrong uwtable(sync)
define noundef i32 @_ZN4OHOS5SDemo9SDemoStub28falseIllegalInforFlowInner_cERNS_13MessageParcelES3_(ptr noundef nonnull align 8 dereferenceable(64) %0, ptr noundef nonnull align 4 dereferenceable(116) %1, ptr noundef nonnull align 4 dereferenceable(116) %2) #0 align 2 !dbg !9398 {
  %4 = alloca ptr, align 4
  %5 = alloca ptr, align 4
  %6 = alloca ptr, align 4
  %7 = alloca i32, align 4
  %8 = alloca i32, align 4
  %9 = alloca i32, align 4
  store ptr %0, ptr %4, align 4
  call void @llvm.dbg.declare(metadata ptr %4, metadata !9399, metadata !DIExpression()), !dbg !9400
  store ptr %1, ptr %5, align 4
  call void @llvm.dbg.declare(metadata ptr %5, metadata !9401, metadata !DIExpression()), !dbg !9402
  store ptr %2, ptr %6, align 4
  call void @llvm.dbg.declare(metadata ptr %6, metadata !9403, metadata !DIExpression()), !dbg !9404
  %10 = load ptr, ptr %4, align 4
  call void @llvm.dbg.declare(metadata ptr %7, metadata !9405, metadata !DIExpression()), !dbg !9406
  store i32 0, ptr %7, align 4, !dbg !9406, !annotation !6167
  store i32 0, ptr %7, align 4, !dbg !9406
  call void @llvm.dbg.declare(metadata ptr %8, metadata !9407, metadata !DIExpression()), !dbg !9408
  store i32 0, ptr %8, align 4, !dbg !9408, !annotation !6167
  %11 = load ptr, ptr %5, align 4, !dbg !9409
  %12 = call noundef i32 @_ZN4OHOS6Parcel9ReadInt32Ev(ptr noundef nonnull align 4 dereferenceable(61) %11), !dbg !9410
  store i32 %12, ptr %8, align 4, !dbg !9408
  call void @llvm.dbg.declare(metadata ptr %9, metadata !9411, metadata !DIExpression()), !dbg !9412
  store i32 0, ptr %9, align 4, !dbg !9412, !annotation !6167
  %13 = getelementptr inbounds i8, ptr %10, i32 60, !dbg !9413
  %14 = load i32, ptr %8, align 4, !dbg !9414
  %15 = load ptr, ptr %13, align 4, !dbg !9413
  %16 = getelementptr inbounds ptr, ptr %15, i64 9, !dbg !9413
  %17 = load ptr, ptr %16, align 4, !dbg !9413
  %18 = call noundef i32 %17(ptr noundef nonnull align 4 dereferenceable(4) %13, i32 noundef %14), !dbg !9413
  store i32 %18, ptr %9, align 4, !dbg !9412
  %19 = load ptr, ptr %6, align 4, !dbg !9415
  %20 = load i32, ptr %7, align 4, !dbg !9416
  %21 = call noundef zeroext i1 @_ZN4OHOS6Parcel10WriteInt32Ei(ptr noundef nonnull align 4 dereferenceable(61) %19, i32 noundef %20), !dbg !9417
  %22 = load ptr, ptr %6, align 4, !dbg !9418
  %23 = load i32, ptr %9, align 4, !dbg !9419
  %24 = call noundef zeroext i1 @_ZN4OHOS6Parcel10WriteInt32Ei(ptr noundef nonnull align 4 dereferenceable(61) %22, i32 noundef %23), !dbg !9420
  %25 = load i32, ptr %7, align 4, !dbg !9421
  ret i32 %25, !dbg !9422
}

declare noundef i32 @_ZN4OHOS13IPCObjectStub15OnRemoteRequestEjRNS_13MessageParcelES2_RNS_13MessageOptionE(ptr noundef nonnull align 8 dereferenceable(57), i32 noundef, ptr noundef nonnull align 4 dereferenceable(116), ptr noundef nonnull align 4 dereferenceable(116), ptr noundef nonnull align 4 dereferenceable(8)) unnamed_addr #4

; Function Attrs: noinline nounwind optnone sspstrong uwtable(sync)
define linkonce_odr hidden noundef ptr @_ZNSt3__h12basic_stringIDsNS_11char_traitsIDsEENS_9allocatorIDsEEED2Ev(ptr noundef nonnull returned align 4 dereferenceable(12) %0) unnamed_addr #3 comdat align 2 !dbg !9423 {
  %2 = alloca ptr, align 4
  %3 = alloca ptr, align 4
  store ptr %0, ptr %3, align 4
  call void @llvm.dbg.declare(metadata ptr %3, metadata !9424, metadata !DIExpression()), !dbg !9426
  %4 = load ptr, ptr %3, align 4
  store ptr %4, ptr %2, align 4
  call void @_ZNSt3__h18__debug_db_erase_cB6v15004INS_12basic_stringIDsNS_11char_traitsIDsEENS_9allocatorIDsEEEEEEvPT_(ptr noundef %4), !dbg !9427
  %5 = call noundef zeroext i1 @_ZNKSt3__h12basic_stringIDsNS_11char_traitsIDsEENS_9allocatorIDsEEE9__is_longB6v15004Ev(ptr noundef nonnull align 4 dereferenceable(12) %4) #14, !dbg !9429
  br i1 %5, label %6, label %10, !dbg !9431

6:                                                ; preds = %1
  %7 = call noundef nonnull align 1 dereferenceable(1) ptr @_ZNSt3__h12basic_stringIDsNS_11char_traitsIDsEENS_9allocatorIDsEEE7__allocB6v15004Ev(ptr noundef nonnull align 4 dereferenceable(12) %4) #14, !dbg !9432
  %8 = call noundef ptr @_ZNSt3__h12basic_stringIDsNS_11char_traitsIDsEENS_9allocatorIDsEEE18__get_long_pointerB6v15004Ev(ptr noundef nonnull align 4 dereferenceable(12) %4) #14, !dbg !9433
  %9 = call noundef i32 @_ZNKSt3__h12basic_stringIDsNS_11char_traitsIDsEENS_9allocatorIDsEEE14__get_long_capB6v15004Ev(ptr noundef nonnull align 4 dereferenceable(12) %4) #14, !dbg !9434
  call void @_ZNSt3__h16allocator_traitsINS_9allocatorIDsEEE10deallocateB6v15004ERS2_PDsj(ptr noundef nonnull align 1 dereferenceable(1) %7, ptr noundef %8, i32 noundef %9) #14, !dbg !9435
  br label %10, !dbg !9435

10:                                               ; preds = %6, %1
  %11 = load ptr, ptr %2, align 4, !dbg !9436
  ret ptr %11, !dbg !9436
}

; Function Attrs: mustprogress noinline nounwind optnone sspstrong uwtable(sync)
define linkonce_odr hidden void @_ZNSt3__h18__debug_db_erase_cB6v15004INS_12basic_stringIDsNS_11char_traitsIDsEENS_9allocatorIDsEEEEEEvPT_(ptr noundef %0) #0 comdat !dbg !9437 {
  %2 = alloca ptr, align 4
  store ptr %0, ptr %2, align 4
  call void @llvm.dbg.declare(metadata ptr %2, metadata !9442, metadata !DIExpression()), !dbg !9443
  ret void, !dbg !9444
}

; Function Attrs: mustprogress noinline nounwind optnone sspstrong uwtable(sync)
define linkonce_odr hidden noundef zeroext i1 @_ZNKSt3__h12basic_stringIDsNS_11char_traitsIDsEENS_9allocatorIDsEEE9__is_longB6v15004Ev(ptr noundef nonnull align 4 dereferenceable(12) %0) #0 comdat align 2 !dbg !9445 {
  %2 = alloca ptr, align 4
  store ptr %0, ptr %2, align 4
  call void @llvm.dbg.declare(metadata ptr %2, metadata !9446, metadata !DIExpression()), !dbg !9448
  %3 = load ptr, ptr %2, align 4
  %4 = getelementptr inbounds %"class.std::__h::basic_string", ptr %3, i32 0, i32 0, !dbg !9449
  %5 = call noundef nonnull align 4 dereferenceable(12) ptr @_ZNKSt3__h17__compressed_pairINS_12basic_stringIDsNS_11char_traitsIDsEENS_9allocatorIDsEEE5__repES5_E5firstB6v15004Ev(ptr noundef nonnull align 4 dereferenceable(12) %4) #14, !dbg !9450
  %6 = getelementptr inbounds %"struct.std::__h::basic_string<char>::__rep", ptr %5, i32 0, i32 0, !dbg !9451
  %7 = getelementptr inbounds %"struct.std::__h::basic_string<char16_t>::__short", ptr %6, i32 0, i32 0, !dbg !9452
  %8 = load i8, ptr %7, align 4, !dbg !9452
  %9 = and i8 %8, 1, !dbg !9452
  %10 = icmp ne i8 %9, 0, !dbg !9449
  ret i1 %10, !dbg !9453
}

; Function Attrs: mustprogress noinline nounwind optnone sspstrong uwtable(sync)
define linkonce_odr hidden noundef nonnull align 1 dereferenceable(1) ptr @_ZNSt3__h12basic_stringIDsNS_11char_traitsIDsEENS_9allocatorIDsEEE7__allocB6v15004Ev(ptr noundef nonnull align 4 dereferenceable(12) %0) #0 comdat align 2 !dbg !9454 {
  %2 = alloca ptr, align 4
  store ptr %0, ptr %2, align 4
  call void @llvm.dbg.declare(metadata ptr %2, metadata !9455, metadata !DIExpression()), !dbg !9456
  %3 = load ptr, ptr %2, align 4
  %4 = getelementptr inbounds %"class.std::__h::basic_string", ptr %3, i32 0, i32 0, !dbg !9457
  %5 = call noundef nonnull align 1 dereferenceable(1) ptr @_ZNSt3__h17__compressed_pairINS_12basic_stringIDsNS_11char_traitsIDsEENS_9allocatorIDsEEE5__repES5_E6secondB6v15004Ev(ptr noundef nonnull align 4 dereferenceable(12) %4) #14, !dbg !9458
  ret ptr %5, !dbg !9459
}

; Function Attrs: mustprogress noinline nounwind optnone sspstrong uwtable(sync)
define linkonce_odr hidden noundef ptr @_ZNSt3__h12basic_stringIDsNS_11char_traitsIDsEENS_9allocatorIDsEEE18__get_long_pointerB6v15004Ev(ptr noundef nonnull align 4 dereferenceable(12) %0) #0 comdat align 2 !dbg !9460 {
  %2 = alloca ptr, align 4
  store ptr %0, ptr %2, align 4
  call void @llvm.dbg.declare(metadata ptr %2, metadata !9461, metadata !DIExpression()), !dbg !9462
  %3 = load ptr, ptr %2, align 4
  %4 = getelementptr inbounds %"class.std::__h::basic_string", ptr %3, i32 0, i32 0, !dbg !9463
  %5 = call noundef nonnull align 4 dereferenceable(12) ptr @_ZNSt3__h17__compressed_pairINS_12basic_stringIDsNS_11char_traitsIDsEENS_9allocatorIDsEEE5__repES5_E5firstB6v15004Ev(ptr noundef nonnull align 4 dereferenceable(12) %4) #14, !dbg !9464
  %6 = getelementptr inbounds %"struct.std::__h::basic_string<char>::__rep", ptr %5, i32 0, i32 0, !dbg !9465
  %7 = getelementptr inbounds %"struct.std::__h::basic_string<char>::__long", ptr %6, i32 0, i32 2, !dbg !9466
  %8 = load ptr, ptr %7, align 4, !dbg !9466
  ret ptr %8, !dbg !9467
}

; Function Attrs: mustprogress noinline nounwind optnone sspstrong uwtable(sync)
define linkonce_odr hidden noundef i32 @_ZNKSt3__h12basic_stringIDsNS_11char_traitsIDsEENS_9allocatorIDsEEE14__get_long_capB6v15004Ev(ptr noundef nonnull align 4 dereferenceable(12) %0) #0 comdat align 2 !dbg !9468 {
  %2 = alloca ptr, align 4
  store ptr %0, ptr %2, align 4
  call void @llvm.dbg.declare(metadata ptr %2, metadata !9469, metadata !DIExpression()), !dbg !9470
  %3 = load ptr, ptr %2, align 4
  %4 = getelementptr inbounds %"class.std::__h::basic_string", ptr %3, i32 0, i32 0, !dbg !9471
  %5 = call noundef nonnull align 4 dereferenceable(12) ptr @_ZNKSt3__h17__compressed_pairINS_12basic_stringIDsNS_11char_traitsIDsEENS_9allocatorIDsEEE5__repES5_E5firstB6v15004Ev(ptr noundef nonnull align 4 dereferenceable(12) %4) #14, !dbg !9472
  %6 = getelementptr inbounds %"struct.std::__h::basic_string<char>::__rep", ptr %5, i32 0, i32 0, !dbg !9473
  %7 = getelementptr inbounds %"struct.std::__h::basic_string<char>::__long", ptr %6, i32 0, i32 0, !dbg !9474
  %8 = load i32, ptr %7, align 4, !dbg !9474
  %9 = lshr i32 %8, 1, !dbg !9474
  %10 = mul i32 %9, 2, !dbg !9475
  ret i32 %10, !dbg !9476
}

; Function Attrs: mustprogress noinline nounwind optnone sspstrong uwtable(sync)
define linkonce_odr hidden void @_ZNSt3__h16allocator_traitsINS_9allocatorIDsEEE10deallocateB6v15004ERS2_PDsj(ptr noundef nonnull align 1 dereferenceable(1) %0, ptr noundef %1, i32 noundef %2) #0 comdat align 2 !dbg !9477 {
  %4 = alloca ptr, align 4
  %5 = alloca ptr, align 4
  %6 = alloca i32, align 4
  store ptr %0, ptr %4, align 4
  call void @llvm.dbg.declare(metadata ptr %4, metadata !9478, metadata !DIExpression()), !dbg !9479
  store ptr %1, ptr %5, align 4
  call void @llvm.dbg.declare(metadata ptr %5, metadata !9480, metadata !DIExpression()), !dbg !9481
  store i32 %2, ptr %6, align 4
  call void @llvm.dbg.declare(metadata ptr %6, metadata !9482, metadata !DIExpression()), !dbg !9483
  %7 = load ptr, ptr %4, align 4, !dbg !9484
  %8 = load ptr, ptr %5, align 4, !dbg !9485
  %9 = load i32, ptr %6, align 4, !dbg !9486
  call void @_ZNSt3__h9allocatorIDsE10deallocateB6v15004EPDsj(ptr noundef nonnull align 1 dereferenceable(1) %7, ptr noundef %8, i32 noundef %9) #14, !dbg !9487
  ret void, !dbg !9488
}

; Function Attrs: mustprogress noinline nounwind optnone sspstrong uwtable(sync)
define linkonce_odr hidden void @_ZNSt3__h9allocatorIDsE10deallocateB6v15004EPDsj(ptr noundef nonnull align 1 dereferenceable(1) %0, ptr noundef %1, i32 noundef %2) #0 comdat align 2 !dbg !9489 {
  %4 = alloca ptr, align 4
  %5 = alloca ptr, align 4
  %6 = alloca i32, align 4
  store ptr %0, ptr %4, align 4
  call void @llvm.dbg.declare(metadata ptr %4, metadata !9490, metadata !DIExpression()), !dbg !9492
  store ptr %1, ptr %5, align 4
  call void @llvm.dbg.declare(metadata ptr %5, metadata !9493, metadata !DIExpression()), !dbg !9494
  store i32 %2, ptr %6, align 4
  call void @llvm.dbg.declare(metadata ptr %6, metadata !9495, metadata !DIExpression()), !dbg !9496
  %7 = load ptr, ptr %4, align 4
  %8 = load ptr, ptr %5, align 4, !dbg !9497
  %9 = load i32, ptr %6, align 4, !dbg !9500
  %10 = mul i32 %9, 2, !dbg !9501
  call void @_ZNSt3__h19__libcpp_deallocateB6v15004EPvjj(ptr noundef %8, i32 noundef %10, i32 noundef 2), !dbg !9502
  ret void, !dbg !9503
}

; Function Attrs: mustprogress noinline nounwind optnone sspstrong uwtable(sync)
define linkonce_odr hidden void @_ZNSt3__h19__libcpp_deallocateB6v15004EPvjj(ptr noundef %0, i32 noundef %1, i32 noundef %2) #0 comdat !dbg !9504 {
  %4 = alloca ptr, align 4
  %5 = alloca i32, align 4
  %6 = alloca i32, align 4
  %7 = alloca i32, align 4
  store ptr %0, ptr %4, align 4
  call void @llvm.dbg.declare(metadata ptr %4, metadata !9507, metadata !DIExpression()), !dbg !9508
  store i32 %1, ptr %5, align 4
  call void @llvm.dbg.declare(metadata ptr %5, metadata !9509, metadata !DIExpression()), !dbg !9510
  store i32 %2, ptr %6, align 4
  call void @llvm.dbg.declare(metadata ptr %6, metadata !9511, metadata !DIExpression()), !dbg !9512
  %8 = load i32, ptr %6, align 4, !dbg !9513
  %9 = call noundef zeroext i1 @_ZNSt3__h24__is_overaligned_for_newB6v15004Ej(i32 noundef %8) #14, !dbg !9515
  br i1 %9, label %10, label %15, !dbg !9516

10:                                               ; preds = %3
  call void @llvm.dbg.declare(metadata ptr %7, metadata !9517, metadata !DIExpression()), !dbg !9520
  store i32 0, ptr %7, align 4, !dbg !9520, !annotation !6167
  %11 = load i32, ptr %6, align 4, !dbg !9521
  store i32 %11, ptr %7, align 4, !dbg !9520
  %12 = load ptr, ptr %4, align 4, !dbg !9522
  %13 = load i32, ptr %5, align 4, !dbg !9523
  %14 = load i32, ptr %7, align 4, !dbg !9524
  call void @_ZNSt3__h27__do_deallocate_handle_sizeB6v15004IJSt11align_val_tEEEvPvjDpT_(ptr noundef %12, i32 noundef %13, i32 noundef %14), !dbg !9525
  br label %18, !dbg !9526

15:                                               ; preds = %3
  %16 = load ptr, ptr %4, align 4, !dbg !9527
  %17 = load i32, ptr %5, align 4, !dbg !9529
  call void @_ZNSt3__h27__do_deallocate_handle_sizeB6v15004IJEEEvPvjDpT_(ptr noundef %16, i32 noundef %17), !dbg !9530
  br label %18, !dbg !9531

18:                                               ; preds = %15, %10
  ret void, !dbg !9532
}

; Function Attrs: mustprogress noinline nounwind optnone sspstrong uwtable(sync)
define linkonce_odr hidden noundef zeroext i1 @_ZNSt3__h24__is_overaligned_for_newB6v15004Ej(i32 noundef %0) #0 comdat !dbg !9533 {
  %2 = alloca i32, align 4
  store i32 %0, ptr %2, align 4
  call void @llvm.dbg.declare(metadata ptr %2, metadata !9536, metadata !DIExpression()), !dbg !9537
  %3 = load i32, ptr %2, align 4, !dbg !9538
  %4 = icmp ugt i32 %3, 8, !dbg !9539
  ret i1 %4, !dbg !9540
}

; Function Attrs: mustprogress noinline nounwind optnone sspstrong uwtable(sync)
define linkonce_odr hidden void @_ZNSt3__h27__do_deallocate_handle_sizeB6v15004IJSt11align_val_tEEEvPvjDpT_(ptr noundef %0, i32 noundef %1, i32 noundef %2) #0 comdat !dbg !9541 {
  %4 = alloca ptr, align 4
  %5 = alloca i32, align 4
  %6 = alloca i32, align 4
  store ptr %0, ptr %4, align 4
  call void @llvm.dbg.declare(metadata ptr %4, metadata !9548, metadata !DIExpression()), !dbg !9549
  store i32 %1, ptr %5, align 4
  call void @llvm.dbg.declare(metadata ptr %5, metadata !9550, metadata !DIExpression()), !dbg !9551
  store i32 %2, ptr %6, align 4
  call void @llvm.dbg.declare(metadata ptr %6, metadata !9552, metadata !DIExpression()), !dbg !9553
  %7 = load ptr, ptr %4, align 4, !dbg !9554
  %8 = load i32, ptr %6, align 4, !dbg !9555
  call void @_ZNSt3__h24__libcpp_operator_deleteB6v15004IJPvSt11align_val_tEEEvDpT_(ptr noundef %7, i32 noundef %8), !dbg !9556
  ret void, !dbg !9557
}

; Function Attrs: mustprogress noinline nounwind optnone sspstrong uwtable(sync)
define linkonce_odr hidden void @_ZNSt3__h27__do_deallocate_handle_sizeB6v15004IJEEEvPvjDpT_(ptr noundef %0, i32 noundef %1) #0 comdat !dbg !9558 {
  %3 = alloca ptr, align 4
  %4 = alloca i32, align 4
  store ptr %0, ptr %3, align 4
  call void @llvm.dbg.declare(metadata ptr %3, metadata !9563, metadata !DIExpression()), !dbg !9564
  store i32 %1, ptr %4, align 4
  call void @llvm.dbg.declare(metadata ptr %4, metadata !9565, metadata !DIExpression()), !dbg !9566
  %5 = load ptr, ptr %3, align 4, !dbg !9567
  call void @_ZNSt3__h24__libcpp_operator_deleteB6v15004IJPvEEEvDpT_(ptr noundef %5), !dbg !9568
  ret void, !dbg !9569
}

; Function Attrs: mustprogress noinline nounwind optnone sspstrong uwtable(sync)
define linkonce_odr hidden void @_ZNSt3__h24__libcpp_operator_deleteB6v15004IJPvEEEvDpT_(ptr noundef %0) #0 comdat !dbg !9570 {
  %2 = alloca ptr, align 4
  store ptr %0, ptr %2, align 4
  call void @llvm.dbg.declare(metadata ptr %2, metadata !9575, metadata !DIExpression()), !dbg !9576
  %3 = load ptr, ptr %2, align 4, !dbg !9577
  call void @_ZdlPv(ptr noundef %3) #15, !dbg !9578
  ret void, !dbg !9579
}

; Function Attrs: mustprogress noinline nounwind optnone sspstrong uwtable(sync)
define linkonce_odr hidden void @_ZNSt3__h24__libcpp_operator_deleteB6v15004IJPvSt11align_val_tEEEvDpT_(ptr noundef %0, i32 noundef %1) #0 comdat !dbg !9580 {
  %3 = alloca ptr, align 4
  %4 = alloca i32, align 4
  store ptr %0, ptr %3, align 4
  call void @llvm.dbg.declare(metadata ptr %3, metadata !9586, metadata !DIExpression()), !dbg !9587
  store i32 %1, ptr %4, align 4
  call void @llvm.dbg.declare(metadata ptr %4, metadata !9588, metadata !DIExpression()), !dbg !9587
  %5 = load ptr, ptr %3, align 4, !dbg !9589
  %6 = load i32, ptr %4, align 4, !dbg !9589
  call void @_ZdlPvSt11align_val_t(ptr noundef %5, i32 noundef %6) #15, !dbg !9590
  ret void, !dbg !9591
}

; Function Attrs: nobuiltin nounwind
declare void @_ZdlPvSt11align_val_t(ptr noundef, i32 noundef) #6

; Function Attrs: mustprogress noinline nounwind optnone sspstrong uwtable(sync)
define linkonce_odr hidden noundef nonnull align 4 dereferenceable(12) ptr @_ZNKSt3__h17__compressed_pairINS_12basic_stringIDsNS_11char_traitsIDsEENS_9allocatorIDsEEE5__repES5_E5firstB6v15004Ev(ptr noundef nonnull align 4 dereferenceable(12) %0) #0 comdat align 2 !dbg !9592 {
  %2 = alloca ptr, align 4
  store ptr %0, ptr %2, align 4
  call void @llvm.dbg.declare(metadata ptr %2, metadata !9593, metadata !DIExpression()), !dbg !9595
  %3 = load ptr, ptr %2, align 4
  %4 = call noundef nonnull align 4 dereferenceable(12) ptr @_ZNKSt3__h22__compressed_pair_elemINS_12basic_stringIDsNS_11char_traitsIDsEENS_9allocatorIDsEEE5__repELi0ELb0EE5__getB6v15004Ev(ptr noundef nonnull align 4 dereferenceable(12) %3) #14, !dbg !9596
  ret ptr %4, !dbg !9597
}

; Function Attrs: mustprogress noinline nounwind optnone sspstrong uwtable(sync)
define linkonce_odr hidden noundef nonnull align 4 dereferenceable(12) ptr @_ZNKSt3__h22__compressed_pair_elemINS_12basic_stringIDsNS_11char_traitsIDsEENS_9allocatorIDsEEE5__repELi0ELb0EE5__getB6v15004Ev(ptr noundef nonnull align 4 dereferenceable(12) %0) #0 comdat align 2 !dbg !9598 {
  %2 = alloca ptr, align 4
  store ptr %0, ptr %2, align 4
  call void @llvm.dbg.declare(metadata ptr %2, metadata !9599, metadata !DIExpression()), !dbg !9601
  %3 = load ptr, ptr %2, align 4
  %4 = getelementptr inbounds %"struct.std::__h::__compressed_pair_elem", ptr %3, i32 0, i32 0, !dbg !9602
  ret ptr %4, !dbg !9603
}

; Function Attrs: mustprogress noinline nounwind optnone sspstrong uwtable(sync)
define linkonce_odr hidden noundef nonnull align 4 dereferenceable(12) ptr @_ZNSt3__h17__compressed_pairINS_12basic_stringIDsNS_11char_traitsIDsEENS_9allocatorIDsEEE5__repES5_E5firstB6v15004Ev(ptr noundef nonnull align 4 dereferenceable(12) %0) #0 comdat align 2 !dbg !9604 {
  %2 = alloca ptr, align 4
  store ptr %0, ptr %2, align 4
  call void @llvm.dbg.declare(metadata ptr %2, metadata !9605, metadata !DIExpression()), !dbg !9606
  %3 = load ptr, ptr %2, align 4
  %4 = call noundef nonnull align 4 dereferenceable(12) ptr @_ZNSt3__h22__compressed_pair_elemINS_12basic_stringIDsNS_11char_traitsIDsEENS_9allocatorIDsEEE5__repELi0ELb0EE5__getB6v15004Ev(ptr noundef nonnull align 4 dereferenceable(12) %3) #14, !dbg !9607
  ret ptr %4, !dbg !9608
}

; Function Attrs: mustprogress noinline nounwind optnone sspstrong uwtable(sync)
define linkonce_odr hidden noundef nonnull align 4 dereferenceable(12) ptr @_ZNSt3__h22__compressed_pair_elemINS_12basic_stringIDsNS_11char_traitsIDsEENS_9allocatorIDsEEE5__repELi0ELb0EE5__getB6v15004Ev(ptr noundef nonnull align 4 dereferenceable(12) %0) #0 comdat align 2 !dbg !9609 {
  %2 = alloca ptr, align 4
  store ptr %0, ptr %2, align 4
  call void @llvm.dbg.declare(metadata ptr %2, metadata !9610, metadata !DIExpression()), !dbg !9611
  %3 = load ptr, ptr %2, align 4
  %4 = getelementptr inbounds %"struct.std::__h::__compressed_pair_elem", ptr %3, i32 0, i32 0, !dbg !9612
  ret ptr %4, !dbg !9613
}

; Function Attrs: mustprogress noinline nounwind optnone sspstrong uwtable(sync)
define linkonce_odr hidden noundef nonnull align 1 dereferenceable(1) ptr @_ZNSt3__h17__compressed_pairINS_12basic_stringIDsNS_11char_traitsIDsEENS_9allocatorIDsEEE5__repES5_E6secondB6v15004Ev(ptr noundef nonnull align 4 dereferenceable(12) %0) #0 comdat align 2 !dbg !9614 {
  %2 = alloca ptr, align 4
  store ptr %0, ptr %2, align 4
  call void @llvm.dbg.declare(metadata ptr %2, metadata !9615, metadata !DIExpression()), !dbg !9616
  %3 = load ptr, ptr %2, align 4
  %4 = call noundef nonnull align 1 dereferenceable(1) ptr @_ZNSt3__h22__compressed_pair_elemINS_9allocatorIDsEELi1ELb1EE5__getB6v15004Ev(ptr noundef nonnull align 1 dereferenceable(1) %3) #14, !dbg !9617
  ret ptr %4, !dbg !9618
}

; Function Attrs: mustprogress noinline nounwind optnone sspstrong uwtable(sync)
define linkonce_odr hidden noundef nonnull align 1 dereferenceable(1) ptr @_ZNSt3__h22__compressed_pair_elemINS_9allocatorIDsEELi1ELb1EE5__getB6v15004Ev(ptr noundef nonnull align 1 dereferenceable(1) %0) #0 comdat align 2 !dbg !9619 {
  %2 = alloca ptr, align 4
  store ptr %0, ptr %2, align 4
  call void @llvm.dbg.declare(metadata ptr %2, metadata !9620, metadata !DIExpression()), !dbg !9621
  %3 = load ptr, ptr %2, align 4
  ret ptr %3, !dbg !9622
}

declare noundef i32 @_ZN4OHOS6Parcel9ReadInt32Ev(ptr noundef nonnull align 4 dereferenceable(61)) #4

declare noundef zeroext i1 @_ZN4OHOS6Parcel10WriteInt32Ei(ptr noundef nonnull align 4 dereferenceable(61), i32 noundef) #4

; Function Attrs: mustprogress noinline nounwind optnone sspstrong uwtable(sync)
define linkonce_odr hidden noundef zeroext i1 @_ZNSt3__heqB6v15004IDsNS_11char_traitsIDsEENS_9allocatorIDsEEEEbRKNS_12basic_stringIT_T0_T1_EESB_(ptr noundef nonnull align 4 dereferenceable(12) %0, ptr noundef nonnull align 4 dereferenceable(12) %1) #0 comdat !dbg !9623 {
  %3 = alloca ptr, align 4
  %4 = alloca ptr, align 4
  %5 = alloca i32, align 4
  store ptr %0, ptr %3, align 4
  call void @llvm.dbg.declare(metadata ptr %3, metadata !9624, metadata !DIExpression()), !dbg !9625
  store ptr %1, ptr %4, align 4
  call void @llvm.dbg.declare(metadata ptr %4, metadata !9626, metadata !DIExpression()), !dbg !9627
  call void @llvm.dbg.declare(metadata ptr %5, metadata !9628, metadata !DIExpression()), !dbg !9629
  store i32 0, ptr %5, align 4, !dbg !9629, !annotation !6167
  %6 = load ptr, ptr %3, align 4, !dbg !9630
  %7 = call noundef i32 @_ZNKSt3__h12basic_stringIDsNS_11char_traitsIDsEENS_9allocatorIDsEEE4sizeB6v15004Ev(ptr noundef nonnull align 4 dereferenceable(12) %6) #14, !dbg !9631
  store i32 %7, ptr %5, align 4, !dbg !9629
  %8 = load i32, ptr %5, align 4, !dbg !9632
  %9 = load ptr, ptr %4, align 4, !dbg !9633
  %10 = call noundef i32 @_ZNKSt3__h12basic_stringIDsNS_11char_traitsIDsEENS_9allocatorIDsEEE4sizeB6v15004Ev(ptr noundef nonnull align 4 dereferenceable(12) %9) #14, !dbg !9634
  %11 = icmp eq i32 %8, %10, !dbg !9635
  br i1 %11, label %12, label %20, !dbg !9636

12:                                               ; preds = %2
  %13 = load ptr, ptr %3, align 4, !dbg !9637
  %14 = call noundef ptr @_ZNKSt3__h12basic_stringIDsNS_11char_traitsIDsEENS_9allocatorIDsEEE4dataB6v15004Ev(ptr noundef nonnull align 4 dereferenceable(12) %13) #14, !dbg !9638
  %15 = load ptr, ptr %4, align 4, !dbg !9639
  %16 = call noundef ptr @_ZNKSt3__h12basic_stringIDsNS_11char_traitsIDsEENS_9allocatorIDsEEE4dataB6v15004Ev(ptr noundef nonnull align 4 dereferenceable(12) %15) #14, !dbg !9640
  %17 = load i32, ptr %5, align 4, !dbg !9641
  %18 = call noundef i32 @_ZNSt3__h11char_traitsIDsE7compareB6v15004EPKDsS3_j(ptr noundef %14, ptr noundef %16, i32 noundef %17) #14, !dbg !9642
  %19 = icmp eq i32 %18, 0, !dbg !9643
  br label %20

20:                                               ; preds = %12, %2
  %21 = phi i1 [ false, %2 ], [ %19, %12 ], !dbg !9644
  ret i1 %21, !dbg !9645
}

; Function Attrs: mustprogress noinline nounwind optnone sspstrong uwtable(sync)
define linkonce_odr hidden noundef i32 @_ZNKSt3__h12basic_stringIDsNS_11char_traitsIDsEENS_9allocatorIDsEEE4sizeB6v15004Ev(ptr noundef nonnull align 4 dereferenceable(12) %0) #0 comdat align 2 !dbg !9646 {
  %2 = alloca ptr, align 4
  store ptr %0, ptr %2, align 4
  call void @llvm.dbg.declare(metadata ptr %2, metadata !9647, metadata !DIExpression()), !dbg !9648
  %3 = load ptr, ptr %2, align 4
  %4 = call noundef zeroext i1 @_ZNKSt3__h12basic_stringIDsNS_11char_traitsIDsEENS_9allocatorIDsEEE9__is_longB6v15004Ev(ptr noundef nonnull align 4 dereferenceable(12) %3) #14, !dbg !9649
  br i1 %4, label %5, label %7, !dbg !9649

5:                                                ; preds = %1
  %6 = call noundef i32 @_ZNKSt3__h12basic_stringIDsNS_11char_traitsIDsEENS_9allocatorIDsEEE15__get_long_sizeB6v15004Ev(ptr noundef nonnull align 4 dereferenceable(12) %3) #14, !dbg !9650
  br label %9, !dbg !9649

7:                                                ; preds = %1
  %8 = call noundef i32 @_ZNKSt3__h12basic_stringIDsNS_11char_traitsIDsEENS_9allocatorIDsEEE16__get_short_sizeB6v15004Ev(ptr noundef nonnull align 4 dereferenceable(12) %3) #14, !dbg !9651
  br label %9, !dbg !9649

9:                                                ; preds = %7, %5
  %10 = phi i32 [ %6, %5 ], [ %8, %7 ], !dbg !9649
  ret i32 %10, !dbg !9652
}

; Function Attrs: mustprogress noinline nounwind optnone sspstrong uwtable(sync)
define linkonce_odr hidden noundef ptr @_ZNKSt3__h12basic_stringIDsNS_11char_traitsIDsEENS_9allocatorIDsEEE4dataB6v15004Ev(ptr noundef nonnull align 4 dereferenceable(12) %0) #0 comdat align 2 !dbg !9653 {
  %2 = alloca ptr, align 4
  store ptr %0, ptr %2, align 4
  call void @llvm.dbg.declare(metadata ptr %2, metadata !9654, metadata !DIExpression()), !dbg !9655
  %3 = load ptr, ptr %2, align 4
  %4 = call noundef ptr @_ZNKSt3__h12basic_stringIDsNS_11char_traitsIDsEENS_9allocatorIDsEEE13__get_pointerB6v15004Ev(ptr noundef nonnull align 4 dereferenceable(12) %3) #14, !dbg !9656
  %5 = call noundef ptr @_ZNSt3__h12__to_addressB6v15004IKDsEEPT_S3_(ptr noundef %4) #14, !dbg !9657
  ret ptr %5, !dbg !9658
}

; Function Attrs: mustprogress noinline nounwind optnone sspstrong uwtable(sync)
define linkonce_odr hidden noundef i32 @_ZNSt3__h11char_traitsIDsE7compareB6v15004EPKDsS3_j(ptr noundef %0, ptr noundef %1, i32 noundef %2) #0 comdat align 2 !dbg !9659 {
  %4 = alloca i32, align 4
  %5 = alloca ptr, align 4
  %6 = alloca ptr, align 4
  %7 = alloca i32, align 4
  store ptr %0, ptr %5, align 4
  call void @llvm.dbg.declare(metadata ptr %5, metadata !9660, metadata !DIExpression()), !dbg !9661
  store ptr %1, ptr %6, align 4
  call void @llvm.dbg.declare(metadata ptr %6, metadata !9662, metadata !DIExpression()), !dbg !9663
  store i32 %2, ptr %7, align 4
  call void @llvm.dbg.declare(metadata ptr %7, metadata !9664, metadata !DIExpression()), !dbg !9665
  br label %8, !dbg !9666

8:                                                ; preds = %26, %3
  %9 = load i32, ptr %7, align 4, !dbg !9667
  %10 = icmp ne i32 %9, 0, !dbg !9667
  br i1 %10, label %11, label %33, !dbg !9670

11:                                               ; preds = %8
  %12 = load ptr, ptr %5, align 4, !dbg !9671
  %13 = load i16, ptr %12, align 2, !dbg !9674
  %14 = load ptr, ptr %6, align 4, !dbg !9675
  %15 = load i16, ptr %14, align 2, !dbg !9676
  %16 = call noundef zeroext i1 @_ZNSt3__h11char_traitsIDsE2ltEDsDs(i16 noundef zeroext %13, i16 noundef zeroext %15) #14, !dbg !9677
  br i1 %16, label %17, label %18, !dbg !9678

17:                                               ; preds = %11
  store i32 -1, ptr %4, align 4, !dbg !9679
  br label %34, !dbg !9679

18:                                               ; preds = %11
  %19 = load ptr, ptr %6, align 4, !dbg !9680
  %20 = load i16, ptr %19, align 2, !dbg !9682
  %21 = load ptr, ptr %5, align 4, !dbg !9683
  %22 = load i16, ptr %21, align 2, !dbg !9684
  %23 = call noundef zeroext i1 @_ZNSt3__h11char_traitsIDsE2ltEDsDs(i16 noundef zeroext %20, i16 noundef zeroext %22) #14, !dbg !9685
  br i1 %23, label %24, label %25, !dbg !9686

24:                                               ; preds = %18
  store i32 1, ptr %4, align 4, !dbg !9687
  br label %34, !dbg !9687

25:                                               ; preds = %18
  br label %26, !dbg !9688

26:                                               ; preds = %25
  %27 = load i32, ptr %7, align 4, !dbg !9689
  %28 = add i32 %27, -1, !dbg !9689
  store i32 %28, ptr %7, align 4, !dbg !9689
  %29 = load ptr, ptr %5, align 4, !dbg !9690
  %30 = getelementptr inbounds i16, ptr %29, i32 1, !dbg !9690
  store ptr %30, ptr %5, align 4, !dbg !9690
  %31 = load ptr, ptr %6, align 4, !dbg !9691
  %32 = getelementptr inbounds i16, ptr %31, i32 1, !dbg !9691
  store ptr %32, ptr %6, align 4, !dbg !9691
  br label %8, !dbg !9692, !llvm.loop !9693

33:                                               ; preds = %8
